
;CodeVisionAVR C Compiler V3.12 Advanced
;(C) Copyright 1998-2014 Pavel Haiduc, HP InfoTech s.r.l.
;http://www.hpinfotech.com

;Build configuration    : Debug
;Chip type              : ATmega32A
;Program type           : Application
;Clock frequency        : 11.059200 MHz
;Memory model           : Small
;Optimize for           : Size
;(s)printf features     : float, width, precision
;(s)scanf features      : int, width
;External RAM size      : 0
;Data Stack size        : 512 byte(s)
;Heap size              : 0 byte(s)
;Promote 'char' to 'int': Yes
;'char' is unsigned     : Yes
;8 bit enums            : Yes
;Global 'const' stored in FLASH: Yes
;Enhanced function parameter passing: Yes
;Enhanced core instructions: On
;Automatic register allocation for global variables: On
;Smart register allocation: On

	#define _MODEL_SMALL_

	#pragma AVRPART ADMIN PART_NAME ATmega32A
	#pragma AVRPART MEMORY PROG_FLASH 32768
	#pragma AVRPART MEMORY EEPROM 1024
	#pragma AVRPART MEMORY INT_SRAM SIZE 2048
	#pragma AVRPART MEMORY INT_SRAM START_ADDR 0x60

	#define CALL_SUPPORTED 1

	.LISTMAC
	.EQU UDRE=0x5
	.EQU RXC=0x7
	.EQU USR=0xB
	.EQU UDR=0xC
	.EQU SPSR=0xE
	.EQU SPDR=0xF
	.EQU EERE=0x0
	.EQU EEWE=0x1
	.EQU EEMWE=0x2
	.EQU EECR=0x1C
	.EQU EEDR=0x1D
	.EQU EEARL=0x1E
	.EQU EEARH=0x1F
	.EQU WDTCR=0x21
	.EQU MCUCR=0x35
	.EQU SPL=0x3D
	.EQU SPH=0x3E
	.EQU SREG=0x3F

	.DEF R0X0=R0
	.DEF R0X1=R1
	.DEF R0X2=R2
	.DEF R0X3=R3
	.DEF R0X4=R4
	.DEF R0X5=R5
	.DEF R0X6=R6
	.DEF R0X7=R7
	.DEF R0X8=R8
	.DEF R0X9=R9
	.DEF R0XA=R10
	.DEF R0XB=R11
	.DEF R0XC=R12
	.DEF R0XD=R13
	.DEF R0XE=R14
	.DEF R0XF=R15
	.DEF R0X10=R16
	.DEF R0X11=R17
	.DEF R0X12=R18
	.DEF R0X13=R19
	.DEF R0X14=R20
	.DEF R0X15=R21
	.DEF R0X16=R22
	.DEF R0X17=R23
	.DEF R0X18=R24
	.DEF R0X19=R25
	.DEF R0X1A=R26
	.DEF R0X1B=R27
	.DEF R0X1C=R28
	.DEF R0X1D=R29
	.DEF R0X1E=R30
	.DEF R0X1F=R31

	.EQU __SRAM_START=0x0060
	.EQU __SRAM_END=0x085F
	.EQU __DSTACK_SIZE=0x0200
	.EQU __HEAP_SIZE=0x0000
	.EQU __CLEAR_SRAM_SIZE=__SRAM_END-__SRAM_START+1

	.MACRO __CPD1N
	CPI  R30,LOW(@0)
	LDI  R26,HIGH(@0)
	CPC  R31,R26
	LDI  R26,BYTE3(@0)
	CPC  R22,R26
	LDI  R26,BYTE4(@0)
	CPC  R23,R26
	.ENDM

	.MACRO __CPD2N
	CPI  R26,LOW(@0)
	LDI  R30,HIGH(@0)
	CPC  R27,R30
	LDI  R30,BYTE3(@0)
	CPC  R24,R30
	LDI  R30,BYTE4(@0)
	CPC  R25,R30
	.ENDM

	.MACRO __CPWRR
	CP   R@0,R@2
	CPC  R@1,R@3
	.ENDM

	.MACRO __CPWRN
	CPI  R@0,LOW(@2)
	LDI  R30,HIGH(@2)
	CPC  R@1,R30
	.ENDM

	.MACRO __ADDB1MN
	SUBI R30,LOW(-@0-(@1))
	.ENDM

	.MACRO __ADDB2MN
	SUBI R26,LOW(-@0-(@1))
	.ENDM

	.MACRO __ADDW1MN
	SUBI R30,LOW(-@0-(@1))
	SBCI R31,HIGH(-@0-(@1))
	.ENDM

	.MACRO __ADDW2MN
	SUBI R26,LOW(-@0-(@1))
	SBCI R27,HIGH(-@0-(@1))
	.ENDM

	.MACRO __ADDW1FN
	SUBI R30,LOW(-2*@0-(@1))
	SBCI R31,HIGH(-2*@0-(@1))
	.ENDM

	.MACRO __ADDD1FN
	SUBI R30,LOW(-2*@0-(@1))
	SBCI R31,HIGH(-2*@0-(@1))
	SBCI R22,BYTE3(-2*@0-(@1))
	.ENDM

	.MACRO __ADDD1N
	SUBI R30,LOW(-@0)
	SBCI R31,HIGH(-@0)
	SBCI R22,BYTE3(-@0)
	SBCI R23,BYTE4(-@0)
	.ENDM

	.MACRO __ADDD2N
	SUBI R26,LOW(-@0)
	SBCI R27,HIGH(-@0)
	SBCI R24,BYTE3(-@0)
	SBCI R25,BYTE4(-@0)
	.ENDM

	.MACRO __SUBD1N
	SUBI R30,LOW(@0)
	SBCI R31,HIGH(@0)
	SBCI R22,BYTE3(@0)
	SBCI R23,BYTE4(@0)
	.ENDM

	.MACRO __SUBD2N
	SUBI R26,LOW(@0)
	SBCI R27,HIGH(@0)
	SBCI R24,BYTE3(@0)
	SBCI R25,BYTE4(@0)
	.ENDM

	.MACRO __ANDBMNN
	LDS  R30,@0+(@1)
	ANDI R30,LOW(@2)
	STS  @0+(@1),R30
	.ENDM

	.MACRO __ANDWMNN
	LDS  R30,@0+(@1)
	ANDI R30,LOW(@2)
	STS  @0+(@1),R30
	LDS  R30,@0+(@1)+1
	ANDI R30,HIGH(@2)
	STS  @0+(@1)+1,R30
	.ENDM

	.MACRO __ANDD1N
	ANDI R30,LOW(@0)
	ANDI R31,HIGH(@0)
	ANDI R22,BYTE3(@0)
	ANDI R23,BYTE4(@0)
	.ENDM

	.MACRO __ANDD2N
	ANDI R26,LOW(@0)
	ANDI R27,HIGH(@0)
	ANDI R24,BYTE3(@0)
	ANDI R25,BYTE4(@0)
	.ENDM

	.MACRO __ORBMNN
	LDS  R30,@0+(@1)
	ORI  R30,LOW(@2)
	STS  @0+(@1),R30
	.ENDM

	.MACRO __ORWMNN
	LDS  R30,@0+(@1)
	ORI  R30,LOW(@2)
	STS  @0+(@1),R30
	LDS  R30,@0+(@1)+1
	ORI  R30,HIGH(@2)
	STS  @0+(@1)+1,R30
	.ENDM

	.MACRO __ORD1N
	ORI  R30,LOW(@0)
	ORI  R31,HIGH(@0)
	ORI  R22,BYTE3(@0)
	ORI  R23,BYTE4(@0)
	.ENDM

	.MACRO __ORD2N
	ORI  R26,LOW(@0)
	ORI  R27,HIGH(@0)
	ORI  R24,BYTE3(@0)
	ORI  R25,BYTE4(@0)
	.ENDM

	.MACRO __DELAY_USB
	LDI  R24,LOW(@0)
__DELAY_USB_LOOP:
	DEC  R24
	BRNE __DELAY_USB_LOOP
	.ENDM

	.MACRO __DELAY_USW
	LDI  R24,LOW(@0)
	LDI  R25,HIGH(@0)
__DELAY_USW_LOOP:
	SBIW R24,1
	BRNE __DELAY_USW_LOOP
	.ENDM

	.MACRO __GETD1S
	LDD  R30,Y+@0
	LDD  R31,Y+@0+1
	LDD  R22,Y+@0+2
	LDD  R23,Y+@0+3
	.ENDM

	.MACRO __GETD2S
	LDD  R26,Y+@0
	LDD  R27,Y+@0+1
	LDD  R24,Y+@0+2
	LDD  R25,Y+@0+3
	.ENDM

	.MACRO __PUTD1S
	STD  Y+@0,R30
	STD  Y+@0+1,R31
	STD  Y+@0+2,R22
	STD  Y+@0+3,R23
	.ENDM

	.MACRO __PUTD2S
	STD  Y+@0,R26
	STD  Y+@0+1,R27
	STD  Y+@0+2,R24
	STD  Y+@0+3,R25
	.ENDM

	.MACRO __PUTDZ2
	STD  Z+@0,R26
	STD  Z+@0+1,R27
	STD  Z+@0+2,R24
	STD  Z+@0+3,R25
	.ENDM

	.MACRO __CLRD1S
	STD  Y+@0,R30
	STD  Y+@0+1,R30
	STD  Y+@0+2,R30
	STD  Y+@0+3,R30
	.ENDM

	.MACRO __POINTB1MN
	LDI  R30,LOW(@0+(@1))
	.ENDM

	.MACRO __POINTW1MN
	LDI  R30,LOW(@0+(@1))
	LDI  R31,HIGH(@0+(@1))
	.ENDM

	.MACRO __POINTD1M
	LDI  R30,LOW(@0)
	LDI  R31,HIGH(@0)
	LDI  R22,BYTE3(@0)
	LDI  R23,BYTE4(@0)
	.ENDM

	.MACRO __POINTW1FN
	LDI  R30,LOW(2*@0+(@1))
	LDI  R31,HIGH(2*@0+(@1))
	.ENDM

	.MACRO __POINTD1FN
	LDI  R30,LOW(2*@0+(@1))
	LDI  R31,HIGH(2*@0+(@1))
	LDI  R22,BYTE3(2*@0+(@1))
	LDI  R23,BYTE4(2*@0+(@1))
	.ENDM

	.MACRO __POINTB2MN
	LDI  R26,LOW(@0+(@1))
	.ENDM

	.MACRO __POINTW2MN
	LDI  R26,LOW(@0+(@1))
	LDI  R27,HIGH(@0+(@1))
	.ENDM

	.MACRO __POINTW2FN
	LDI  R26,LOW(2*@0+(@1))
	LDI  R27,HIGH(2*@0+(@1))
	.ENDM

	.MACRO __POINTD2FN
	LDI  R26,LOW(2*@0+(@1))
	LDI  R27,HIGH(2*@0+(@1))
	LDI  R24,BYTE3(2*@0+(@1))
	LDI  R25,BYTE4(2*@0+(@1))
	.ENDM

	.MACRO __POINTBRM
	LDI  R@0,LOW(@1)
	.ENDM

	.MACRO __POINTWRM
	LDI  R@0,LOW(@2)
	LDI  R@1,HIGH(@2)
	.ENDM

	.MACRO __POINTBRMN
	LDI  R@0,LOW(@1+(@2))
	.ENDM

	.MACRO __POINTWRMN
	LDI  R@0,LOW(@2+(@3))
	LDI  R@1,HIGH(@2+(@3))
	.ENDM

	.MACRO __POINTWRFN
	LDI  R@0,LOW(@2*2+(@3))
	LDI  R@1,HIGH(@2*2+(@3))
	.ENDM

	.MACRO __GETD1N
	LDI  R30,LOW(@0)
	LDI  R31,HIGH(@0)
	LDI  R22,BYTE3(@0)
	LDI  R23,BYTE4(@0)
	.ENDM

	.MACRO __GETD2N
	LDI  R26,LOW(@0)
	LDI  R27,HIGH(@0)
	LDI  R24,BYTE3(@0)
	LDI  R25,BYTE4(@0)
	.ENDM

	.MACRO __GETB1MN
	LDS  R30,@0+(@1)
	.ENDM

	.MACRO __GETB1HMN
	LDS  R31,@0+(@1)
	.ENDM

	.MACRO __GETW1MN
	LDS  R30,@0+(@1)
	LDS  R31,@0+(@1)+1
	.ENDM

	.MACRO __GETD1MN
	LDS  R30,@0+(@1)
	LDS  R31,@0+(@1)+1
	LDS  R22,@0+(@1)+2
	LDS  R23,@0+(@1)+3
	.ENDM

	.MACRO __GETBRMN
	LDS  R@0,@1+(@2)
	.ENDM

	.MACRO __GETWRMN
	LDS  R@0,@2+(@3)
	LDS  R@1,@2+(@3)+1
	.ENDM

	.MACRO __GETWRZ
	LDD  R@0,Z+@2
	LDD  R@1,Z+@2+1
	.ENDM

	.MACRO __GETD2Z
	LDD  R26,Z+@0
	LDD  R27,Z+@0+1
	LDD  R24,Z+@0+2
	LDD  R25,Z+@0+3
	.ENDM

	.MACRO __GETB2MN
	LDS  R26,@0+(@1)
	.ENDM

	.MACRO __GETW2MN
	LDS  R26,@0+(@1)
	LDS  R27,@0+(@1)+1
	.ENDM

	.MACRO __GETD2MN
	LDS  R26,@0+(@1)
	LDS  R27,@0+(@1)+1
	LDS  R24,@0+(@1)+2
	LDS  R25,@0+(@1)+3
	.ENDM

	.MACRO __PUTB1MN
	STS  @0+(@1),R30
	.ENDM

	.MACRO __PUTW1MN
	STS  @0+(@1),R30
	STS  @0+(@1)+1,R31
	.ENDM

	.MACRO __PUTD1MN
	STS  @0+(@1),R30
	STS  @0+(@1)+1,R31
	STS  @0+(@1)+2,R22
	STS  @0+(@1)+3,R23
	.ENDM

	.MACRO __PUTB1EN
	LDI  R26,LOW(@0+(@1))
	LDI  R27,HIGH(@0+(@1))
	CALL __EEPROMWRB
	.ENDM

	.MACRO __PUTW1EN
	LDI  R26,LOW(@0+(@1))
	LDI  R27,HIGH(@0+(@1))
	CALL __EEPROMWRW
	.ENDM

	.MACRO __PUTD1EN
	LDI  R26,LOW(@0+(@1))
	LDI  R27,HIGH(@0+(@1))
	CALL __EEPROMWRD
	.ENDM

	.MACRO __PUTBR0MN
	STS  @0+(@1),R0
	.ENDM

	.MACRO __PUTBMRN
	STS  @0+(@1),R@2
	.ENDM

	.MACRO __PUTWMRN
	STS  @0+(@1),R@2
	STS  @0+(@1)+1,R@3
	.ENDM

	.MACRO __PUTBZR
	STD  Z+@1,R@0
	.ENDM

	.MACRO __PUTWZR
	STD  Z+@2,R@0
	STD  Z+@2+1,R@1
	.ENDM

	.MACRO __GETW1R
	MOV  R30,R@0
	MOV  R31,R@1
	.ENDM

	.MACRO __GETW2R
	MOV  R26,R@0
	MOV  R27,R@1
	.ENDM

	.MACRO __GETWRN
	LDI  R@0,LOW(@2)
	LDI  R@1,HIGH(@2)
	.ENDM

	.MACRO __PUTW1R
	MOV  R@0,R30
	MOV  R@1,R31
	.ENDM

	.MACRO __PUTW2R
	MOV  R@0,R26
	MOV  R@1,R27
	.ENDM

	.MACRO __ADDWRN
	SUBI R@0,LOW(-@2)
	SBCI R@1,HIGH(-@2)
	.ENDM

	.MACRO __ADDWRR
	ADD  R@0,R@2
	ADC  R@1,R@3
	.ENDM

	.MACRO __SUBWRN
	SUBI R@0,LOW(@2)
	SBCI R@1,HIGH(@2)
	.ENDM

	.MACRO __SUBWRR
	SUB  R@0,R@2
	SBC  R@1,R@3
	.ENDM

	.MACRO __ANDWRN
	ANDI R@0,LOW(@2)
	ANDI R@1,HIGH(@2)
	.ENDM

	.MACRO __ANDWRR
	AND  R@0,R@2
	AND  R@1,R@3
	.ENDM

	.MACRO __ORWRN
	ORI  R@0,LOW(@2)
	ORI  R@1,HIGH(@2)
	.ENDM

	.MACRO __ORWRR
	OR   R@0,R@2
	OR   R@1,R@3
	.ENDM

	.MACRO __EORWRR
	EOR  R@0,R@2
	EOR  R@1,R@3
	.ENDM

	.MACRO __GETWRS
	LDD  R@0,Y+@2
	LDD  R@1,Y+@2+1
	.ENDM

	.MACRO __PUTBSR
	STD  Y+@1,R@0
	.ENDM

	.MACRO __PUTWSR
	STD  Y+@2,R@0
	STD  Y+@2+1,R@1
	.ENDM

	.MACRO __MOVEWRR
	MOV  R@0,R@2
	MOV  R@1,R@3
	.ENDM

	.MACRO __INWR
	IN   R@0,@2
	IN   R@1,@2+1
	.ENDM

	.MACRO __OUTWR
	OUT  @2+1,R@1
	OUT  @2,R@0
	.ENDM

	.MACRO __CALL1MN
	LDS  R30,@0+(@1)
	LDS  R31,@0+(@1)+1
	ICALL
	.ENDM

	.MACRO __CALL1FN
	LDI  R30,LOW(2*@0+(@1))
	LDI  R31,HIGH(2*@0+(@1))
	CALL __GETW1PF
	ICALL
	.ENDM

	.MACRO __CALL2EN
	PUSH R26
	PUSH R27
	LDI  R26,LOW(@0+(@1))
	LDI  R27,HIGH(@0+(@1))
	CALL __EEPROMRDW
	POP  R27
	POP  R26
	ICALL
	.ENDM

	.MACRO __CALL2EX
	SUBI R26,LOW(-@0)
	SBCI R27,HIGH(-@0)
	CALL __EEPROMRDD
	ICALL
	.ENDM

	.MACRO __GETW1STACK
	IN   R30,SPL
	IN   R31,SPH
	ADIW R30,@0+1
	LD   R0,Z+
	LD   R31,Z
	MOV  R30,R0
	.ENDM

	.MACRO __GETD1STACK
	IN   R30,SPL
	IN   R31,SPH
	ADIW R30,@0+1
	LD   R0,Z+
	LD   R1,Z+
	LD   R22,Z
	MOVW R30,R0
	.ENDM

	.MACRO __NBST
	BST  R@0,@1
	IN   R30,SREG
	LDI  R31,0x40
	EOR  R30,R31
	OUT  SREG,R30
	.ENDM


	.MACRO __PUTB1SN
	LDD  R26,Y+@0
	LDD  R27,Y+@0+1
	SUBI R26,LOW(-@1)
	SBCI R27,HIGH(-@1)
	ST   X,R30
	.ENDM

	.MACRO __PUTW1SN
	LDD  R26,Y+@0
	LDD  R27,Y+@0+1
	SUBI R26,LOW(-@1)
	SBCI R27,HIGH(-@1)
	ST   X+,R30
	ST   X,R31
	.ENDM

	.MACRO __PUTD1SN
	LDD  R26,Y+@0
	LDD  R27,Y+@0+1
	SUBI R26,LOW(-@1)
	SBCI R27,HIGH(-@1)
	CALL __PUTDP1
	.ENDM

	.MACRO __PUTB1SNS
	LDD  R26,Y+@0
	LDD  R27,Y+@0+1
	ADIW R26,@1
	ST   X,R30
	.ENDM

	.MACRO __PUTW1SNS
	LDD  R26,Y+@0
	LDD  R27,Y+@0+1
	ADIW R26,@1
	ST   X+,R30
	ST   X,R31
	.ENDM

	.MACRO __PUTD1SNS
	LDD  R26,Y+@0
	LDD  R27,Y+@0+1
	ADIW R26,@1
	CALL __PUTDP1
	.ENDM

	.MACRO __PUTB1PMN
	LDS  R26,@0
	LDS  R27,@0+1
	SUBI R26,LOW(-@1)
	SBCI R27,HIGH(-@1)
	ST   X,R30
	.ENDM

	.MACRO __PUTW1PMN
	LDS  R26,@0
	LDS  R27,@0+1
	SUBI R26,LOW(-@1)
	SBCI R27,HIGH(-@1)
	ST   X+,R30
	ST   X,R31
	.ENDM

	.MACRO __PUTD1PMN
	LDS  R26,@0
	LDS  R27,@0+1
	SUBI R26,LOW(-@1)
	SBCI R27,HIGH(-@1)
	CALL __PUTDP1
	.ENDM

	.MACRO __PUTB1PMNS
	LDS  R26,@0
	LDS  R27,@0+1
	ADIW R26,@1
	ST   X,R30
	.ENDM

	.MACRO __PUTW1PMNS
	LDS  R26,@0
	LDS  R27,@0+1
	ADIW R26,@1
	ST   X+,R30
	ST   X,R31
	.ENDM

	.MACRO __PUTD1PMNS
	LDS  R26,@0
	LDS  R27,@0+1
	ADIW R26,@1
	CALL __PUTDP1
	.ENDM

	.MACRO __PUTB1RN
	MOVW R26,R@0
	SUBI R26,LOW(-@1)
	SBCI R27,HIGH(-@1)
	ST   X,R30
	.ENDM

	.MACRO __PUTW1RN
	MOVW R26,R@0
	SUBI R26,LOW(-@1)
	SBCI R27,HIGH(-@1)
	ST   X+,R30
	ST   X,R31
	.ENDM

	.MACRO __PUTD1RN
	MOVW R26,R@0
	SUBI R26,LOW(-@1)
	SBCI R27,HIGH(-@1)
	CALL __PUTDP1
	.ENDM

	.MACRO __PUTB1RNS
	MOVW R26,R@0
	ADIW R26,@1
	ST   X,R30
	.ENDM

	.MACRO __PUTW1RNS
	MOVW R26,R@0
	ADIW R26,@1
	ST   X+,R30
	ST   X,R31
	.ENDM

	.MACRO __PUTD1RNS
	MOVW R26,R@0
	ADIW R26,@1
	CALL __PUTDP1
	.ENDM

	.MACRO __PUTB1RON
	MOV  R26,R@0
	MOV  R27,R@1
	SUBI R26,LOW(-@2)
	SBCI R27,HIGH(-@2)
	ST   X,R30
	.ENDM

	.MACRO __PUTW1RON
	MOV  R26,R@0
	MOV  R27,R@1
	SUBI R26,LOW(-@2)
	SBCI R27,HIGH(-@2)
	ST   X+,R30
	ST   X,R31
	.ENDM

	.MACRO __PUTD1RON
	MOV  R26,R@0
	MOV  R27,R@1
	SUBI R26,LOW(-@2)
	SBCI R27,HIGH(-@2)
	CALL __PUTDP1
	.ENDM

	.MACRO __PUTB1RONS
	MOV  R26,R@0
	MOV  R27,R@1
	ADIW R26,@2
	ST   X,R30
	.ENDM

	.MACRO __PUTW1RONS
	MOV  R26,R@0
	MOV  R27,R@1
	ADIW R26,@2
	ST   X+,R30
	ST   X,R31
	.ENDM

	.MACRO __PUTD1RONS
	MOV  R26,R@0
	MOV  R27,R@1
	ADIW R26,@2
	CALL __PUTDP1
	.ENDM


	.MACRO __GETB1SX
	MOVW R30,R28
	SUBI R30,LOW(-@0)
	SBCI R31,HIGH(-@0)
	LD   R30,Z
	.ENDM

	.MACRO __GETB1HSX
	MOVW R30,R28
	SUBI R30,LOW(-@0)
	SBCI R31,HIGH(-@0)
	LD   R31,Z
	.ENDM

	.MACRO __GETW1SX
	MOVW R30,R28
	SUBI R30,LOW(-@0)
	SBCI R31,HIGH(-@0)
	LD   R0,Z+
	LD   R31,Z
	MOV  R30,R0
	.ENDM

	.MACRO __GETD1SX
	MOVW R30,R28
	SUBI R30,LOW(-@0)
	SBCI R31,HIGH(-@0)
	LD   R0,Z+
	LD   R1,Z+
	LD   R22,Z+
	LD   R23,Z
	MOVW R30,R0
	.ENDM

	.MACRO __GETB2SX
	MOVW R26,R28
	SUBI R26,LOW(-@0)
	SBCI R27,HIGH(-@0)
	LD   R26,X
	.ENDM

	.MACRO __GETW2SX
	MOVW R26,R28
	SUBI R26,LOW(-@0)
	SBCI R27,HIGH(-@0)
	LD   R0,X+
	LD   R27,X
	MOV  R26,R0
	.ENDM

	.MACRO __GETD2SX
	MOVW R26,R28
	SUBI R26,LOW(-@0)
	SBCI R27,HIGH(-@0)
	LD   R0,X+
	LD   R1,X+
	LD   R24,X+
	LD   R25,X
	MOVW R26,R0
	.ENDM

	.MACRO __GETBRSX
	MOVW R30,R28
	SUBI R30,LOW(-@1)
	SBCI R31,HIGH(-@1)
	LD   R@0,Z
	.ENDM

	.MACRO __GETWRSX
	MOVW R30,R28
	SUBI R30,LOW(-@2)
	SBCI R31,HIGH(-@2)
	LD   R@0,Z+
	LD   R@1,Z
	.ENDM

	.MACRO __GETBRSX2
	MOVW R26,R28
	SUBI R26,LOW(-@1)
	SBCI R27,HIGH(-@1)
	LD   R@0,X
	.ENDM

	.MACRO __GETWRSX2
	MOVW R26,R28
	SUBI R26,LOW(-@2)
	SBCI R27,HIGH(-@2)
	LD   R@0,X+
	LD   R@1,X
	.ENDM

	.MACRO __LSLW8SX
	MOVW R30,R28
	SUBI R30,LOW(-@0)
	SBCI R31,HIGH(-@0)
	LD   R31,Z
	CLR  R30
	.ENDM

	.MACRO __PUTB1SX
	MOVW R26,R28
	SUBI R26,LOW(-@0)
	SBCI R27,HIGH(-@0)
	ST   X,R30
	.ENDM

	.MACRO __PUTW1SX
	MOVW R26,R28
	SUBI R26,LOW(-@0)
	SBCI R27,HIGH(-@0)
	ST   X+,R30
	ST   X,R31
	.ENDM

	.MACRO __PUTD1SX
	MOVW R26,R28
	SUBI R26,LOW(-@0)
	SBCI R27,HIGH(-@0)
	ST   X+,R30
	ST   X+,R31
	ST   X+,R22
	ST   X,R23
	.ENDM

	.MACRO __CLRW1SX
	MOVW R26,R28
	SUBI R26,LOW(-@0)
	SBCI R27,HIGH(-@0)
	ST   X+,R30
	ST   X,R30
	.ENDM

	.MACRO __CLRD1SX
	MOVW R26,R28
	SUBI R26,LOW(-@0)
	SBCI R27,HIGH(-@0)
	ST   X+,R30
	ST   X+,R30
	ST   X+,R30
	ST   X,R30
	.ENDM

	.MACRO __PUTB2SX
	MOVW R30,R28
	SUBI R30,LOW(-@0)
	SBCI R31,HIGH(-@0)
	ST   Z,R26
	.ENDM

	.MACRO __PUTW2SX
	MOVW R30,R28
	SUBI R30,LOW(-@0)
	SBCI R31,HIGH(-@0)
	ST   Z+,R26
	ST   Z,R27
	.ENDM

	.MACRO __PUTD2SX
	MOVW R30,R28
	SUBI R30,LOW(-@0)
	SBCI R31,HIGH(-@0)
	ST   Z+,R26
	ST   Z+,R27
	ST   Z+,R24
	ST   Z,R25
	.ENDM

	.MACRO __PUTBSRX
	MOVW R30,R28
	SUBI R30,LOW(-@1)
	SBCI R31,HIGH(-@1)
	ST   Z,R@0
	.ENDM

	.MACRO __PUTWSRX
	MOVW R30,R28
	SUBI R30,LOW(-@2)
	SBCI R31,HIGH(-@2)
	ST   Z+,R@0
	ST   Z,R@1
	.ENDM

	.MACRO __PUTB1SNX
	MOVW R26,R28
	SUBI R26,LOW(-@0)
	SBCI R27,HIGH(-@0)
	LD   R0,X+
	LD   R27,X
	MOV  R26,R0
	SUBI R26,LOW(-@1)
	SBCI R27,HIGH(-@1)
	ST   X,R30
	.ENDM

	.MACRO __PUTW1SNX
	MOVW R26,R28
	SUBI R26,LOW(-@0)
	SBCI R27,HIGH(-@0)
	LD   R0,X+
	LD   R27,X
	MOV  R26,R0
	SUBI R26,LOW(-@1)
	SBCI R27,HIGH(-@1)
	ST   X+,R30
	ST   X,R31
	.ENDM

	.MACRO __PUTD1SNX
	MOVW R26,R28
	SUBI R26,LOW(-@0)
	SBCI R27,HIGH(-@0)
	LD   R0,X+
	LD   R27,X
	MOV  R26,R0
	SUBI R26,LOW(-@1)
	SBCI R27,HIGH(-@1)
	ST   X+,R30
	ST   X+,R31
	ST   X+,R22
	ST   X,R23
	.ENDM

	.MACRO __MULBRR
	MULS R@0,R@1
	MOVW R30,R0
	.ENDM

	.MACRO __MULBRRU
	MUL  R@0,R@1
	MOVW R30,R0
	.ENDM

	.MACRO __MULBRR0
	MULS R@0,R@1
	.ENDM

	.MACRO __MULBRRU0
	MUL  R@0,R@1
	.ENDM

	.MACRO __MULBNWRU
	LDI  R26,@2
	MUL  R26,R@0
	MOVW R30,R0
	MUL  R26,R@1
	ADD  R31,R0
	.ENDM

;NAME DEFINITIONS FOR GLOBAL VARIABLES ALLOCATED TO REGISTERS
	.DEF _ds1820_devices=R5
	.DEF _c=R4
	.DEF _i=R7
	.DEF __hour=R6
	.DEF __min=R9
	.DEF __sec=R8
	.DEF __wday=R11
	.DEF __year=R10
	.DEF __month=R13
	.DEF __day=R12

	.CSEG
	.ORG 0x00

;START OF CODE MARKER
__START_OF_CODE:

;INTERRUPT VECTORS
	JMP  __RESET
	JMP  0x00
	JMP  0x00
	JMP  0x00
	JMP  0x00
	JMP  0x00
	JMP  0x00
	JMP  0x00
	JMP  0x00
	JMP  _timer1_ovf_isr
	JMP  0x00
	JMP  0x00
	JMP  0x00
	JMP  0x00
	JMP  0x00
	JMP  0x00
	JMP  0x00
	JMP  0x00
	JMP  0x00
	JMP  0x00
	JMP  0x00

_font5x7:
	.DB  0x5,0x7,0x20,0x60,0x0,0x0,0x0,0x0
	.DB  0x0,0x0,0x0,0x4,0x4,0x4,0x4,0x4
	.DB  0x0,0x4,0xA,0xA,0xA,0x0,0x0,0x0
	.DB  0x0,0xA,0xA,0x1F,0xA,0x1F,0xA,0xA
	.DB  0x4,0x1E,0x5,0xE,0x14,0xF,0x4,0x3
	.DB  0x13,0x8,0x4,0x2,0x19,0x18,0x6,0x9
	.DB  0x5,0x2,0x15,0x9,0x16,0x6,0x4,0x2
	.DB  0x0,0x0,0x0,0x0,0x8,0x4,0x2,0x2
	.DB  0x2,0x4,0x8,0x2,0x4,0x8,0x8,0x8
	.DB  0x4,0x2,0x0,0xA,0x4,0x1F,0x4,0xA
	.DB  0x0,0x0,0x4,0x4,0x1F,0x4,0x4,0x0
	.DB  0x0,0x0,0x0,0x0,0x6,0x4,0x2,0x0
	.DB  0x0,0x0,0x1F,0x0,0x0,0x0,0x0,0x0
	.DB  0x0,0x0,0x6,0x6,0x0,0x0,0x10,0x8
	.DB  0x4,0x2,0x1,0x0,0xE,0x11,0x19,0x15
	.DB  0x13,0x11,0xE,0x4,0x6,0x4,0x4,0x4
	.DB  0x4,0xE,0xE,0x11,0x10,0x8,0x4,0x2
	.DB  0x1F,0x1F,0x8,0x4,0x8,0x10,0x11,0xE
	.DB  0x8,0xC,0xA,0x9,0x1F,0x8,0x8,0x1F
	.DB  0x1,0xF,0x10,0x10,0x11,0xE,0xC,0x2
	.DB  0x1,0xF,0x11,0x11,0xE,0x1F,0x10,0x8
	.DB  0x4,0x2,0x2,0x2,0xE,0x11,0x11,0xE
	.DB  0x11,0x11,0xE,0xE,0x11,0x11,0x1E,0x10
	.DB  0x8,0x6,0x0,0x6,0x6,0x0,0x6,0x6
	.DB  0x0,0x0,0x6,0x6,0x0,0x6,0x4,0x2
	.DB  0x10,0x8,0x4,0x2,0x4,0x8,0x10,0x0
	.DB  0x0,0x1F,0x0,0x1F,0x0,0x0,0x1,0x2
	.DB  0x4,0x8,0x4,0x2,0x1,0xE,0x11,0x10
	.DB  0x8,0x4,0x0,0x4,0xE,0x11,0x10,0x16
	.DB  0x15,0x15,0xE,0xE,0x11,0x11,0x11,0x1F
	.DB  0x11,0x11,0xF,0x11,0x11,0xF,0x11,0x11
	.DB  0xF,0xE,0x11,0x1,0x1,0x1,0x11,0xE
	.DB  0x7,0x9,0x11,0x11,0x11,0x9,0x7,0x1F
	.DB  0x1,0x1,0xF,0x1,0x1,0x1F,0x1F,0x1
	.DB  0x1,0x7,0x1,0x1,0x1,0xE,0x11,0x1
	.DB  0x1,0x19,0x11,0xE,0x11,0x11,0x11,0x1F
	.DB  0x11,0x11,0x11,0xE,0x4,0x4,0x4,0x4
	.DB  0x4,0xE,0x1C,0x8,0x8,0x8,0x8,0x9
	.DB  0x6,0x11,0x9,0x5,0x3,0x5,0x9,0x11
	.DB  0x1,0x1,0x1,0x1,0x1,0x1,0x1F,0x11
	.DB  0x1B,0x15,0x11,0x11,0x11,0x11,0x11,0x11
	.DB  0x13,0x15,0x19,0x11,0x11,0xE,0x11,0x11
	.DB  0x11,0x11,0x11,0xE,0xF,0x11,0x11,0xF
	.DB  0x1,0x1,0x1,0xE,0x11,0x11,0x11,0x15
	.DB  0x9,0x16,0xF,0x11,0x11,0xF,0x5,0x9
	.DB  0x11,0x1E,0x1,0x1,0xE,0x10,0x10,0xF
	.DB  0x1F,0x4,0x4,0x4,0x4,0x4,0x4,0x11
	.DB  0x11,0x11,0x11,0x11,0x11,0xE,0x11,0x11
	.DB  0x11,0x11,0x11,0xA,0x4,0x11,0x11,0x11
	.DB  0x15,0x15,0x1B,0x11,0x11,0x11,0xA,0x4
	.DB  0xA,0x11,0x11,0x11,0x11,0xA,0x4,0x4
	.DB  0x4,0x4,0x1F,0x10,0x8,0x4,0x2,0x1
	.DB  0x1F,0x1C,0x4,0x4,0x4,0x4,0x4,0x1C
	.DB  0x0,0x1,0x2,0x4,0x8,0x10,0x0,0x7
	.DB  0x4,0x4,0x4,0x4,0x4,0x7,0x4,0xA
	.DB  0x11,0x0,0x0,0x0,0x0,0x0,0x0,0x0
	.DB  0x0,0x0,0x0,0x1F,0x2,0x4,0x8,0x0
	.DB  0x0,0x0,0x0,0x0,0x0,0xE,0x10,0x1E
	.DB  0x11,0x1E,0x1,0x1,0xD,0x13,0x11,0x11
	.DB  0xF,0x0,0x0,0xE,0x1,0x1,0x11,0xE
	.DB  0x10,0x10,0x16,0x19,0x11,0x11,0x1E,0x0
	.DB  0x0,0xE,0x11,0x1F,0x1,0xE,0xC,0x12
	.DB  0x2,0x7,0x2,0x2,0x2,0x0,0x0,0x1E
	.DB  0x11,0x1E,0x10,0xC,0x1,0x1,0xD,0x13
	.DB  0x11,0x11,0x11,0x4,0x0,0x6,0x4,0x4
	.DB  0x4,0xE,0x8,0x0,0xC,0x8,0x8,0x9
	.DB  0x6,0x2,0x2,0x12,0xA,0x6,0xA,0x12
	.DB  0x6,0x4,0x4,0x4,0x4,0x4,0xE,0x0
	.DB  0x0,0xB,0x15,0x15,0x11,0x11,0x0,0x0
	.DB  0xD,0x13,0x11,0x11,0x11,0x0,0x0,0xE
	.DB  0x11,0x11,0x11,0xE,0x0,0x0,0xF,0x11
	.DB  0xF,0x1,0x1,0x0,0x0,0x16,0x19,0x1E
	.DB  0x10,0x10,0x0,0x0,0xD,0x13,0x1,0x1
	.DB  0x1,0x0,0x0,0xE,0x1,0xE,0x10,0xF
	.DB  0x2,0x2,0x7,0x2,0x2,0x12,0xC,0x0
	.DB  0x0,0x11,0x11,0x11,0x19,0x16,0x0,0x0
	.DB  0x11,0x11,0x11,0xA,0x4,0x0,0x0,0x11
	.DB  0x11,0x15,0x15,0xA,0x0,0x0,0x11,0xA
	.DB  0x4,0xA,0x11,0x0,0x0,0x11,0x11,0x1E
	.DB  0x10,0xE,0x0,0x0,0x1F,0x8,0x4,0x2
	.DB  0x1F,0x8,0x4,0x4,0x2,0x4,0x4,0x8
	.DB  0x4,0x4,0x4,0x4,0x4,0x4,0x4,0x2
	.DB  0x4,0x4,0x8,0x4,0x4,0x2,0x2,0x15
	.DB  0x8,0x0,0x0,0x0,0x0,0x1F,0x11,0x11
	.DB  0x11,0x11,0x11,0x1F
_logo:
	.DB  0x80,0x0,0x40,0x0,0x0,0x0,0x0,0x0
	.DB  0x0,0x0,0x0,0x0,0x0,0x0,0x0,0x0
	.DB  0x0,0x0,0x0,0x0,0x0,0x0,0x0,0x0
	.DB  0x0,0x0,0x0,0x0,0x0,0x0,0x0,0x0
	.DB  0x0,0x0,0x0,0x0,0x0,0x0,0x0,0x0
	.DB  0x0,0x0,0x0,0x0,0x0,0x0,0x0,0x0
	.DB  0x0,0x0,0x0,0x0,0x0,0x0,0x0,0x0
	.DB  0x0,0x0,0x0,0x0,0x0,0x0,0x0,0x0
	.DB  0x0,0x0,0x0,0x0,0x0,0x0,0x0,0x0
	.DB  0x0,0x0,0x0,0x0,0x0,0x0,0x0,0x0
	.DB  0x0,0x0,0x0,0x0,0x0,0x0,0x0,0x0
	.DB  0x0,0x0,0x0,0x0,0x0,0x0,0x0,0x0
	.DB  0x0,0x0,0x0,0x0,0x0,0x0,0x0,0x0
	.DB  0x0,0x0,0x0,0x0,0x0,0x0,0x0,0x0
	.DB  0x0,0x0,0x0,0x0,0x0,0x0,0x0,0x0
	.DB  0x0,0x0,0x0,0x0,0x0,0x0,0x0,0x0
	.DB  0x0,0x0,0x0,0x0,0x0,0x0,0x0,0x0
	.DB  0x0,0x0,0x0,0x0,0x0,0x0,0x0,0x0
	.DB  0x0,0x0,0x0,0x0,0x0,0x0,0x0,0x0
	.DB  0x0,0x0,0xF8,0xFF,0x3F,0x0,0x0,0x0
	.DB  0x0,0x0,0x0,0x0,0x0,0x0,0x0,0x0
	.DB  0x0,0x0,0xFC,0xFF,0x3F,0x0,0x0,0x0
	.DB  0x0,0x0,0x0,0x0,0x0,0x0,0x0,0x0
	.DB  0x0,0x0,0xFC,0xFF,0x3F,0x0,0x0,0x0
	.DB  0x0,0x0,0x0,0x0,0x0,0x0,0x0,0x0
	.DB  0x0,0xE0,0xFF,0xFF,0xBF,0x7,0x0,0x0
	.DB  0x0,0x0,0x0,0x0,0x0,0x0,0x0,0x0
	.DB  0xE0,0xEF,0xFD,0xFF,0xBF,0xF7,0x7,0x0
	.DB  0x0,0x0,0x0,0x0,0x0,0x0,0x0,0x0
	.DB  0xE0,0xEF,0xFD,0xFF,0xBF,0xF7,0x7,0x0
	.DB  0x0,0x0,0x0,0x0,0x0,0x0,0x0,0x0
	.DB  0xE0,0xEF,0xFD,0xFF,0xBF,0xF7,0x7,0x0
	.DB  0x0,0x0,0x0,0x0,0x0,0x0,0x0,0x0
	.DB  0x0,0xE8,0xFD,0xFF,0xBF,0x17,0x0,0x0
	.DB  0x0,0x0,0x0,0x0,0x0,0x0,0x0,0x0
	.DB  0x0,0xE0,0xFD,0xFF,0xBF,0x7,0x0,0x0
	.DB  0x0,0x0,0x0,0x0,0x0,0x0,0x0,0x0
	.DB  0x0,0x0,0xFC,0xFF,0x3F,0x0,0x0,0x0
	.DB  0x0,0x0,0x0,0x0,0x0,0x0,0x0,0x0
	.DB  0x0,0x0,0xFC,0xFF,0x3F,0x0,0x0,0x0
	.DB  0x0,0x0,0x0,0x0,0x0,0x0,0x0,0x0
	.DB  0x0,0x0,0xFC,0xFF,0x3F,0x0,0x0,0x0
	.DB  0x0,0x0,0x0,0x0,0x0,0x0,0x0,0x0
	.DB  0x0,0xE0,0xFD,0xFF,0xBF,0x7,0x0,0x0
	.DB  0x0,0x0,0x0,0x0,0x0,0x0,0x0,0x0
	.DB  0x0,0xE0,0xFF,0xFF,0xBF,0x7,0x0,0x0
	.DB  0x0,0x0,0x0,0x0,0x0,0x0,0x0,0x0
	.DB  0xE0,0xEF,0xFD,0xFF,0xBF,0xF7,0x7,0x0
	.DB  0x0,0x0,0x0,0x0,0x0,0x0,0x0,0x0
	.DB  0xE0,0xEF,0xFD,0xFF,0xBF,0xF7,0x7,0x0
	.DB  0x0,0x0,0x0,0x0,0x0,0x0,0x0,0x0
	.DB  0xE0,0xEF,0xFD,0xFF,0xBF,0xF7,0x7,0x0
	.DB  0x0,0x0,0x0,0x0,0x0,0x0,0x0,0x0
	.DB  0x0,0xE0,0xFF,0xFF,0xBF,0x7,0x0,0x0
	.DB  0x0,0x0,0x0,0x0,0x0,0x0,0x0,0x0
	.DB  0x0,0xC0,0xFD,0xFF,0xBF,0x7,0x0,0x0
	.DB  0x0,0x0,0x0,0x0,0x0,0x0,0x0,0x0
	.DB  0x0,0x0,0xFC,0xFF,0x3F,0x0,0x0,0x0
	.DB  0x0,0x0,0x0,0x0,0x0,0x0,0x0,0x0
	.DB  0x0,0x0,0xFC,0xFF,0x3F,0x0,0x0,0x0
	.DB  0x0,0x0,0x0,0x0,0x0,0x0,0x0,0x0
	.DB  0x0,0x0,0xFC,0xF1,0x3F,0x0,0x0,0x0
	.DB  0x0,0x0,0x0,0x0,0x0,0x0,0x0,0x0
	.DB  0x0,0xE0,0x3D,0x80,0x1F,0x0,0x0,0x0
	.DB  0x0,0x0,0x0,0x0,0x0,0x0,0x0,0x0
	.DB  0x0,0xE8,0x1D,0xE,0x87,0x1F,0x7E,0x0
	.DB  0x0,0x0,0x0,0x0,0x0,0x0,0x0,0x0
	.DB  0xE0,0xEF,0x8D,0x3F,0xE2,0x3F,0xFF,0x1
	.DB  0x0,0x0,0x0,0x0,0x0,0x0,0x0,0x0
	.DB  0xE0,0xEF,0xC5,0xFF,0xF0,0xFF,0xFF,0x3
	.DB  0x0,0x0,0x0,0x0,0x0,0x0,0x0,0x0
	.DB  0x0,0xEF,0xE3,0xFF,0xF8,0xFF,0xFF,0x7
	.DB  0x0,0x0,0x0,0x0,0x0,0x0,0x0,0x0
	.DB  0x0,0xE0,0xF3,0xF9,0x78,0xF0,0x83,0x7
	.DB  0x0,0x0,0x0,0x0,0x0,0x0,0x0,0x0
	.DB  0x0,0x0,0xF0,0x7E,0x78,0xE0,0x81,0x7
	.DB  0x0,0x0,0x0,0x0,0x0,0x0,0x0,0x0
	.DB  0x0,0x0,0x70,0x3F,0x38,0xE0,0x1,0x7
	.DB  0x0,0x0,0x0,0x0,0x0,0x0,0x0,0x0
	.DB  0x0,0x0,0xF0,0x1F,0x38,0xE0,0x1,0x7
	.DB  0x0,0x0,0x0,0x0,0x0,0x0,0x0,0x0
	.DB  0x0,0x0,0xF0,0x67,0x38,0xE0,0x1,0x7
	.DB  0x0,0x0,0x0,0x0,0x0,0x0,0x0,0x0
	.DB  0x0,0xE0,0xF3,0xF3,0x38,0xE0,0x1,0x7
	.DB  0x0,0x0,0x0,0x0,0x0,0x0,0x0,0x0
	.DB  0xE0,0xEF,0xE3,0xFF,0x38,0xE0,0x1,0x7
	.DB  0x0,0x0,0x0,0x0,0x0,0x0,0x0,0x0
	.DB  0xE0,0xEF,0xC3,0x7F,0x38,0xE0,0x1,0x7
	.DB  0x0,0x0,0x0,0x0,0x0,0x0,0x0,0x0
	.DB  0xE0,0xEF,0x83,0x3F,0x38,0xE0,0x1,0x7
	.DB  0x0,0x0,0x0,0x0,0x0,0x0,0x0,0x0
	.DB  0x0,0xE0,0x3,0xE,0x0,0x0,0x0,0x0
	.DB  0x0,0x0,0x0,0x0,0x0,0x0,0x0,0x0
	.DB  0x0,0xE0,0x1,0x0,0x0,0x0,0x0,0x0
	.DB  0x0,0x0,0x0,0x0,0x0,0x0,0x0,0x0
	.DB  0x0,0x0,0x0,0x0,0x0,0x0,0x0,0x0
	.DB  0x0,0x0,0x0,0x0,0x0,0x0,0x0,0x0
	.DB  0x0,0xF0,0x7,0x0,0x3,0x60,0x0,0x0
	.DB  0x0,0x0,0x0,0x0,0x0,0x0,0x0,0x0
	.DB  0x0,0xF0,0x7,0x0,0x3,0x40,0x0,0x0
	.DB  0x0,0x0,0x0,0x0,0x0,0x0,0x0,0x0
	.DB  0x0,0xC0,0xF0,0x38,0x9F,0x67,0x1E,0x0
	.DB  0x0,0x0,0x0,0x0,0x0,0x0,0x0,0x0
	.DB  0x0,0xC0,0x98,0x6D,0x9F,0x6F,0x33,0x0
	.DB  0x0,0x0,0x0,0x0,0x0,0x0,0x0,0x0
	.DB  0x0,0xC0,0xF8,0xD,0xB3,0x6D,0x3,0x0
	.DB  0x0,0x0,0x0,0x0,0x0,0x0,0x0,0x0
	.DB  0x0,0xC0,0x18,0x6C,0x93,0x6D,0x33,0x0
	.DB  0x0,0x0,0x0,0x0,0x0,0x0,0x0,0x0
	.DB  0x0,0xC0,0xF1,0x7C,0xB3,0x6D,0x1E,0x0
	.DB  0x0,0x0,0x0,0x0,0x0,0x0,0x0,0x0
	.DB  0x0,0x0,0x0,0x0,0x0,0x0,0x0,0x0
	.DB  0x0,0x0,0x0,0x0,0x0,0x0,0x0,0x0
	.DB  0x0,0x0,0x0,0x0,0x0,0x0,0x0,0x0
	.DB  0x0,0x0,0x0,0x0,0x0,0x0,0x0,0x0
	.DB  0x0,0x0,0x0,0x0,0x0,0x0,0x0,0x0
	.DB  0x0,0x0,0x0,0x0,0x0,0x0,0x0,0x0
	.DB  0x0,0x0,0x0,0x0,0x0,0x0,0x0,0x0
	.DB  0x0,0x0,0x0,0x0,0x0,0x0,0x0,0x0
	.DB  0x0,0x0,0x0,0x0,0x0,0x0,0x0,0x0
	.DB  0x0,0x0,0x0,0x0,0x0,0x0,0x0,0x0
	.DB  0x0,0x0,0x0,0x0,0x0,0x0,0x0,0x0
	.DB  0x0,0x0,0x0,0x0,0x0,0x0,0x0,0x0
	.DB  0x0,0x0,0x0,0x0,0x0,0x0,0x0,0x0
	.DB  0x0,0x0,0x0,0x0,0x0,0x0,0x0,0x0
	.DB  0x0,0x0,0x0,0x0,0x0,0x0,0x0,0x0
	.DB  0x0,0x0,0x0,0x0,0x0,0x0,0x0,0x0
	.DB  0x0,0x0,0x0,0x0,0x0,0x0,0x0,0x0
	.DB  0x0,0x0,0x0,0x0
_snow:
	.DB  0x80,0x0,0x40,0x0,0x0,0x0,0x0,0x0
	.DB  0x0,0x0,0x0,0x0,0x0,0x0,0x0,0x0
	.DB  0x0,0x0,0x0,0x0,0x0,0x0,0x0,0x0
	.DB  0x0,0x0,0x0,0x0,0x0,0x0,0x0,0x0
	.DB  0x0,0x0,0x0,0x0,0x0,0x0,0x0,0x0
	.DB  0x0,0x0,0x0,0x0,0x0,0x0,0x0,0x0
	.DB  0x0,0x0,0x0,0x0,0x0,0x0,0x0,0x0
	.DB  0x0,0x0,0x0,0x0,0x0,0x0,0x0,0x0
	.DB  0x0,0x0,0x0,0x0,0x0,0x0,0x0,0x0
	.DB  0x0,0x0,0x0,0x0,0x0,0x0,0x0,0x0
	.DB  0x0,0x0,0x0,0x0,0x0,0x0,0x0,0x0
	.DB  0x0,0x0,0x0,0x0,0x0,0x0,0x0,0x0
	.DB  0x0,0x0,0x0,0x0,0x0,0x0,0x0,0x0
	.DB  0x0,0x0,0x0,0x80,0xF,0x0,0x0,0x0
	.DB  0x0,0x0,0x0,0x0,0x0,0x0,0x0,0x0
	.DB  0x0,0x0,0x0,0x80,0xF,0x0,0x0,0x0
	.DB  0x0,0x0,0x0,0x0,0x0,0x0,0x0,0x0
	.DB  0x0,0x0,0x0,0x80,0xF,0x0,0x0,0x0
	.DB  0x0,0x0,0x0,0x0,0x0,0x0,0x0,0x0
	.DB  0x0,0x0,0x0,0x86,0xF,0x3,0x0,0x0
	.DB  0x0,0x0,0x0,0x0,0x0,0x0,0x0,0x0
	.DB  0x0,0x0,0x0,0x8F,0x8F,0x7,0x0,0x0
	.DB  0x0,0x0,0x0,0x0,0x0,0x0,0x0,0x0
	.DB  0x0,0x0,0x80,0xBF,0xEF,0xF,0x0,0x0
	.DB  0x0,0x0,0x0,0x0,0x0,0x0,0x0,0x0
	.DB  0x0,0x0,0x0,0xFF,0xFF,0x7,0x0,0x0
	.DB  0x0,0x0,0x0,0x0,0x0,0x0,0x0,0x0
	.DB  0x0,0x0,0x4,0xFE,0xFF,0x3,0x0,0x0
	.DB  0x0,0x0,0x0,0x0,0x0,0x0,0x0,0x0
	.DB  0x0,0xC0,0x7,0xFC,0xFF,0x1,0x1F,0x0
	.DB  0x0,0x0,0x0,0x0,0x0,0x0,0x0,0x0
	.DB  0x0,0xC0,0x7,0xF8,0xFF,0x0,0x1F,0x0
	.DB  0x0,0x0,0x0,0x0,0x0,0x0,0x0,0x0
	.DB  0x0,0xC0,0xF,0xE0,0x3F,0x80,0x1F,0x0
	.DB  0x0,0x0,0x0,0x0,0x0,0x0,0x0,0x0
	.DB  0x0,0x83,0xF,0xC0,0x1F,0x80,0xF,0x6
	.DB  0x0,0x0,0x0,0x0,0x0,0x0,0x0,0x0
	.DB  0x0,0x9F,0xF,0x80,0xF,0x80,0xCF,0x7
	.DB  0x0,0x0,0x0,0x0,0x0,0x0,0x0,0x0
	.DB  0x80,0xFF,0x1F,0x80,0xF,0x80,0xFF,0xF
	.DB  0x0,0x0,0x0,0x0,0x0,0x0,0x0,0x0
	.DB  0x80,0xFF,0x1F,0x80,0xF,0xC0,0xFF,0xF
	.DB  0x0,0x0,0x0,0x0,0x0,0x0,0x0,0x0
	.DB  0x0,0xFE,0x1F,0x80,0xF,0xC0,0xFF,0x3
	.DB  0x0,0x0,0x0,0x0,0x0,0x0,0x0,0x0
	.DB  0x0,0xF8,0x1F,0x80,0xF,0xC0,0xFF,0x0
	.DB  0x0,0x0,0x0,0x0,0x0,0x0,0x0,0x0
	.DB  0x0,0xF0,0x7F,0x80,0xF,0xF0,0x7F,0x0
	.DB  0x0,0x0,0x0,0x0,0x0,0x0,0x0,0x0
	.DB  0x0,0xFE,0xFF,0x81,0xF,0xFC,0xFF,0x3
	.DB  0x0,0x0,0x0,0x0,0x0,0x0,0x0,0x0
	.DB  0xC0,0xFF,0xFF,0x87,0xF,0xFF,0xFF,0x1F
	.DB  0x0,0x0,0x0,0x0,0x0,0x0,0x0,0x0
	.DB  0x80,0xFF,0xF3,0xBF,0xEF,0x7F,0xFE,0xF
	.DB  0x0,0x0,0x0,0x0,0x0,0x0,0x0,0x0
	.DB  0x80,0x3F,0xC0,0xFF,0xFF,0x1F,0xE0,0xF
	.DB  0x0,0x0,0x0,0x0,0x0,0x0,0x0,0x0
	.DB  0x80,0x3,0x0,0xFF,0xFF,0x7,0x0,0xE
	.DB  0x0,0x0,0x0,0x0,0x0,0x0,0x0,0x0
	.DB  0x0,0x0,0x0,0xFC,0xFF,0x1,0x0,0x0
	.DB  0x0,0x0,0x0,0x0,0x0,0x0,0x0,0x0
	.DB  0x0,0x0,0x0,0xF0,0x7F,0x0,0x0,0x0
	.DB  0x0,0x0,0x0,0x0,0x0,0x0,0x0,0x0
	.DB  0x0,0x0,0x0,0xF8,0xFF,0x0,0x0,0x0
	.DB  0x0,0x0,0x0,0x0,0x0,0x0,0x0,0x0
	.DB  0x0,0x0,0x0,0xFE,0xFF,0x3,0x0,0x0
	.DB  0x0,0x0,0x0,0x0,0x0,0x0,0x0,0x0
	.DB  0x80,0xF,0x80,0xFF,0xFF,0x1F,0x80,0xF
	.DB  0x0,0x0,0x0,0x0,0x0,0x0,0x0,0x0
	.DB  0x80,0xFF,0xF0,0xBF,0xEF,0x7F,0xF8,0xF
	.DB  0x0,0x0,0x0,0x0,0x0,0x0,0x0,0x0
	.DB  0xC0,0xFF,0xFF,0x8F,0x8F,0xFF,0xFF,0x1F
	.DB  0x0,0x0,0x0,0x0,0x0,0x0,0x0,0x0
	.DB  0x80,0xFF,0xFF,0x83,0xF,0xFE,0xFF,0xF
	.DB  0x0,0x0,0x0,0x0,0x0,0x0,0x0,0x0
	.DB  0x0,0xF8,0xFF,0x80,0xF,0xF8,0xFF,0x0
	.DB  0x0,0x0,0x0,0x0,0x0,0x0,0x0,0x0
	.DB  0x0,0xF0,0x3F,0x80,0xF,0xE0,0x7F,0x0
	.DB  0x0,0x0,0x0,0x0,0x0,0x0,0x0,0x0
	.DB  0x0,0xFC,0x1F,0x80,0xF,0xC0,0xFF,0x1
	.DB  0x0,0x0,0x0,0x0,0x0,0x0,0x0,0x0
	.DB  0x0,0xFF,0x1F,0x80,0xF,0xC0,0xFF,0x7
	.DB  0x0,0x0,0x0,0x0,0x0,0x0,0x0,0x0
	.DB  0x80,0xFF,0x1F,0x80,0xF,0xC0,0xFF,0xF
	.DB  0x0,0x0,0x0,0x0,0x0,0x0,0x0,0x0
	.DB  0x80,0x9F,0xF,0x80,0xF,0x80,0xCF,0xF
	.DB  0x0,0x0,0x0,0x0,0x0,0x0,0x0,0x0
	.DB  0x0,0x87,0xF,0x80,0xF,0x80,0xF,0x7
	.DB  0x0,0x0,0x0,0x0,0x0,0x0,0x0,0x0
	.DB  0x0,0x80,0xF,0xE0,0x3F,0x80,0xF,0x0
	.DB  0x0,0x0,0x0,0x0,0x0,0x0,0x0,0x0
	.DB  0x0,0xC0,0x7,0xF0,0x7F,0x0,0x1F,0x0
	.DB  0x0,0x0,0x0,0x0,0x0,0x0,0x0,0x0
	.DB  0x0,0xC0,0x7,0xF8,0xFF,0x0,0x1F,0x0
	.DB  0x0,0x0,0x0,0x0,0x0,0x0,0x0,0x0
	.DB  0x0,0x0,0x7,0xFE,0xFF,0x3,0x7,0x0
	.DB  0x0,0x0,0x0,0x0,0x0,0x0,0x0,0x0
	.DB  0x0,0x0,0x0,0xFF,0xFF,0x7,0x0,0x0
	.DB  0x0,0x0,0x0,0x0,0x0,0x0,0x0,0x0
	.DB  0x0,0x0,0x80,0xBF,0xEF,0xF,0x0,0x0
	.DB  0x0,0x0,0x0,0x0,0x0,0x0,0x0,0x0
	.DB  0x0,0x0,0x80,0x9F,0xCF,0xF,0x0,0x0
	.DB  0x0,0x0,0x0,0x0,0x0,0x0,0x0,0x0
	.DB  0x0,0x0,0x0,0x8F,0x8F,0x7,0x0,0x0
	.DB  0x0,0x0,0x0,0x0,0x0,0x0,0x0,0x0
	.DB  0x0,0x0,0x0,0x82,0xF,0x2,0x0,0x0
	.DB  0x0,0x0,0x0,0x0,0x0,0x0,0x0,0x0
	.DB  0x0,0x0,0x0,0x80,0xF,0x0,0x0,0x0
	.DB  0x0,0x0,0x0,0x0,0x0,0x0,0x0,0x0
	.DB  0x0,0x0,0x0,0x80,0xF,0x0,0x0,0x0
	.DB  0x0,0x0,0x0,0x0,0x0,0x0,0x0,0x0
	.DB  0x0,0x0,0x0,0x0,0x0,0x0,0x0,0x0
	.DB  0x0,0x0,0x0,0x0,0x0,0x0,0x0,0x0
	.DB  0x0,0x0,0x0,0x0,0x0,0x0,0x0,0x0
	.DB  0x0,0x0,0x0,0x0,0x0,0x0,0x0,0x0
	.DB  0x0,0x0,0x0,0x0,0x0,0x0,0x0,0x0
	.DB  0x0,0x0,0x0,0x0,0x0,0x0,0x0,0x0
	.DB  0x0,0x0,0x0,0x0,0x0,0x0,0x0,0x0
	.DB  0x0,0x0,0x0,0x0,0x0,0x0,0x0,0x0
	.DB  0x0,0x0,0x0,0x0,0x0,0x0,0x0,0x0
	.DB  0x0,0x0,0x0,0x0,0x0,0x0,0x0,0x0
	.DB  0x0,0x0,0x0,0x0,0x0,0x0,0x0,0x0
	.DB  0x0,0x0,0x0,0x0,0x0,0x0,0x0,0x0
	.DB  0x0,0x0,0x0,0x0,0x0,0x0,0x0,0x0
	.DB  0x0,0x0,0x0,0x0,0x0,0x0,0x0,0x0
	.DB  0x0,0x0,0x0,0x0,0x0,0x0,0x0,0x0
	.DB  0x0,0x0,0x0,0x0,0x0,0x0,0x0,0x0
	.DB  0x0,0x0,0x0,0x0,0x0,0x0,0x0,0x0
	.DB  0x0,0x0,0x0,0x0
_heater:
	.DB  0x80,0x0,0x40,0x0,0x0,0x0,0x0,0x0
	.DB  0x0,0x0,0x0,0x0,0x0,0x0,0x0,0x0
	.DB  0x0,0x0,0x0,0x0,0x0,0x0,0x0,0x0
	.DB  0x0,0x0,0x0,0x0,0x0,0x0,0x0,0x0
	.DB  0x0,0x0,0x0,0x0,0x0,0x0,0x0,0x0
	.DB  0x0,0x0,0x0,0x0,0x0,0x0,0x0,0x0
	.DB  0x0,0x0,0x0,0x0,0x0,0x0,0x0,0x0
	.DB  0x0,0x0,0x0,0x0,0x0,0x0,0x0,0x0
	.DB  0x0,0x0,0x0,0x0,0x0,0x0,0x0,0x0
	.DB  0x0,0x0,0x0,0x0,0x0,0x0,0x0,0x0
	.DB  0x0,0x0,0x0,0x0,0x0,0x0,0x0,0x0
	.DB  0x0,0x80,0x1,0xC0,0x0,0xE0,0x0,0x0
	.DB  0x0,0x0,0x0,0x0,0x0,0x0,0x0,0x0
	.DB  0x0,0xC0,0x7,0xE0,0x3,0xE0,0x1,0x0
	.DB  0x0,0x0,0x0,0x0,0x0,0x0,0x0,0x0
	.DB  0x0,0x80,0xF,0x80,0x7,0xC0,0x7,0x0
	.DB  0x0,0x0,0x0,0x0,0x0,0x0,0x0,0x0
	.DB  0x0,0x0,0x1E,0x0,0xF,0x80,0x7,0x0
	.DB  0x0,0x0,0x0,0x0,0x0,0x0,0x0,0x0
	.DB  0x0,0x0,0x1E,0x0,0x1E,0x0,0xF,0x0
	.DB  0x0,0x0,0x0,0x0,0x0,0x0,0x0,0x0
	.DB  0x0,0x0,0x1E,0x0,0x1E,0x0,0xF,0x0
	.DB  0x0,0x0,0x0,0x0,0x0,0x0,0x0,0x0
	.DB  0x0,0x0,0x1E,0x0,0xF,0x80,0x7,0x0
	.DB  0x0,0x0,0x0,0x0,0x0,0x0,0x0,0x0
	.DB  0x0,0x0,0xF,0x80,0x7,0xC0,0x7,0x0
	.DB  0x0,0x0,0x0,0x0,0x0,0x0,0x0,0x0
	.DB  0x0,0xC0,0x7,0xC0,0x3,0xE0,0x1,0x0
	.DB  0x0,0x0,0x0,0x0,0x0,0x0,0x0,0x0
	.DB  0x0,0xE0,0x3,0xF0,0x1,0xF8,0x0,0x0
	.DB  0x0,0x0,0x0,0x0,0x0,0x0,0x0,0x0
	.DB  0x0,0xF0,0x0,0xF8,0x0,0x7C,0x0,0x0
	.DB  0x0,0x0,0x0,0x0,0x0,0x0,0x0,0x0
	.DB  0x0,0x78,0x0,0x7C,0x0,0x3C,0x0,0x0
	.DB  0x0,0x0,0x0,0x0,0x0,0x0,0x0,0x0
	.DB  0x0,0x78,0x0,0x3C,0x0,0x1E,0x0,0x0
	.DB  0x0,0x0,0x0,0x0,0x0,0x0,0x0,0x0
	.DB  0x0,0x78,0x0,0x3C,0x0,0x1E,0x0,0x0
	.DB  0x0,0x0,0x0,0x0,0x0,0x0,0x0,0x0
	.DB  0x0,0x78,0x0,0x7C,0x0,0x3C,0x0,0x0
	.DB  0x0,0x0,0x0,0x0,0x0,0x0,0x0,0x0
	.DB  0x0,0xF0,0x0,0xF8,0x0,0x7C,0x0,0x0
	.DB  0x0,0x0,0x0,0x0,0x0,0x0,0x0,0x0
	.DB  0x0,0xE0,0x3,0xF0,0x1,0xF0,0x1,0x0
	.DB  0x0,0x0,0x0,0x0,0x0,0x0,0x0,0x0
	.DB  0x0,0x80,0x7,0xC0,0x3,0xE0,0x1,0x0
	.DB  0x0,0x0,0x0,0x0,0x0,0x0,0x0,0x0
	.DB  0x0,0x0,0x0,0x0,0x0,0x0,0x0,0x0
	.DB  0x0,0x0,0x0,0x0,0x0,0x0,0x0,0x0
	.DB  0x0,0xE0,0x1,0xC0,0x3,0x80,0x7,0x0
	.DB  0x0,0x0,0x0,0x0,0x0,0x0,0x0,0x0
	.DB  0x0,0xF8,0x7,0xF0,0xF,0xE0,0x1F,0x0
	.DB  0x0,0x0,0x0,0x0,0x0,0x0,0x0,0x0
	.DB  0x0,0xFE,0x1F,0xFC,0x1F,0xF8,0x3F,0x0
	.DB  0x0,0x0,0x0,0x0,0x0,0x0,0x0,0x0
	.DB  0x0,0xFE,0x1F,0x7C,0x3E,0x78,0x7C,0x0
	.DB  0x0,0x0,0x0,0x0,0x0,0x0,0x0,0x0
	.DB  0x0,0x1F,0x3C,0x1E,0x78,0x3C,0xF0,0x0
	.DB  0x0,0x0,0x0,0x0,0x0,0x0,0x0,0x0
	.DB  0x0,0xF,0x38,0x1E,0x78,0x1C,0xE0,0x0
	.DB  0x0,0x0,0x0,0x0,0x0,0x0,0x0,0x0
	.DB  0xE0,0xF,0xF8,0x1F,0xF8,0x1F,0xE0,0x7
	.DB  0x0,0x0,0x0,0x0,0x0,0x0,0x0,0x0
	.DB  0xF8,0xF,0xF8,0x1F,0xF8,0x1F,0xE0,0x1F
	.DB  0x0,0x0,0x0,0x0,0x0,0x0,0x0,0x0
	.DB  0xFC,0xF,0xF8,0x1F,0xF8,0x1F,0xE0,0x3F
	.DB  0x0,0x0,0x0,0x0,0x0,0x0,0x0,0x0
	.DB  0xFC,0xF,0xF8,0x1F,0xF8,0x1F,0xE0,0x3F
	.DB  0x0,0x0,0x0,0x0,0x0,0x0,0x0,0x0
	.DB  0x1C,0xF,0x38,0x1E,0x78,0x1E,0xE0,0x38
	.DB  0x0,0x0,0x0,0x0,0x0,0x0,0x0,0x0
	.DB  0xFC,0xF,0x78,0x1E,0x78,0x1E,0xE0,0x3D
	.DB  0x0,0x0,0x0,0x0,0x0,0x0,0x0,0x0
	.DB  0xFC,0xF,0xF8,0x1F,0xF8,0x1F,0xE0,0x1F
	.DB  0x0,0x0,0x0,0x0,0x0,0x0,0x0,0x0
	.DB  0xF8,0xF,0xF8,0x1F,0xF8,0x1F,0xE0,0x1F
	.DB  0x0,0x0,0x0,0x0,0x0,0x0,0x0,0x0
	.DB  0xC0,0xF,0xF8,0x1F,0xF8,0x1F,0xE0,0x3
	.DB  0x0,0x0,0x0,0x0,0x0,0x0,0x0,0x0
	.DB  0x0,0xE,0x38,0x1E,0x78,0x1E,0xE0,0x0
	.DB  0x0,0x0,0x0,0x0,0x0,0x0,0x0,0x0
	.DB  0x0,0xE,0x38,0x1E,0x78,0x1E,0xE0,0x0
	.DB  0x0,0x0,0x0,0x0,0x0,0x0,0x0,0x0
	.DB  0x0,0xE,0x38,0x1E,0x78,0x1E,0xE0,0x0
	.DB  0x0,0x0,0x0,0x0,0x0,0x0,0x0,0x0
	.DB  0x0,0xE,0x38,0x1E,0x78,0x1E,0xE0,0x0
	.DB  0x0,0x0,0x0,0x0,0x0,0x0,0x0,0x0
	.DB  0x0,0xE,0x38,0x1E,0x78,0x1E,0xE0,0x0
	.DB  0x0,0x0,0x0,0x0,0x0,0x0,0x0,0x0
	.DB  0x0,0xE,0x38,0x1E,0x78,0x1E,0xE0,0x0
	.DB  0x0,0x0,0x0,0x0,0x0,0x0,0x0,0x0
	.DB  0x0,0xE,0x38,0x1E,0x78,0x1E,0xE0,0x0
	.DB  0x0,0x0,0x0,0x0,0x0,0x0,0x0,0x0
	.DB  0x0,0xE,0x38,0x1E,0x78,0x1E,0xE0,0x0
	.DB  0x0,0x0,0x0,0x0,0x0,0x0,0x0,0x0
	.DB  0x0,0xE,0x38,0x1E,0x78,0x1E,0xE0,0x0
	.DB  0x0,0x0,0x0,0x0,0x0,0x0,0x0,0x0
	.DB  0x0,0xE,0x38,0x1E,0x78,0x1E,0xE0,0x0
	.DB  0x0,0x0,0x0,0x0,0x0,0x0,0x0,0x0
	.DB  0x0,0xE,0x38,0x1E,0x78,0x1E,0xE0,0x0
	.DB  0x0,0x0,0x0,0x0,0x0,0x0,0x0,0x0
	.DB  0x0,0xE,0x38,0x1E,0x78,0x1E,0xE0,0x0
	.DB  0x0,0x0,0x0,0x0,0x0,0x0,0x0,0x0
	.DB  0x0,0x1E,0x3C,0x1E,0x78,0x1C,0xF0,0x0
	.DB  0x0,0x0,0x0,0x0,0x0,0x0,0x0,0x0
	.DB  0x0,0x3E,0x3E,0x7C,0x3E,0x7C,0xFC,0x0
	.DB  0x0,0x0,0x0,0x0,0x0,0x0,0x0,0x0
	.DB  0x0,0xFC,0x1F,0xFC,0x1F,0xF8,0x7F,0x0
	.DB  0x0,0x0,0x0,0x0,0x0,0x0,0x0,0x0
	.DB  0x0,0xF8,0xF,0xF0,0xF,0xF0,0x1F,0x0
	.DB  0x0,0x0,0x0,0x0,0x0,0x0,0x0,0x0
	.DB  0x0,0xE0,0x3,0xC0,0x3,0x80,0x7,0x0
	.DB  0x0,0x0,0x0,0x0,0x0,0x0,0x0,0x0
	.DB  0x0,0x0,0x0,0x0,0x0,0x0,0x0,0x0
	.DB  0x0,0x0,0x0,0x0,0x0,0x0,0x0,0x0
	.DB  0x0,0x0,0x0,0x0,0x0,0x0,0x0,0x0
	.DB  0x0,0x0,0x0,0x0,0x0,0x0,0x0,0x0
	.DB  0x0,0x0,0x0,0x0,0x0,0x0,0x0,0x0
	.DB  0x0,0x0,0x0,0x0,0x0,0x0,0x0,0x0
	.DB  0x0,0x0,0x0,0x0,0x0,0x0,0x0,0x0
	.DB  0x0,0x0,0x0,0x0,0x0,0x0,0x0,0x0
	.DB  0x0,0x0,0x0,0x0,0x0,0x0,0x0,0x0
	.DB  0x0,0x0,0x0,0x0,0x0,0x0,0x0,0x0
	.DB  0x0,0x0,0x0,0x0,0x0,0x0,0x0,0x0
	.DB  0x0,0x0,0x0,0x0,0x0,0x0,0x0,0x0
	.DB  0x0,0x0,0x0,0x0,0x0,0x0,0x0,0x0
	.DB  0x0,0x0,0x0,0x0,0x0,0x0,0x0,0x0
	.DB  0x0,0x0,0x0,0x0,0x0,0x0,0x0,0x0
	.DB  0x0,0x0,0x0,0x0
_cooler:
	.DB  0x80,0x0,0x40,0x0,0x0,0x0,0x0,0x0
	.DB  0x0,0x0,0x0,0x0,0x0,0x0,0x0,0x0
	.DB  0x0,0x0,0x0,0x0,0x0,0x0,0x0,0x0
	.DB  0x0,0x0,0x0,0x0,0x0,0x0,0x0,0x0
	.DB  0x0,0x0,0x0,0x0,0x0,0x0,0x0,0x0
	.DB  0x0,0x0,0x0,0x0,0x0,0x0,0x0,0x0
	.DB  0x0,0x0,0x0,0x0,0x0,0x0,0x0,0x0
	.DB  0x0,0x0,0x0,0x0,0x0,0x0,0x0,0x0
	.DB  0x0,0x0,0x0,0x0,0x0,0x0,0x0,0x0
	.DB  0x0,0x0,0x0,0x0,0x0,0x0,0x0,0x0
	.DB  0x0,0x0,0x0,0x0,0x0,0x0,0x0,0x0
	.DB  0x0,0x0,0x0,0x0,0x0,0x0,0x0,0x0
	.DB  0x0,0x0,0x0,0x0,0x0,0x0,0x0,0x0
	.DB  0x0,0x0,0x0,0x0,0x0,0x0,0x0,0x0
	.DB  0x0,0x0,0x0,0x0,0x0,0x0,0x0,0x0
	.DB  0x0,0x0,0x0,0x0,0x0,0x0,0x0,0x0
	.DB  0x0,0x0,0x0,0x0,0x0,0x0,0x0,0x0
	.DB  0x0,0x0,0x0,0x0,0x0,0x0,0x0,0x0
	.DB  0x0,0x0,0x0,0x0,0x0,0x0,0x0,0x0
	.DB  0xF8,0xFF,0xFF,0xFF,0xFF,0xFF,0xFF,0x3F
	.DB  0x0,0x0,0x0,0x0,0x0,0x0,0x0,0x0
	.DB  0xFC,0xFF,0xFF,0xFF,0xFF,0xFF,0xFF,0x7F
	.DB  0x0,0x0,0x0,0x0,0x0,0x0,0x0,0x0
	.DB  0xFE,0xFF,0xFF,0xFF,0xFF,0xFF,0xFF,0xFF
	.DB  0x0,0x0,0x0,0x0,0x0,0x0,0x0,0x0
	.DB  0xFE,0xFF,0xFF,0xFF,0xFF,0xFF,0xFF,0xFF
	.DB  0x0,0x0,0x0,0x0,0x0,0x0,0x0,0x0
	.DB  0xFE,0xFF,0x0,0xF8,0xFF,0xFF,0xFF,0xFF
	.DB  0x0,0x0,0x0,0x0,0x0,0x0,0x0,0x0
	.DB  0xFE,0x1F,0xFE,0xE3,0xFF,0xFF,0xFF,0xFF
	.DB  0x0,0x0,0x0,0x0,0x0,0x0,0x0,0x0
	.DB  0xFE,0xC7,0xFF,0x9F,0xFF,0xFF,0xFF,0xFF
	.DB  0x0,0x0,0x0,0x0,0x0,0x0,0x0,0x0
	.DB  0xFE,0xC3,0xFF,0x19,0xFE,0xFF,0xFF,0xFF
	.DB  0x0,0x0,0x0,0x0,0x0,0x0,0x0,0x0
	.DB  0xFE,0x99,0x7F,0xC0,0xFC,0xF,0x3E,0xF8
	.DB  0x0,0x0,0x0,0x0,0x0,0x0,0x0,0x0
	.DB  0xFE,0xBC,0x3F,0x8F,0xF9,0xFF,0xFF,0xFF
	.DB  0x0,0x0,0x0,0x0,0x0,0x0,0x0,0x0
	.DB  0x7E,0x3E,0xBF,0x77,0xF2,0xFF,0xFF,0xFF
	.DB  0x0,0x0,0x0,0x0,0x0,0x0,0x0,0x0
	.DB  0x3E,0x73,0xDF,0xF3,0xF6,0xFF,0xFF,0xFF
	.DB  0x0,0x0,0x0,0x0,0x0,0x0,0x0,0x0
	.DB  0xBE,0xEC,0xDE,0xFB,0xED,0xFF,0xFF,0xFF
	.DB  0x0,0x0,0x0,0x0,0x0,0x0,0x0,0x0
	.DB  0x9E,0xCE,0xCC,0xF9,0xCB,0xFF,0xFF,0xFF
	.DB  0x0,0x0,0x0,0x0,0x0,0x0,0x0,0x0
	.DB  0x5E,0xCF,0xCD,0xFD,0xDB,0x1F,0x7F,0xFC
	.DB  0x0,0x0,0x0,0x0,0x0,0x0,0x0,0x0
	.DB  0x4E,0xCF,0xC9,0xFE,0xDB,0xF,0x3E,0xF8
	.DB  0x0,0x0,0x0,0x0,0x0,0x0,0x0,0x0
	.DB  0x8E,0xDF,0x3,0xC2,0x9B,0xFF,0xFF,0xFF
	.DB  0x0,0x0,0x0,0x0,0x0,0x0,0x0,0x0
	.DB  0xAE,0x9F,0x71,0x38,0xB8,0xFF,0xFF,0xFF
	.DB  0x0,0x0,0x0,0x0,0x0,0x0,0x0,0x0
	.DB  0xAE,0x3F,0x24,0xFD,0xBC,0xFF,0xFF,0xFF
	.DB  0x0,0x0,0x0,0x0,0x0,0x0,0x0,0x0
	.DB  0xA6,0x7F,0x8E,0xFB,0xBF,0xFF,0xFF,0xFF
	.DB  0x0,0x0,0x0,0x0,0x0,0x0,0x0,0x0
	.DB  0xA6,0x7F,0x84,0xF1,0x9F,0xFF,0xFF,0xFF
	.DB  0x0,0x0,0x0,0x0,0x0,0x0,0x0,0x0
	.DB  0x6,0x0,0x0,0x0,0x80,0x1F,0x3E,0xF8
	.DB  0x0,0x0,0x0,0x0,0x0,0x0,0x0,0x0
	.DB  0x26,0xFF,0x8E,0xFB,0xBF,0xFF,0xFF,0xFF
	.DB  0x0,0x0,0x0,0x0,0x0,0x0,0x0,0x0
	.DB  0x6E,0xFF,0x24,0xF1,0xBF,0xFF,0xFF,0xFF
	.DB  0x0,0x0,0x0,0x0,0x0,0x0,0x0,0x0
	.DB  0x6E,0x1C,0x70,0xE4,0xBF,0xFF,0xFF,0xFF
	.DB  0x0,0x0,0x0,0x0,0x0,0x0,0x0,0x0
	.DB  0xEE,0xC1,0x3,0xCE,0x9F,0xFF,0xFF,0xFF
	.DB  0x0,0x0,0x0,0x0,0x0,0x0,0x0,0x0
	.DB  0xCE,0xFF,0x99,0x9E,0xDF,0x1F,0x7E,0xFC
	.DB  0x0,0x0,0x0,0x0,0x0,0x0,0x0,0x0
	.DB  0xDE,0xFF,0xBD,0xBD,0xDF,0x1F,0x7F,0xFC
	.DB  0x0,0x0,0x0,0x0,0x0,0x0,0x0,0x0
	.DB  0x9E,0xFF,0xBC,0xB9,0xCF,0xFF,0xFF,0xFF
	.DB  0x0,0x0,0x0,0x0,0x0,0x0,0x0,0x0
	.DB  0xBE,0xFF,0x9E,0x3B,0xEF,0xFF,0xFF,0xFF
	.DB  0x0,0x0,0x0,0x0,0x0,0x0,0x0,0x0
	.DB  0x3E,0x7F,0xCE,0x33,0xF7,0xFF,0xFF,0xFF
	.DB  0x0,0x0,0x0,0x0,0x0,0x0,0x0,0x0
	.DB  0x7E,0x3E,0xF3,0xB7,0xF3,0xFF,0xFF,0xFF
	.DB  0x0,0x0,0x0,0x0,0x0,0x0,0x0,0x0
	.DB  0xFE,0xBC,0xF9,0x8F,0xF9,0xFF,0xFF,0xFF
	.DB  0x0,0x0,0x0,0x0,0x0,0x0,0x0,0x0
	.DB  0xFE,0x99,0xF9,0xCF,0xFC,0xF,0x3E,0xF8
	.DB  0x0,0x0,0x0,0x0,0x0,0x0,0x0,0x0
	.DB  0xFE,0xC3,0xF3,0x1,0xFE,0xFF,0xFF,0xFF
	.DB  0x0,0x0,0x0,0x0,0x0,0x0,0x0,0x0
	.DB  0xFE,0xC7,0x7,0x9C,0xFF,0xFF,0xFF,0xFF
	.DB  0x0,0x0,0x0,0x0,0x0,0x0,0x0,0x0
	.DB  0xFE,0x1F,0xFF,0xC7,0xFF,0xFF,0xFF,0xFF
	.DB  0x0,0x0,0x0,0x0,0x0,0x0,0x0,0x0
	.DB  0xFE,0x7F,0x0,0xF8,0xFF,0xFF,0xFF,0xFF
	.DB  0x0,0x0,0x0,0x0,0x0,0x0,0x0,0x0
	.DB  0xFE,0xFF,0x8F,0xFF,0xFF,0xFF,0xFF,0xFF
	.DB  0x0,0x0,0x0,0x0,0x0,0x0,0x0,0x0
	.DB  0xFE,0xFF,0xFF,0xFF,0xFF,0xFF,0xFF,0xFF
	.DB  0x0,0x0,0x0,0x0,0x0,0x0,0x0,0x0
	.DB  0xFC,0xFF,0xFF,0xFF,0xFF,0xFF,0xFF,0x7F
	.DB  0x0,0x0,0x0,0x0,0x0,0x0,0x0,0x0
	.DB  0xF8,0xFF,0xFF,0xFF,0xFF,0xFF,0xFF,0x3F
	.DB  0x0,0x0,0x0,0x0,0x0,0x0,0x0,0x0
	.DB  0x0,0x0,0x0,0x0,0x0,0x0,0x0,0x0
	.DB  0x0,0x0,0x0,0x0,0x0,0x0,0x0,0x0
	.DB  0x0,0x0,0x0,0x0,0x0,0x0,0x0,0x0
	.DB  0x0,0x0,0x0,0x0,0x0,0x0,0x0,0x0
	.DB  0x0,0xFF,0x3,0x0,0x0,0x80,0xFF,0x1
	.DB  0x0,0x0,0x0,0x0,0x0,0x0,0x0,0x0
	.DB  0x0,0xFF,0x3,0x0,0x0,0x80,0xFF,0x1
	.DB  0x0,0x0,0x0,0x0,0x0,0x0,0x0,0x0
	.DB  0x0,0xFE,0x3,0x0,0x0,0x80,0xFF,0x1
	.DB  0x0,0x0,0x0,0x0,0x0,0x0,0x0,0x0
	.DB  0x0,0x0,0x0,0x0,0x0,0x0,0x0,0x0
	.DB  0x0,0x0,0x0,0x0,0x0,0x0,0x0,0x0
	.DB  0x0,0x0,0x0,0x0,0x0,0x0,0x0,0x0
	.DB  0x0,0x0,0x0,0x0,0x0,0x0,0x0,0x0
	.DB  0x0,0x0,0x0,0x0,0x0,0x0,0x0,0x0
	.DB  0x0,0x0,0x0,0x0,0x0,0x0,0x0,0x0
	.DB  0x0,0x0,0x0,0x0,0x0,0x0,0x0,0x0
	.DB  0x0,0x0,0x0,0x0,0x0,0x0,0x0,0x0
	.DB  0x0,0x0,0x0,0x0,0x0,0x0,0x0,0x0
	.DB  0x0,0x0,0x0,0x0,0x0,0x0,0x0,0x0
	.DB  0x0,0x0,0x0,0x0,0x0,0x0,0x0,0x0
	.DB  0x0,0x0,0x0,0x0,0x0,0x0,0x0,0x0
	.DB  0x0,0x0,0x0,0x0,0x0,0x0,0x0,0x0
	.DB  0x0,0x0,0x0,0x0,0x0,0x0,0x0,0x0
	.DB  0x0,0x0,0x0,0x0,0x0,0x0,0x0,0x0
	.DB  0x0,0x0,0x0,0x0
_conv_delay_G103:
	.DB  0x64,0x0,0xC8,0x0,0x90,0x1,0x20,0x3
_bit_mask_G103:
	.DB  0xF8,0xFF,0xFC,0xFF,0xFE,0xFF,0xFF,0xFF
__glcd_mask:
	.DB  0x0,0x1,0x3,0x7,0xF,0x1F,0x3F,0x7F
	.DB  0xFF
_st7920_init_4bit_G104:
	.DB  0x30,0x30,0x20,0x0,0x20,0x0
_st7920_base_y_G104:
	.DB  0x80,0x90,0x88,0x98

;REGISTER BIT VARIABLES INITIALIZATION
__REG_BIT_VARS:
	.DW  0x0001

;GLOBAL REGISTER VARIABLES INITIALIZATION
__REG_VARS:
	.DB  0x1,0x0,0x0,0x0
	.DB  0x0,0x0

_0x3:
	.DB  0x53,0x61,0x74,0x0,0x53,0x75,0x6E,0x0
	.DB  0x4D,0x6F,0x6E,0x0,0x54,0x75,0x65,0x0
	.DB  0x57,0x65,0x64,0x0,0x54,0x68,0x75,0x0
	.DB  0x46,0x72,0x69
_0x4:
	.DB  0x63,0x6F,0x6F,0x6C,0x65,0x72
_0x0:
	.DB  0x20,0x20,0x20,0x20,0x20,0x20,0x20,0x20
	.DB  0x20,0x20,0x0,0x25,0x30,0x34,0x64,0x2F
	.DB  0x0,0x25,0x30,0x32,0x64,0x2F,0x0,0x25
	.DB  0x30,0x32,0x64,0x0,0x25,0x30,0x32,0x64
	.DB  0x3A,0x0,0x61,0x6C,0x6C,0x20,0x73,0x61
	.DB  0x76,0x65,0x64,0x0,0x25,0x30,0x32,0x64
	.DB  0x3A,0x25,0x30,0x32,0x64,0x3A,0x25,0x30
	.DB  0x32,0x64,0x0,0x25,0x34,0x64,0x2F,0x25
	.DB  0x30,0x32,0x64,0x2F,0x25,0x30,0x32,0x64
	.DB  0x0,0x25,0x30,0x31,0x64,0x25,0x0,0x25
	.DB  0x32,0x2E,0x31,0x66,0x25,0x60,0x43,0x0
	.DB  0x68,0x65,0x61,0x74,0x72,0x65,0x0,0x63
	.DB  0x6F,0x6F,0x6C,0x65,0x72,0x0,0x68,0x65
	.DB  0x61,0x74,0x65,0x72,0x0
_0x2000000:
	.DB  0x2D,0x4E,0x41,0x4E,0x0
_0x2120060:
	.DB  0x1
_0x2120000:
	.DB  0x2D,0x4E,0x41,0x4E,0x0,0x49,0x4E,0x46
	.DB  0x0

__GLOBAL_INI_TBL:
	.DW  0x01
	.DW  0x02
	.DW  __REG_BIT_VARS*2

	.DW  0x06
	.DW  0x04
	.DW  __REG_VARS*2

	.DW  0x1B
	.DW  __weekday
	.DW  _0x3*2

	.DW  0x06
	.DW  _state
	.DW  _0x4*2

	.DW  0x0A
	.DW  _0x56
	.DW  _0x0*2+34

	.DW  0x01
	.DW  __seed_G109
	.DW  _0x2120060*2

_0xFFFFFFFF:
	.DW  0

#define __GLOBAL_INI_TBL_PRESENT 1

__RESET:
	CLI
	CLR  R30
	OUT  EECR,R30

;INTERRUPT VECTORS ARE PLACED
;AT THE START OF FLASH
	LDI  R31,1
	OUT  MCUCR,R31
	OUT  MCUCR,R30

;CLEAR R2-R14
	LDI  R24,(14-2)+1
	LDI  R26,2
	CLR  R27
__CLEAR_REG:
	ST   X+,R30
	DEC  R24
	BRNE __CLEAR_REG

;CLEAR SRAM
	LDI  R24,LOW(__CLEAR_SRAM_SIZE)
	LDI  R25,HIGH(__CLEAR_SRAM_SIZE)
	LDI  R26,__SRAM_START
__CLEAR_SRAM:
	ST   X+,R30
	SBIW R24,1
	BRNE __CLEAR_SRAM

;GLOBAL VARIABLES INITIALIZATION
	LDI  R30,LOW(__GLOBAL_INI_TBL*2)
	LDI  R31,HIGH(__GLOBAL_INI_TBL*2)
__GLOBAL_INI_NEXT:
	LPM  R24,Z+
	LPM  R25,Z+
	SBIW R24,0
	BREQ __GLOBAL_INI_END
	LPM  R26,Z+
	LPM  R27,Z+
	LPM  R0,Z+
	LPM  R1,Z+
	MOVW R22,R30
	MOVW R30,R0
__GLOBAL_INI_LOOP:
	LPM  R0,Z+
	ST   X+,R0
	SBIW R24,1
	BRNE __GLOBAL_INI_LOOP
	MOVW R30,R22
	RJMP __GLOBAL_INI_NEXT
__GLOBAL_INI_END:

;HARDWARE STACK POINTER INITIALIZATION
	LDI  R30,LOW(__SRAM_END-__HEAP_SIZE)
	OUT  SPL,R30
	LDI  R30,HIGH(__SRAM_END-__HEAP_SIZE)
	OUT  SPH,R30

;DATA STACK POINTER INITIALIZATION
	LDI  R28,LOW(__SRAM_START+__DSTACK_SIZE)
	LDI  R29,HIGH(__SRAM_START+__DSTACK_SIZE)

	JMP  _main

	.ESEG
	.ORG 0

	.DSEG
	.ORG 0x260

	.CSEG
;#include <mega32a.h>
	#ifndef __SLEEP_DEFINED__
	#define __SLEEP_DEFINED__
	.EQU __se_bit=0x80
	.EQU __sm_mask=0x70
	.EQU __sm_powerdown=0x20
	.EQU __sm_powersave=0x30
	.EQU __sm_standby=0x60
	.EQU __sm_ext_standby=0x70
	.EQU __sm_adc_noise_red=0x10
	.SET power_ctrl_reg=mcucr
	#endif
;#define xtal 11059200
;
;// 1 Wire Bus interface functions
;#include <1wire.h>
;#include <stdio.h>
;#include <ds1307.h>
;#include <testfont.c>
;/****************************************************************************
;Font created by the LCD Vision V1.05 font & image editor/converter
;(C) Copyright 2011-2013 Pavel Haiduc, HP InfoTech s.r.l.
;http://www.hpinfotech.com
;
;Font name: New font
;Fixed font width: 8 pixels
;Font height: 8 pixels
;First character: 0x20
;Last character: 0x7F
;
;Exported font data size:
;772 bytes for displays organized as horizontal rows of bytes
;772 bytes for displays organized as rows of vertical bytes.
;****************************************************************************/
;
;flash unsigned char she[]=
;{
;0x08, /* Fixed font width */
;0x08, /* Font height */
;0x20, /* First character */
;0x60, /* Number of characters in font */
;
;#ifndef _GLCD_DATA_BYTEY_
;/* Font data for displays organized as
;   horizontal rows of bytes */
;
;/* Code: 0x20, ASCII Character: ' ' */
;0x00, 0x00, 0x00, 0x00, 0x00, 0x00, 0x00, 0x00,
;
;/* Code: 0x21, ASCII Character: '!' */
;0x10, 0x28, 0x00, 0x54, 0x7D, 0x05, 0x05, 0x07,
;
;/* Code: 0x22, ASCII Character: '"' */
;0x00, 0x00, 0x00, 0x00, 0x00, 0x00, 0x00, 0x00,
;
;/* Code: 0x23, ASCII Character: '#' */
;0x00, 0x00, 0x00, 0x00, 0x00, 0x00, 0x00, 0x00,
;
;/* Code: 0x24, ASCII Character: '$' */
;0x00, 0x00, 0x00, 0x00, 0x00, 0x00, 0x00, 0x00,
;
;/* Code: 0x25, ASCII Character: '%' */
;0x00, 0x00, 0x00, 0x00, 0x00, 0x00, 0x00, 0x00,
;
;/* Code: 0x26, ASCII Character: '&' */
;0x00, 0x00, 0x00, 0x00, 0x00, 0x00, 0x00, 0x00,
;
;/* Code: 0x27, ASCII Character: ''' */
;0x00, 0x00, 0x00, 0x00, 0x00, 0x00, 0x00, 0x00,
;
;/* Code: 0x28, ASCII Character: '(' */
;0x00, 0x00, 0x00, 0x00, 0x00, 0x00, 0x00, 0x00,
;
;/* Code: 0x29, ASCII Character: ')' */
;0x00, 0x00, 0x00, 0x00, 0x00, 0x00, 0x00, 0x00,
;
;/* Code: 0x2A, ASCII Character: '*' */
;0x00, 0x00, 0x00, 0x00, 0x00, 0x00, 0x00, 0x00,
;
;/* Code: 0x2B, ASCII Character: '+' */
;0x00, 0x00, 0x00, 0x00, 0x00, 0x00, 0x00, 0x00,
;
;/* Code: 0x2C, ASCII Character: ',' */
;0x00, 0x00, 0x00, 0x00, 0x00, 0x00, 0x00, 0x00,
;
;/* Code: 0x2D, ASCII Character: '-' */
;0x00, 0x00, 0x00, 0x00, 0x00, 0x00, 0x00, 0x00,
;
;/* Code: 0x2E, ASCII Character: '.' */
;0x00, 0x00, 0x00, 0x00, 0x00, 0x00, 0x00, 0x00,
;
;/* Code: 0x2F, ASCII Character: '/' */
;0x00, 0x00, 0x00, 0x00, 0x00, 0x00, 0x00, 0x00,
;
;/* Code: 0x30, ASCII Character: '0' */
;0x00, 0x00, 0x00, 0x00, 0x00, 0x00, 0x00, 0x00,
;
;/* Code: 0x31, ASCII Character: '1' */
;0x00, 0x00, 0x00, 0x00, 0x00, 0x00, 0x00, 0x00,
;
;/* Code: 0x32, ASCII Character: '2' */
;0x00, 0x00, 0x00, 0x00, 0x00, 0x00, 0x00, 0x00,
;
;/* Code: 0x33, ASCII Character: '3' */
;0x00, 0x00, 0x00, 0x00, 0x00, 0x00, 0x00, 0x00,
;
;/* Code: 0x34, ASCII Character: '4' */
;0x00, 0x00, 0x00, 0x00, 0x00, 0x00, 0x00, 0x00,
;
;/* Code: 0x35, ASCII Character: '5' */
;0x00, 0x00, 0x00, 0x00, 0x00, 0x00, 0x00, 0x00,
;
;/* Code: 0x36, ASCII Character: '6' */
;0x00, 0x00, 0x00, 0x00, 0x00, 0x00, 0x00, 0x00,
;
;/* Code: 0x37, ASCII Character: '7' */
;0x00, 0x00, 0x00, 0x00, 0x00, 0x00, 0x00, 0x00,
;
;/* Code: 0x38, ASCII Character: '8' */
;0x00, 0x00, 0x00, 0x00, 0x00, 0x00, 0x00, 0x00,
;
;/* Code: 0x39, ASCII Character: '9' */
;0x00, 0x00, 0x00, 0x00, 0x00, 0x00, 0x00, 0x00,
;
;/* Code: 0x3A, ASCII Character: ':' */
;0x00, 0x00, 0x00, 0x00, 0x00, 0x00, 0x00, 0x00,
;
;/* Code: 0x3B, ASCII Character: ';' */
;0x00, 0x00, 0x00, 0x00, 0x00, 0x00, 0x00, 0x00,
;
;/* Code: 0x3C, ASCII Character: '<' */
;0x00, 0x00, 0x00, 0x00, 0x00, 0x00, 0x00, 0x00,
;
;/* Code: 0x3D, ASCII Character: '=' */
;0x00, 0x00, 0x00, 0x00, 0x00, 0x00, 0x00, 0x00,
;
;/* Code: 0x3E, ASCII Character: '>' */
;0x00, 0x00, 0x00, 0x00, 0x00, 0x00, 0x00, 0x00,
;
;/* Code: 0x3F, ASCII Character: '?' */
;0x00, 0x00, 0x00, 0x00, 0x00, 0x00, 0x00, 0x00,
;
;/* Code: 0x40, ASCII Character: '@' */
;0x00, 0x00, 0x00, 0x00, 0x00, 0x00, 0x00, 0x00,
;
;/* Code: 0x41, ASCII Character: 'A' */
;0x00, 0x00, 0x00, 0x00, 0x00, 0x00, 0x00, 0x00,
;
;/* Code: 0x42, ASCII Character: 'B' */
;0x00, 0x00, 0x00, 0x00, 0x00, 0x00, 0x00, 0x00,
;
;/* Code: 0x43, ASCII Character: 'C' */
;0x00, 0x00, 0x00, 0x00, 0x00, 0x00, 0x00, 0x00,
;
;/* Code: 0x44, ASCII Character: 'D' */
;0x00, 0x00, 0x00, 0x00, 0x00, 0x00, 0x00, 0x00,
;
;/* Code: 0x45, ASCII Character: 'E' */
;0x00, 0x00, 0x00, 0x00, 0x00, 0x00, 0x00, 0x00,
;
;/* Code: 0x46, ASCII Character: 'F' */
;0x00, 0x00, 0x00, 0x00, 0x00, 0x00, 0x00, 0x00,
;
;/* Code: 0x47, ASCII Character: 'G' */
;0x00, 0x00, 0x00, 0x00, 0x00, 0x00, 0x00, 0x00,
;
;/* Code: 0x48, ASCII Character: 'H' */
;0x00, 0x00, 0x00, 0x00, 0x00, 0x00, 0x00, 0x00,
;
;/* Code: 0x49, ASCII Character: 'I' */
;0x00, 0x00, 0x00, 0x00, 0x00, 0x00, 0x00, 0x00,
;
;/* Code: 0x4A, ASCII Character: 'J' */
;0x00, 0x00, 0x00, 0x00, 0x00, 0x00, 0x00, 0x00,
;
;/* Code: 0x4B, ASCII Character: 'K' */
;0x00, 0x00, 0x00, 0x00, 0x00, 0x00, 0x00, 0x00,
;
;/* Code: 0x4C, ASCII Character: 'L' */
;0x00, 0x00, 0x00, 0x00, 0x00, 0x00, 0x00, 0x00,
;
;/* Code: 0x4D, ASCII Character: 'M' */
;0x00, 0x00, 0x00, 0x00, 0x00, 0x00, 0x00, 0x00,
;
;/* Code: 0x4E, ASCII Character: 'N' */
;0x00, 0x00, 0x00, 0x00, 0x00, 0x00, 0x00, 0x00,
;
;/* Code: 0x4F, ASCII Character: 'O' */
;0x00, 0x00, 0x00, 0x00, 0x00, 0x00, 0x00, 0x00,
;
;/* Code: 0x50, ASCII Character: 'P' */
;0x00, 0x00, 0x00, 0x00, 0x00, 0x00, 0x00, 0x00,
;
;/* Code: 0x51, ASCII Character: 'Q' */
;0x00, 0x00, 0x00, 0x00, 0x00, 0x00, 0x00, 0x00,
;
;/* Code: 0x52, ASCII Character: 'R' */
;0x00, 0x00, 0x00, 0x00, 0x00, 0x00, 0x00, 0x00,
;
;/* Code: 0x53, ASCII Character: 'S' */
;0x00, 0x00, 0x00, 0x00, 0x00, 0x00, 0x00, 0x00,
;
;/* Code: 0x54, ASCII Character: 'T' */
;0x00, 0x00, 0x00, 0x00, 0x00, 0x00, 0x00, 0x00,
;
;/* Code: 0x55, ASCII Character: 'U' */
;0x00, 0x00, 0x00, 0x00, 0x00, 0x00, 0x00, 0x00,
;
;/* Code: 0x56, ASCII Character: 'V' */
;0x00, 0x00, 0x00, 0x00, 0x00, 0x00, 0x00, 0x00,
;
;/* Code: 0x57, ASCII Character: 'W' */
;0x00, 0x00, 0x00, 0x00, 0x00, 0x00, 0x00, 0x00,
;
;/* Code: 0x58, ASCII Character: 'X' */
;0x00, 0x00, 0x00, 0x00, 0x00, 0x00, 0x00, 0x00,
;
;/* Code: 0x59, ASCII Character: 'Y' */
;0x00, 0x00, 0x00, 0x00, 0x00, 0x00, 0x00, 0x00,
;
;/* Code: 0x5A, ASCII Character: 'Z' */
;0x00, 0x00, 0x00, 0x00, 0x00, 0x00, 0x00, 0x00,
;
;/* Code: 0x5B, ASCII Character: '[' */
;0x00, 0x00, 0x00, 0x00, 0x00, 0x00, 0x00, 0x00,
;
;/* Code: 0x5C, ASCII Character: '\' */
;0x00, 0x00, 0x00, 0x00, 0x00, 0x00, 0x00, 0x00,
;
;/* Code: 0x5D, ASCII Character: ']' */
;0x00, 0x00, 0x00, 0x00, 0x00, 0x00, 0x00, 0x00,
;
;/* Code: 0x5E, ASCII Character: '^' */
;0x00, 0x00, 0x00, 0x00, 0x00, 0x00, 0x00, 0x00,
;
;/* Code: 0x5F, ASCII Character: '_' */
;0x00, 0x00, 0x00, 0x00, 0x00, 0x00, 0x00, 0x00,
;
;/* Code: 0x60, ASCII Character: '`' */
;0x00, 0x00, 0x00, 0x00, 0x00, 0x00, 0x00, 0x00,
;
;/* Code: 0x61, ASCII Character: 'a' */
;0x00, 0x00, 0x00, 0x00, 0x00, 0x00, 0x00, 0x00,
;
;/* Code: 0x62, ASCII Character: 'b' */
;0x00, 0x00, 0x00, 0x00, 0x00, 0x00, 0x00, 0x00,
;
;/* Code: 0x63, ASCII Character: 'c' */
;0x00, 0x00, 0x00, 0x00, 0x00, 0x00, 0x00, 0x00,
;
;/* Code: 0x64, ASCII Character: 'd' */
;0x00, 0x00, 0x00, 0x00, 0x00, 0x00, 0x00, 0x00,
;
;/* Code: 0x65, ASCII Character: 'e' */
;0x00, 0x00, 0x00, 0x00, 0x00, 0x00, 0x00, 0x00,
;
;/* Code: 0x66, ASCII Character: 'f' */
;0x00, 0x00, 0x00, 0x00, 0x00, 0x00, 0x00, 0x00,
;
;/* Code: 0x67, ASCII Character: 'g' */
;0x00, 0x00, 0x00, 0x00, 0x00, 0x00, 0x00, 0x00,
;
;/* Code: 0x68, ASCII Character: 'h' */
;0x00, 0x00, 0x00, 0x00, 0x00, 0x00, 0x00, 0x00,
;
;/* Code: 0x69, ASCII Character: 'i' */
;0x00, 0x00, 0x00, 0x00, 0x00, 0x00, 0x00, 0x00,
;
;/* Code: 0x6A, ASCII Character: 'j' */
;0x00, 0x00, 0x00, 0x00, 0x00, 0x00, 0x00, 0x00,
;
;/* Code: 0x6B, ASCII Character: 'k' */
;0x00, 0x00, 0x00, 0x00, 0x00, 0x00, 0x00, 0x00,
;
;/* Code: 0x6C, ASCII Character: 'l' */
;0x00, 0x00, 0x00, 0x00, 0x00, 0x00, 0x00, 0x00,
;
;/* Code: 0x6D, ASCII Character: 'm' */
;0x00, 0x00, 0x00, 0x00, 0x00, 0x00, 0x00, 0x00,
;
;/* Code: 0x6E, ASCII Character: 'n' */
;0x00, 0x00, 0x00, 0x00, 0x00, 0x00, 0x00, 0x00,
;
;/* Code: 0x6F, ASCII Character: 'o' */
;0x00, 0x00, 0x00, 0x00, 0x00, 0x00, 0x00, 0x00,
;
;/* Code: 0x70, ASCII Character: 'p' */
;0x00, 0x00, 0x00, 0x00, 0x00, 0x00, 0x00, 0x00,
;
;/* Code: 0x71, ASCII Character: 'q' */
;0x00, 0x00, 0x00, 0x00, 0x00, 0x00, 0x00, 0x00,
;
;/* Code: 0x72, ASCII Character: 'r' */
;0x00, 0x00, 0x00, 0x00, 0x00, 0x00, 0x00, 0x00,
;
;/* Code: 0x73, ASCII Character: 's' */
;0x00, 0x00, 0x00, 0x00, 0x00, 0x00, 0x00, 0x00,
;
;/* Code: 0x74, ASCII Character: 't' */
;0x00, 0x00, 0x00, 0x00, 0x00, 0x00, 0x00, 0x00,
;
;/* Code: 0x75, ASCII Character: 'u' */
;0x00, 0x00, 0x00, 0x00, 0x00, 0x00, 0x00, 0x00,
;
;/* Code: 0x76, ASCII Character: 'v' */
;0x00, 0x00, 0x00, 0x00, 0x00, 0x00, 0x00, 0x00,
;
;/* Code: 0x77, ASCII Character: 'w' */
;0x00, 0x00, 0x00, 0x00, 0x00, 0x00, 0x00, 0x00,
;
;/* Code: 0x78, ASCII Character: 'x' */
;0x00, 0x00, 0x00, 0x00, 0x00, 0x00, 0x00, 0x00,
;
;/* Code: 0x79, ASCII Character: 'y' */
;0x00, 0x00, 0x00, 0x00, 0x00, 0x00, 0x00, 0x00,
;
;/* Code: 0x7A, ASCII Character: 'z' */
;0x00, 0x00, 0x00, 0x00, 0x00, 0x00, 0x00, 0x00,
;
;/* Code: 0x7B, ASCII Character: '{' */
;0x00, 0x00, 0x00, 0x00, 0x00, 0x00, 0x00, 0x00,
;
;/* Code: 0x7C, ASCII Character: '|' */
;0x00, 0x00, 0x00, 0x00, 0x00, 0x00, 0x00, 0x00,
;
;/* Code: 0x7D, ASCII Character: '}' */
;0x00, 0x00, 0x00, 0x00, 0x00, 0x00, 0x00, 0x00,
;
;/* Code: 0x7E, ASCII Character: '~' */
;0x00, 0x00, 0x00, 0x00, 0x00, 0x00, 0x00, 0x00,
;
;/* Code: 0x7F, ASCII Character: '' */
;0x00, 0x00, 0x00, 0x00, 0x00, 0x00, 0x00, 0x00,
;
;#else
;/* Font data for displays organized as
;   rows of vertical bytes */
;
;/* Code: 0x20, ASCII Character: ' ' */
;0x00, 0x00, 0x00, 0x00, 0x00, 0x00, 0x00, 0x00,
;
;/* Code: 0x21, ASCII Character: '!' */
;0xF0, 0x80, 0xF8, 0x12, 0x19, 0x12, 0x18, 0x00,
;
;/* Code: 0x22, ASCII Character: '"' */
;0x00, 0x00, 0x00, 0x00, 0x00, 0x00, 0x00, 0x00,
;
;/* Code: 0x23, ASCII Character: '#' */
;0x00, 0x00, 0x00, 0x00, 0x00, 0x00, 0x00, 0x00,
;
;/* Code: 0x24, ASCII Character: '$' */
;0x00, 0x00, 0x00, 0x00, 0x00, 0x00, 0x00, 0x00,
;
;/* Code: 0x25, ASCII Character: '%' */
;0x00, 0x00, 0x00, 0x00, 0x00, 0x00, 0x00, 0x00,
;
;/* Code: 0x26, ASCII Character: '&' */
;0x00, 0x00, 0x00, 0x00, 0x00, 0x00, 0x00, 0x00,
;
;/* Code: 0x27, ASCII Character: ''' */
;0x00, 0x00, 0x00, 0x00, 0x00, 0x00, 0x00, 0x00,
;
;/* Code: 0x28, ASCII Character: '(' */
;0x00, 0x00, 0x00, 0x00, 0x00, 0x00, 0x00, 0x00,
;
;/* Code: 0x29, ASCII Character: ')' */
;0x00, 0x00, 0x00, 0x00, 0x00, 0x00, 0x00, 0x00,
;
;/* Code: 0x2A, ASCII Character: '*' */
;0x00, 0x00, 0x00, 0x00, 0x00, 0x00, 0x00, 0x00,
;
;/* Code: 0x2B, ASCII Character: '+' */
;0x00, 0x00, 0x00, 0x00, 0x00, 0x00, 0x00, 0x00,
;
;/* Code: 0x2C, ASCII Character: ',' */
;0x00, 0x00, 0x00, 0x00, 0x00, 0x00, 0x00, 0x00,
;
;/* Code: 0x2D, ASCII Character: '-' */
;0x00, 0x00, 0x00, 0x00, 0x00, 0x00, 0x00, 0x00,
;
;/* Code: 0x2E, ASCII Character: '.' */
;0x00, 0x00, 0x00, 0x00, 0x00, 0x00, 0x00, 0x00,
;
;/* Code: 0x2F, ASCII Character: '/' */
;0x00, 0x00, 0x00, 0x00, 0x00, 0x00, 0x00, 0x00,
;
;/* Code: 0x30, ASCII Character: '0' */
;0x00, 0x00, 0x00, 0x00, 0x00, 0x00, 0x00, 0x00,
;
;/* Code: 0x31, ASCII Character: '1' */
;0x00, 0x00, 0x00, 0x00, 0x00, 0x00, 0x00, 0x00,
;
;/* Code: 0x32, ASCII Character: '2' */
;0x00, 0x00, 0x00, 0x00, 0x00, 0x00, 0x00, 0x00,
;
;/* Code: 0x33, ASCII Character: '3' */
;0x00, 0x00, 0x00, 0x00, 0x00, 0x00, 0x00, 0x00,
;
;/* Code: 0x34, ASCII Character: '4' */
;0x00, 0x00, 0x00, 0x00, 0x00, 0x00, 0x00, 0x00,
;
;/* Code: 0x35, ASCII Character: '5' */
;0x00, 0x00, 0x00, 0x00, 0x00, 0x00, 0x00, 0x00,
;
;/* Code: 0x36, ASCII Character: '6' */
;0x00, 0x00, 0x00, 0x00, 0x00, 0x00, 0x00, 0x00,
;
;/* Code: 0x37, ASCII Character: '7' */
;0x00, 0x00, 0x00, 0x00, 0x00, 0x00, 0x00, 0x00,
;
;/* Code: 0x38, ASCII Character: '8' */
;0x00, 0x00, 0x00, 0x00, 0x00, 0x00, 0x00, 0x00,
;
;/* Code: 0x39, ASCII Character: '9' */
;0x00, 0x00, 0x00, 0x00, 0x00, 0x00, 0x00, 0x00,
;
;/* Code: 0x3A, ASCII Character: ':' */
;0x00, 0x00, 0x00, 0x00, 0x00, 0x00, 0x00, 0x00,
;
;/* Code: 0x3B, ASCII Character: ';' */
;0x00, 0x00, 0x00, 0x00, 0x00, 0x00, 0x00, 0x00,
;
;/* Code: 0x3C, ASCII Character: '<' */
;0x00, 0x00, 0x00, 0x00, 0x00, 0x00, 0x00, 0x00,
;
;/* Code: 0x3D, ASCII Character: '=' */
;0x00, 0x00, 0x00, 0x00, 0x00, 0x00, 0x00, 0x00,
;
;/* Code: 0x3E, ASCII Character: '>' */
;0x00, 0x00, 0x00, 0x00, 0x00, 0x00, 0x00, 0x00,
;
;/* Code: 0x3F, ASCII Character: '?' */
;0x00, 0x00, 0x00, 0x00, 0x00, 0x00, 0x00, 0x00,
;
;/* Code: 0x40, ASCII Character: '@' */
;0x00, 0x00, 0x00, 0x00, 0x00, 0x00, 0x00, 0x00,
;
;/* Code: 0x41, ASCII Character: 'A' */
;0x00, 0x00, 0x00, 0x00, 0x00, 0x00, 0x00, 0x00,
;
;/* Code: 0x42, ASCII Character: 'B' */
;0x00, 0x00, 0x00, 0x00, 0x00, 0x00, 0x00, 0x00,
;
;/* Code: 0x43, ASCII Character: 'C' */
;0x00, 0x00, 0x00, 0x00, 0x00, 0x00, 0x00, 0x00,
;
;/* Code: 0x44, ASCII Character: 'D' */
;0x00, 0x00, 0x00, 0x00, 0x00, 0x00, 0x00, 0x00,
;
;/* Code: 0x45, ASCII Character: 'E' */
;0x00, 0x00, 0x00, 0x00, 0x00, 0x00, 0x00, 0x00,
;
;/* Code: 0x46, ASCII Character: 'F' */
;0x00, 0x00, 0x00, 0x00, 0x00, 0x00, 0x00, 0x00,
;
;/* Code: 0x47, ASCII Character: 'G' */
;0x00, 0x00, 0x00, 0x00, 0x00, 0x00, 0x00, 0x00,
;
;/* Code: 0x48, ASCII Character: 'H' */
;0x00, 0x00, 0x00, 0x00, 0x00, 0x00, 0x00, 0x00,
;
;/* Code: 0x49, ASCII Character: 'I' */
;0x00, 0x00, 0x00, 0x00, 0x00, 0x00, 0x00, 0x00,
;
;/* Code: 0x4A, ASCII Character: 'J' */
;0x00, 0x00, 0x00, 0x00, 0x00, 0x00, 0x00, 0x00,
;
;/* Code: 0x4B, ASCII Character: 'K' */
;0x00, 0x00, 0x00, 0x00, 0x00, 0x00, 0x00, 0x00,
;
;/* Code: 0x4C, ASCII Character: 'L' */
;0x00, 0x00, 0x00, 0x00, 0x00, 0x00, 0x00, 0x00,
;
;/* Code: 0x4D, ASCII Character: 'M' */
;0x00, 0x00, 0x00, 0x00, 0x00, 0x00, 0x00, 0x00,
;
;/* Code: 0x4E, ASCII Character: 'N' */
;0x00, 0x00, 0x00, 0x00, 0x00, 0x00, 0x00, 0x00,
;
;/* Code: 0x4F, ASCII Character: 'O' */
;0x00, 0x00, 0x00, 0x00, 0x00, 0x00, 0x00, 0x00,
;
;/* Code: 0x50, ASCII Character: 'P' */
;0x00, 0x00, 0x00, 0x00, 0x00, 0x00, 0x00, 0x00,
;
;/* Code: 0x51, ASCII Character: 'Q' */
;0x00, 0x00, 0x00, 0x00, 0x00, 0x00, 0x00, 0x00,
;
;/* Code: 0x52, ASCII Character: 'R' */
;0x00, 0x00, 0x00, 0x00, 0x00, 0x00, 0x00, 0x00,
;
;/* Code: 0x53, ASCII Character: 'S' */
;0x00, 0x00, 0x00, 0x00, 0x00, 0x00, 0x00, 0x00,
;
;/* Code: 0x54, ASCII Character: 'T' */
;0x00, 0x00, 0x00, 0x00, 0x00, 0x00, 0x00, 0x00,
;
;/* Code: 0x55, ASCII Character: 'U' */
;0x00, 0x00, 0x00, 0x00, 0x00, 0x00, 0x00, 0x00,
;
;/* Code: 0x56, ASCII Character: 'V' */
;0x00, 0x00, 0x00, 0x00, 0x00, 0x00, 0x00, 0x00,
;
;/* Code: 0x57, ASCII Character: 'W' */
;0x00, 0x00, 0x00, 0x00, 0x00, 0x00, 0x00, 0x00,
;
;/* Code: 0x58, ASCII Character: 'X' */
;0x00, 0x00, 0x00, 0x00, 0x00, 0x00, 0x00, 0x00,
;
;/* Code: 0x59, ASCII Character: 'Y' */
;0x00, 0x00, 0x00, 0x00, 0x00, 0x00, 0x00, 0x00,
;
;/* Code: 0x5A, ASCII Character: 'Z' */
;0x00, 0x00, 0x00, 0x00, 0x00, 0x00, 0x00, 0x00,
;
;/* Code: 0x5B, ASCII Character: '[' */
;0x00, 0x00, 0x00, 0x00, 0x00, 0x00, 0x00, 0x00,
;
;/* Code: 0x5C, ASCII Character: '\' */
;0x00, 0x00, 0x00, 0x00, 0x00, 0x00, 0x00, 0x00,
;
;/* Code: 0x5D, ASCII Character: ']' */
;0x00, 0x00, 0x00, 0x00, 0x00, 0x00, 0x00, 0x00,
;
;/* Code: 0x5E, ASCII Character: '^' */
;0x00, 0x00, 0x00, 0x00, 0x00, 0x00, 0x00, 0x00,
;
;/* Code: 0x5F, ASCII Character: '_' */
;0x00, 0x00, 0x00, 0x00, 0x00, 0x00, 0x00, 0x00,
;
;/* Code: 0x60, ASCII Character: '`' */
;0x00, 0x00, 0x00, 0x00, 0x00, 0x00, 0x00, 0x00,
;
;/* Code: 0x61, ASCII Character: 'a' */
;0x00, 0x00, 0x00, 0x00, 0x00, 0x00, 0x00, 0x00,
;
;/* Code: 0x62, ASCII Character: 'b' */
;0x00, 0x00, 0x00, 0x00, 0x00, 0x00, 0x00, 0x00,
;
;/* Code: 0x63, ASCII Character: 'c' */
;0x00, 0x00, 0x00, 0x00, 0x00, 0x00, 0x00, 0x00,
;
;/* Code: 0x64, ASCII Character: 'd' */
;0x00, 0x00, 0x00, 0x00, 0x00, 0x00, 0x00, 0x00,
;
;/* Code: 0x65, ASCII Character: 'e' */
;0x00, 0x00, 0x00, 0x00, 0x00, 0x00, 0x00, 0x00,
;
;/* Code: 0x66, ASCII Character: 'f' */
;0x00, 0x00, 0x00, 0x00, 0x00, 0x00, 0x00, 0x00,
;
;/* Code: 0x67, ASCII Character: 'g' */
;0x00, 0x00, 0x00, 0x00, 0x00, 0x00, 0x00, 0x00,
;
;/* Code: 0x68, ASCII Character: 'h' */
;0x00, 0x00, 0x00, 0x00, 0x00, 0x00, 0x00, 0x00,
;
;/* Code: 0x69, ASCII Character: 'i' */
;0x00, 0x00, 0x00, 0x00, 0x00, 0x00, 0x00, 0x00,
;
;/* Code: 0x6A, ASCII Character: 'j' */
;0x00, 0x00, 0x00, 0x00, 0x00, 0x00, 0x00, 0x00,
;
;/* Code: 0x6B, ASCII Character: 'k' */
;0x00, 0x00, 0x00, 0x00, 0x00, 0x00, 0x00, 0x00,
;
;/* Code: 0x6C, ASCII Character: 'l' */
;0x00, 0x00, 0x00, 0x00, 0x00, 0x00, 0x00, 0x00,
;
;/* Code: 0x6D, ASCII Character: 'm' */
;0x00, 0x00, 0x00, 0x00, 0x00, 0x00, 0x00, 0x00,
;
;/* Code: 0x6E, ASCII Character: 'n' */
;0x00, 0x00, 0x00, 0x00, 0x00, 0x00, 0x00, 0x00,
;
;/* Code: 0x6F, ASCII Character: 'o' */
;0x00, 0x00, 0x00, 0x00, 0x00, 0x00, 0x00, 0x00,
;
;/* Code: 0x70, ASCII Character: 'p' */
;0x00, 0x00, 0x00, 0x00, 0x00, 0x00, 0x00, 0x00,
;
;/* Code: 0x71, ASCII Character: 'q' */
;0x00, 0x00, 0x00, 0x00, 0x00, 0x00, 0x00, 0x00,
;
;/* Code: 0x72, ASCII Character: 'r' */
;0x00, 0x00, 0x00, 0x00, 0x00, 0x00, 0x00, 0x00,
;
;/* Code: 0x73, ASCII Character: 's' */
;0x00, 0x00, 0x00, 0x00, 0x00, 0x00, 0x00, 0x00,
;
;/* Code: 0x74, ASCII Character: 't' */
;0x00, 0x00, 0x00, 0x00, 0x00, 0x00, 0x00, 0x00,
;
;/* Code: 0x75, ASCII Character: 'u' */
;0x00, 0x00, 0x00, 0x00, 0x00, 0x00, 0x00, 0x00,
;
;/* Code: 0x76, ASCII Character: 'v' */
;0x00, 0x00, 0x00, 0x00, 0x00, 0x00, 0x00, 0x00,
;
;/* Code: 0x77, ASCII Character: 'w' */
;0x00, 0x00, 0x00, 0x00, 0x00, 0x00, 0x00, 0x00,
;
;/* Code: 0x78, ASCII Character: 'x' */
;0x00, 0x00, 0x00, 0x00, 0x00, 0x00, 0x00, 0x00,
;
;/* Code: 0x79, ASCII Character: 'y' */
;0x00, 0x00, 0x00, 0x00, 0x00, 0x00, 0x00, 0x00,
;
;/* Code: 0x7A, ASCII Character: 'z' */
;0x00, 0x00, 0x00, 0x00, 0x00, 0x00, 0x00, 0x00,
;
;/* Code: 0x7B, ASCII Character: '{' */
;0x00, 0x00, 0x00, 0x00, 0x00, 0x00, 0x00, 0x00,
;
;/* Code: 0x7C, ASCII Character: '|' */
;0x00, 0x00, 0x00, 0x00, 0x00, 0x00, 0x00, 0x00,
;
;/* Code: 0x7D, ASCII Character: '}' */
;0x00, 0x00, 0x00, 0x00, 0x00, 0x00, 0x00, 0x00,
;
;/* Code: 0x7E, ASCII Character: '~' */
;0x00, 0x00, 0x00, 0x00, 0x00, 0x00, 0x00, 0x00,
;
;/* Code: 0x7F, ASCII Character: '' */
;0x00, 0x00, 0x00, 0x00, 0x00, 0x00, 0x00, 0x00,
;
;#endif
;};
;
;#include <string.h>
;// DS1820 Temperature Sensor functions
;#include <ds18b20.h>
;//#include <bfreeze.c>
;// maximum number of DS1820 devices
;// connected to the 1 Wire bus
;#define MAX_DS1820 8
;// number of DS1820 devices
;// connected to the 1 Wire bus
;unsigned char ds1820_devices;
;// DS1820 devices ROM code storage area,
;// 9 bytes are used for each device
;// (see the w1_search function description in the help)
;unsigned char ds1820_rom_codes[MAX_DS1820][9];
;
;// Graphic Display functions
;#include <glcd.h>
;#include <delay.h>
;// Font used for displaying text
;// on the graphic display
;#include <font5x7.h>
;#include <defines.c>
;    //float temp=0;
;    //char i=0;
;    //char a=0;
;    //char buffer[16];
;
;    char c=1,i;
;    //char j=250;
;    char _hour=0,_min=0,_sec=0,_wday,_year,_month,_day;
;    int sh_year;
;    char _weekday[7][4]={{"Sat"},{"Sun"},{"Mon"},{"Tue"},{"Wed"},{"Thu"},{"Fri"}};

	.DSEG
;    char lastsec=0,strsec[12];
;
;    bit a=1;
;
;    //#define led1 PORTD.6;
;
;    #define led PORTD.6
;    #define up PIND.5
;    #define down PIND.4
;    #define menu PIND.3
;
;    typedef unsigned char byte;
;    typedef unsigned int  word;
;
;
;
;    bit blank=false,issame;
;    byte selection,j;
;    char lsec,str[10],state[7]="cooler",buffer[16];
;    float temp;
;    unsigned char ds1820_rom_codes[MAX_DS1820][9];
;
;
;
;
;    #include "logo.c"
;/****************************************************************************
;Image data created by the LCD Vision V1.05 font & image editor/converter
;(C) Copyright 2011-2013 Pavel Haiduc, HP InfoTech s.r.l.
;http://www.hpinfotech.com
;
;Graphic LCD controller: ST7920 128x64 4bit Bus /RST PSB=1
;Image width: 128 pixels
;Image height: 64 pixels
;Color depth: 1 bits/pixel
;Imported image file name: logo.bmp
;
;Exported monochrome image data size:
;1028 bytes for displays organized as horizontal rows of bytes
;1028 bytes for displays organized as rows of vertical bytes.
;****************************************************************************/
;
;flash unsigned char logo[]=
;{
;/* Image width: 128 pixels */
;0x80, 0x00,
;/* Image height: 64 pixels */
;0x40, 0x00,
;#ifndef _GLCD_DATA_BYTEY_
;/* Image data for monochrome displays organized
;   as horizontal rows of bytes */
;0x00, 0x00, 0x00, 0x00, 0x00, 0x00, 0x00, 0x00,
;0x00, 0x00, 0x00, 0x00, 0x00, 0x00, 0x00, 0x00,
;0x00, 0x00, 0x00, 0x00, 0x00, 0x00, 0x00, 0x00,
;0x00, 0x00, 0x00, 0x00, 0x00, 0x00, 0x00, 0x00,
;0x00, 0x00, 0x00, 0x00, 0x00, 0x00, 0x00, 0x00,
;0x00, 0x00, 0x00, 0x00, 0x00, 0x00, 0x00, 0x00,
;0x00, 0x00, 0x00, 0x00, 0x00, 0x00, 0x00, 0x00,
;0x00, 0x00, 0x00, 0x00, 0x00, 0x00, 0x00, 0x00,
;0x00, 0x00, 0x00, 0x00, 0x00, 0x00, 0x00, 0x00,
;0x00, 0x00, 0x00, 0x00, 0x00, 0x00, 0x00, 0x00,
;0x00, 0x00, 0x00, 0x00, 0x00, 0x00, 0x00, 0x00,
;0x00, 0x00, 0x00, 0x00, 0x00, 0x00, 0x00, 0x00,
;0x00, 0x00, 0x00, 0x00, 0x00, 0x00, 0x00, 0x00,
;0x00, 0x00, 0x00, 0x00, 0x00, 0x00, 0x00, 0x00,
;0x00, 0x00, 0x00, 0x00, 0x00, 0x00, 0x00, 0x00,
;0x00, 0x00, 0x00, 0x00, 0x00, 0x00, 0x00, 0x00,
;0x00, 0x00, 0x00, 0x00, 0x00, 0x00, 0x00, 0x00,
;0x00, 0x00, 0x00, 0x00, 0x00, 0x00, 0x00, 0x00,
;0x00, 0x00, 0x00, 0x00, 0x00, 0x00, 0xF8, 0xFF,
;0x3F, 0x00, 0x00, 0x00, 0x00, 0x00, 0x00, 0x00,
;0x00, 0x00, 0x00, 0x00, 0x00, 0x00, 0xFC, 0xFF,
;0x3F, 0x00, 0x00, 0x00, 0x00, 0x00, 0x00, 0x00,
;0x00, 0x00, 0x00, 0x00, 0x00, 0x00, 0xFC, 0xFF,
;0x3F, 0x00, 0x00, 0x00, 0x00, 0x00, 0x00, 0x00,
;0x00, 0x00, 0x00, 0x00, 0x00, 0xE0, 0xFF, 0xFF,
;0xBF, 0x07, 0x00, 0x00, 0x00, 0x00, 0x00, 0x00,
;0x00, 0x00, 0x00, 0x00, 0xE0, 0xEF, 0xFD, 0xFF,
;0xBF, 0xF7, 0x07, 0x00, 0x00, 0x00, 0x00, 0x00,
;0x00, 0x00, 0x00, 0x00, 0xE0, 0xEF, 0xFD, 0xFF,
;0xBF, 0xF7, 0x07, 0x00, 0x00, 0x00, 0x00, 0x00,
;0x00, 0x00, 0x00, 0x00, 0xE0, 0xEF, 0xFD, 0xFF,
;0xBF, 0xF7, 0x07, 0x00, 0x00, 0x00, 0x00, 0x00,
;0x00, 0x00, 0x00, 0x00, 0x00, 0xE8, 0xFD, 0xFF,
;0xBF, 0x17, 0x00, 0x00, 0x00, 0x00, 0x00, 0x00,
;0x00, 0x00, 0x00, 0x00, 0x00, 0xE0, 0xFD, 0xFF,
;0xBF, 0x07, 0x00, 0x00, 0x00, 0x00, 0x00, 0x00,
;0x00, 0x00, 0x00, 0x00, 0x00, 0x00, 0xFC, 0xFF,
;0x3F, 0x00, 0x00, 0x00, 0x00, 0x00, 0x00, 0x00,
;0x00, 0x00, 0x00, 0x00, 0x00, 0x00, 0xFC, 0xFF,
;0x3F, 0x00, 0x00, 0x00, 0x00, 0x00, 0x00, 0x00,
;0x00, 0x00, 0x00, 0x00, 0x00, 0x00, 0xFC, 0xFF,
;0x3F, 0x00, 0x00, 0x00, 0x00, 0x00, 0x00, 0x00,
;0x00, 0x00, 0x00, 0x00, 0x00, 0xE0, 0xFD, 0xFF,
;0xBF, 0x07, 0x00, 0x00, 0x00, 0x00, 0x00, 0x00,
;0x00, 0x00, 0x00, 0x00, 0x00, 0xE0, 0xFF, 0xFF,
;0xBF, 0x07, 0x00, 0x00, 0x00, 0x00, 0x00, 0x00,
;0x00, 0x00, 0x00, 0x00, 0xE0, 0xEF, 0xFD, 0xFF,
;0xBF, 0xF7, 0x07, 0x00, 0x00, 0x00, 0x00, 0x00,
;0x00, 0x00, 0x00, 0x00, 0xE0, 0xEF, 0xFD, 0xFF,
;0xBF, 0xF7, 0x07, 0x00, 0x00, 0x00, 0x00, 0x00,
;0x00, 0x00, 0x00, 0x00, 0xE0, 0xEF, 0xFD, 0xFF,
;0xBF, 0xF7, 0x07, 0x00, 0x00, 0x00, 0x00, 0x00,
;0x00, 0x00, 0x00, 0x00, 0x00, 0xE0, 0xFF, 0xFF,
;0xBF, 0x07, 0x00, 0x00, 0x00, 0x00, 0x00, 0x00,
;0x00, 0x00, 0x00, 0x00, 0x00, 0xC0, 0xFD, 0xFF,
;0xBF, 0x07, 0x00, 0x00, 0x00, 0x00, 0x00, 0x00,
;0x00, 0x00, 0x00, 0x00, 0x00, 0x00, 0xFC, 0xFF,
;0x3F, 0x00, 0x00, 0x00, 0x00, 0x00, 0x00, 0x00,
;0x00, 0x00, 0x00, 0x00, 0x00, 0x00, 0xFC, 0xFF,
;0x3F, 0x00, 0x00, 0x00, 0x00, 0x00, 0x00, 0x00,
;0x00, 0x00, 0x00, 0x00, 0x00, 0x00, 0xFC, 0xF1,
;0x3F, 0x00, 0x00, 0x00, 0x00, 0x00, 0x00, 0x00,
;0x00, 0x00, 0x00, 0x00, 0x00, 0xE0, 0x3D, 0x80,
;0x1F, 0x00, 0x00, 0x00, 0x00, 0x00, 0x00, 0x00,
;0x00, 0x00, 0x00, 0x00, 0x00, 0xE8, 0x1D, 0x0E,
;0x87, 0x1F, 0x7E, 0x00, 0x00, 0x00, 0x00, 0x00,
;0x00, 0x00, 0x00, 0x00, 0xE0, 0xEF, 0x8D, 0x3F,
;0xE2, 0x3F, 0xFF, 0x01, 0x00, 0x00, 0x00, 0x00,
;0x00, 0x00, 0x00, 0x00, 0xE0, 0xEF, 0xC5, 0xFF,
;0xF0, 0xFF, 0xFF, 0x03, 0x00, 0x00, 0x00, 0x00,
;0x00, 0x00, 0x00, 0x00, 0x00, 0xEF, 0xE3, 0xFF,
;0xF8, 0xFF, 0xFF, 0x07, 0x00, 0x00, 0x00, 0x00,
;0x00, 0x00, 0x00, 0x00, 0x00, 0xE0, 0xF3, 0xF9,
;0x78, 0xF0, 0x83, 0x07, 0x00, 0x00, 0x00, 0x00,
;0x00, 0x00, 0x00, 0x00, 0x00, 0x00, 0xF0, 0x7E,
;0x78, 0xE0, 0x81, 0x07, 0x00, 0x00, 0x00, 0x00,
;0x00, 0x00, 0x00, 0x00, 0x00, 0x00, 0x70, 0x3F,
;0x38, 0xE0, 0x01, 0x07, 0x00, 0x00, 0x00, 0x00,
;0x00, 0x00, 0x00, 0x00, 0x00, 0x00, 0xF0, 0x1F,
;0x38, 0xE0, 0x01, 0x07, 0x00, 0x00, 0x00, 0x00,
;0x00, 0x00, 0x00, 0x00, 0x00, 0x00, 0xF0, 0x67,
;0x38, 0xE0, 0x01, 0x07, 0x00, 0x00, 0x00, 0x00,
;0x00, 0x00, 0x00, 0x00, 0x00, 0xE0, 0xF3, 0xF3,
;0x38, 0xE0, 0x01, 0x07, 0x00, 0x00, 0x00, 0x00,
;0x00, 0x00, 0x00, 0x00, 0xE0, 0xEF, 0xE3, 0xFF,
;0x38, 0xE0, 0x01, 0x07, 0x00, 0x00, 0x00, 0x00,
;0x00, 0x00, 0x00, 0x00, 0xE0, 0xEF, 0xC3, 0x7F,
;0x38, 0xE0, 0x01, 0x07, 0x00, 0x00, 0x00, 0x00,
;0x00, 0x00, 0x00, 0x00, 0xE0, 0xEF, 0x83, 0x3F,
;0x38, 0xE0, 0x01, 0x07, 0x00, 0x00, 0x00, 0x00,
;0x00, 0x00, 0x00, 0x00, 0x00, 0xE0, 0x03, 0x0E,
;0x00, 0x00, 0x00, 0x00, 0x00, 0x00, 0x00, 0x00,
;0x00, 0x00, 0x00, 0x00, 0x00, 0xE0, 0x01, 0x00,
;0x00, 0x00, 0x00, 0x00, 0x00, 0x00, 0x00, 0x00,
;0x00, 0x00, 0x00, 0x00, 0x00, 0x00, 0x00, 0x00,
;0x00, 0x00, 0x00, 0x00, 0x00, 0x00, 0x00, 0x00,
;0x00, 0x00, 0x00, 0x00, 0x00, 0xF0, 0x07, 0x00,
;0x03, 0x60, 0x00, 0x00, 0x00, 0x00, 0x00, 0x00,
;0x00, 0x00, 0x00, 0x00, 0x00, 0xF0, 0x07, 0x00,
;0x03, 0x40, 0x00, 0x00, 0x00, 0x00, 0x00, 0x00,
;0x00, 0x00, 0x00, 0x00, 0x00, 0xC0, 0xF0, 0x38,
;0x9F, 0x67, 0x1E, 0x00, 0x00, 0x00, 0x00, 0x00,
;0x00, 0x00, 0x00, 0x00, 0x00, 0xC0, 0x98, 0x6D,
;0x9F, 0x6F, 0x33, 0x00, 0x00, 0x00, 0x00, 0x00,
;0x00, 0x00, 0x00, 0x00, 0x00, 0xC0, 0xF8, 0x0D,
;0xB3, 0x6D, 0x03, 0x00, 0x00, 0x00, 0x00, 0x00,
;0x00, 0x00, 0x00, 0x00, 0x00, 0xC0, 0x18, 0x6C,
;0x93, 0x6D, 0x33, 0x00, 0x00, 0x00, 0x00, 0x00,
;0x00, 0x00, 0x00, 0x00, 0x00, 0xC0, 0xF1, 0x7C,
;0xB3, 0x6D, 0x1E, 0x00, 0x00, 0x00, 0x00, 0x00,
;0x00, 0x00, 0x00, 0x00, 0x00, 0x00, 0x00, 0x00,
;0x00, 0x00, 0x00, 0x00, 0x00, 0x00, 0x00, 0x00,
;0x00, 0x00, 0x00, 0x00, 0x00, 0x00, 0x00, 0x00,
;0x00, 0x00, 0x00, 0x00, 0x00, 0x00, 0x00, 0x00,
;0x00, 0x00, 0x00, 0x00, 0x00, 0x00, 0x00, 0x00,
;0x00, 0x00, 0x00, 0x00, 0x00, 0x00, 0x00, 0x00,
;0x00, 0x00, 0x00, 0x00, 0x00, 0x00, 0x00, 0x00,
;0x00, 0x00, 0x00, 0x00, 0x00, 0x00, 0x00, 0x00,
;0x00, 0x00, 0x00, 0x00, 0x00, 0x00, 0x00, 0x00,
;0x00, 0x00, 0x00, 0x00, 0x00, 0x00, 0x00, 0x00,
;0x00, 0x00, 0x00, 0x00, 0x00, 0x00, 0x00, 0x00,
;0x00, 0x00, 0x00, 0x00, 0x00, 0x00, 0x00, 0x00,
;0x00, 0x00, 0x00, 0x00, 0x00, 0x00, 0x00, 0x00,
;0x00, 0x00, 0x00, 0x00, 0x00, 0x00, 0x00, 0x00,
;0x00, 0x00, 0x00, 0x00, 0x00, 0x00, 0x00, 0x00,
;0x00, 0x00, 0x00, 0x00, 0x00, 0x00, 0x00, 0x00,
;0x00, 0x00, 0x00, 0x00, 0x00, 0x00, 0x00, 0x00,
;0x00, 0x00, 0x00, 0x00, 0x00, 0x00, 0x00, 0x00,
;#else
;/* Image data for monochrome displays organized
;   as rows of vertical bytes */
;0x00, 0x00, 0x00, 0x00, 0x00, 0x00, 0x00, 0x00,
;0x00, 0x00, 0x00, 0x00, 0x00, 0x00, 0x00, 0x00,
;0x00, 0x00, 0x00, 0x00, 0x00, 0x00, 0x00, 0x00,
;0x00, 0x00, 0x00, 0x00, 0x00, 0x00, 0x00, 0x00,
;0x00, 0x00, 0x00, 0x00, 0x00, 0x00, 0x00, 0x00,
;0x00, 0x00, 0x00, 0x00, 0x00, 0x00, 0x00, 0x00,
;0x00, 0x00, 0x00, 0x00, 0x00, 0x00, 0x00, 0x00,
;0x00, 0x00, 0x00, 0x00, 0x00, 0x00, 0x00, 0x00,
;0x00, 0x00, 0x00, 0x00, 0x00, 0x00, 0x00, 0x00,
;0x00, 0x00, 0x00, 0x00, 0x00, 0x00, 0x00, 0x00,
;0x00, 0x00, 0x00, 0x00, 0x00, 0x00, 0x00, 0x00,
;0x00, 0x00, 0x00, 0x00, 0x00, 0x00, 0x00, 0x00,
;0x00, 0x00, 0x00, 0x00, 0x00, 0x00, 0x00, 0x00,
;0x00, 0x00, 0x00, 0x00, 0x00, 0x00, 0x00, 0x00,
;0x00, 0x00, 0x00, 0x00, 0x00, 0x00, 0x00, 0x00,
;0x00, 0x00, 0x00, 0x00, 0x00, 0x00, 0x00, 0x00,
;0x00, 0x00, 0x00, 0x00, 0x00, 0x00, 0x00, 0x00,
;0x00, 0x00, 0x00, 0x00, 0x00, 0x00, 0x00, 0x00,
;0x00, 0x00, 0x00, 0x00, 0x00, 0x00, 0x00, 0x00,
;0x00, 0x00, 0x00, 0x00, 0x00, 0x00, 0x00, 0x00,
;0x00, 0x00, 0x00, 0x00, 0x00, 0xE0, 0xE0, 0xE0,
;0xE0, 0xE0, 0xE0, 0xE0, 0x00, 0xF0, 0xF0, 0xF0,
;0xF0, 0x10, 0xFC, 0xFE, 0xFE, 0xFE, 0xFE, 0xFE,
;0xFE, 0xFE, 0xFE, 0xFE, 0xFE, 0xFE, 0xFE, 0xFE,
;0xFE, 0xFE, 0xFE, 0xFE, 0xFE, 0xFE, 0x00, 0xF0,
;0xF0, 0xF0, 0xF0, 0x00, 0xE0, 0xE0, 0xE0, 0xE0,
;0xE0, 0xE0, 0xE0, 0x00, 0x00, 0x00, 0x00, 0x00,
;0x00, 0x00, 0x00, 0x00, 0x00, 0x00, 0x00, 0x00,
;0x00, 0x00, 0x00, 0x00, 0x00, 0x00, 0x00, 0x00,
;0x00, 0x00, 0x00, 0x00, 0x00, 0x00, 0x00, 0x00,
;0x00, 0x00, 0x00, 0x00, 0x00, 0x00, 0x00, 0x00,
;0x00, 0x00, 0x00, 0x00, 0x00, 0x00, 0x00, 0x00,
;0x00, 0x00, 0x00, 0x00, 0x00, 0x00, 0x00, 0x00,
;0x00, 0x00, 0x00, 0x00, 0x00, 0x00, 0x00, 0x00,
;0x00, 0x00, 0x00, 0x00, 0x00, 0x00, 0x00, 0x00,
;0x00, 0x00, 0x00, 0x00, 0x00, 0x00, 0x00, 0x00,
;0x00, 0x00, 0x00, 0x00, 0x00, 0x80, 0x80, 0x80,
;0x80, 0x80, 0x80, 0x81, 0x00, 0xE3, 0xE3, 0xE3,
;0xE3, 0x40, 0xFF, 0xFF, 0xFF, 0xFF, 0xFF, 0xFF,
;0xFF, 0xFF, 0xFF, 0xFF, 0xFF, 0xFF, 0xFF, 0xFF,
;0xFF, 0xFF, 0xFF, 0xFF, 0xFF, 0xFF, 0x00, 0xE3,
;0xE3, 0xE3, 0xE3, 0x00, 0x81, 0x80, 0x80, 0x80,
;0x80, 0x80, 0x80, 0x00, 0x00, 0x00, 0x00, 0x00,
;0x00, 0x00, 0x00, 0x00, 0x00, 0x00, 0x00, 0x00,
;0x00, 0x00, 0x00, 0x00, 0x00, 0x00, 0x00, 0x00,
;0x00, 0x00, 0x00, 0x00, 0x00, 0x00, 0x00, 0x00,
;0x00, 0x00, 0x00, 0x00, 0x00, 0x00, 0x00, 0x00,
;0x00, 0x00, 0x00, 0x00, 0x00, 0x00, 0x00, 0x00,
;0x00, 0x00, 0x00, 0x00, 0x00, 0x00, 0x00, 0x00,
;0x00, 0x00, 0x00, 0x00, 0x00, 0x00, 0x00, 0x00,
;0x00, 0x00, 0x00, 0x00, 0x00, 0x00, 0x00, 0x00,
;0x00, 0x00, 0x00, 0x00, 0x00, 0x00, 0x00, 0x00,
;0x00, 0x00, 0x00, 0x00, 0x00, 0x03, 0x03, 0x03,
;0x03, 0x03, 0x03, 0x03, 0x00, 0x87, 0x8F, 0x8F,
;0x8F, 0x04, 0xFF, 0xFF, 0xFF, 0xFF, 0x7F, 0x7F,
;0x7F, 0x3F, 0x3F, 0x3F, 0x7F, 0x7F, 0x7F, 0xFF,
;0xFF, 0xFF, 0xFF, 0xFF, 0xFF, 0x7F, 0x00, 0x0F,
;0x0F, 0x0F, 0x0F, 0x00, 0x03, 0x03, 0x03, 0x03,
;0x03, 0x03, 0x03, 0x00, 0x00, 0x00, 0x00, 0x00,
;0x00, 0x00, 0x00, 0x00, 0x00, 0x00, 0x00, 0x00,
;0x00, 0x00, 0x00, 0x00, 0x00, 0x00, 0x00, 0x00,
;0x00, 0x00, 0x00, 0x00, 0x00, 0x00, 0x00, 0x00,
;0x00, 0x00, 0x00, 0x00, 0x00, 0x00, 0x00, 0x00,
;0x00, 0x00, 0x00, 0x00, 0x00, 0x00, 0x00, 0x00,
;0x00, 0x00, 0x00, 0x00, 0x00, 0x00, 0x00, 0x00,
;0x00, 0x00, 0x00, 0x00, 0x00, 0x00, 0x00, 0x00,
;0x00, 0x00, 0x00, 0x00, 0x00, 0x00, 0x00, 0x00,
;0x00, 0x00, 0x00, 0x00, 0x00, 0x00, 0x00, 0x00,
;0x00, 0x00, 0x00, 0x00, 0x00, 0x06, 0x06, 0x06,
;0x0E, 0x0E, 0x0E, 0x0F, 0x00, 0x1F, 0x1F, 0x1F,
;0x1F, 0x18, 0x07, 0x03, 0xF1, 0xF8, 0xFC, 0xBE,
;0xDE, 0xEF, 0xEF, 0xFF, 0xFE, 0x7E, 0x3C, 0x1C,
;0x01, 0x03, 0x01, 0xF8, 0xFC, 0xFE, 0x3E, 0x0F,
;0x0F, 0x0F, 0x0F, 0x0F, 0x1F, 0xFE, 0xFC, 0xFC,
;0xFE, 0x1F, 0x0F, 0x0F, 0x0F, 0x0F, 0x0F, 0x3E,
;0xFE, 0xFC, 0xF8, 0x00, 0x00, 0x00, 0x00, 0x00,
;0x00, 0x00, 0x00, 0x00, 0x00, 0x00, 0x00, 0x00,
;0x00, 0x00, 0x00, 0x00, 0x00, 0x00, 0x00, 0x00,
;0x00, 0x00, 0x00, 0x00, 0x00, 0x00, 0x00, 0x00,
;0x00, 0x00, 0x00, 0x00, 0x00, 0x00, 0x00, 0x00,
;0x00, 0x00, 0x00, 0x00, 0x00, 0x00, 0x00, 0x00,
;0x00, 0x00, 0x00, 0x00, 0x00, 0x00, 0x00, 0x00,
;0x00, 0x00, 0x00, 0x00, 0x00, 0x00, 0x00, 0x00,
;0x00, 0x00, 0x00, 0x00, 0x00, 0x00, 0x00, 0x00,
;0x00, 0x00, 0x00, 0x00, 0x00, 0x1C, 0x1C, 0x1C,
;0x1C, 0x1C, 0x1C, 0x1C, 0x00, 0x7E, 0x7E, 0x7E,
;0x7E, 0x3E, 0x00, 0x00, 0x03, 0x07, 0x0F, 0x1F,
;0x1F, 0x3F, 0x3D, 0x3C, 0x1E, 0x1F, 0x0F, 0x06,
;0x00, 0x00, 0x00, 0x1F, 0x1F, 0x1F, 0x00, 0x00,
;0x00, 0x00, 0x00, 0x00, 0x00, 0x1F, 0x1F, 0x1F,
;0x1F, 0x00, 0x00, 0x00, 0x00, 0x00, 0x00, 0x00,
;0x1F, 0x1F, 0x1F, 0x00, 0x00, 0x00, 0x00, 0x00,
;0x00, 0x00, 0x00, 0x00, 0x00, 0x00, 0x00, 0x00,
;0x00, 0x00, 0x00, 0x00, 0x00, 0x00, 0x00, 0x00,
;0x00, 0x00, 0x00, 0x00, 0x00, 0x00, 0x00, 0x00,
;0x00, 0x00, 0x00, 0x00, 0x00, 0x00, 0x00, 0x00,
;0x00, 0x00, 0x00, 0x00, 0x00, 0x00, 0x00, 0x00,
;0x00, 0x00, 0x00, 0x00, 0x00, 0x00, 0x00, 0x00,
;0x00, 0x00, 0x00, 0x00, 0x00, 0x00, 0x00, 0x00,
;0x00, 0x00, 0x00, 0x00, 0x00, 0x00, 0x00, 0x00,
;0x00, 0x00, 0x00, 0x00, 0x00, 0x00, 0x00, 0x00,
;0x00, 0x00, 0x00, 0x00, 0x03, 0x03, 0x7F, 0x7F,
;0x43, 0x03, 0x03, 0x38, 0x7C, 0x54, 0x54, 0x5C,
;0x18, 0x00, 0x78, 0x7C, 0x44, 0x6C, 0x68, 0x00,
;0x7F, 0x7F, 0x0C, 0x0C, 0x7C, 0x50, 0x00, 0x7C,
;0x7C, 0x0C, 0x7C, 0x78, 0x00, 0x7D, 0x7F, 0x00,
;0x38, 0x7C, 0x44, 0x44, 0x6C, 0x28, 0x00, 0x00,
;0x00, 0x00, 0x00, 0x00, 0x00, 0x00, 0x00, 0x00,
;0x00, 0x00, 0x00, 0x00, 0x00, 0x00, 0x00, 0x00,
;0x00, 0x00, 0x00, 0x00, 0x00, 0x00, 0x00, 0x00,
;0x00, 0x00, 0x00, 0x00, 0x00, 0x00, 0x00, 0x00,
;0x00, 0x00, 0x00, 0x00, 0x00, 0x00, 0x00, 0x00,
;0x00, 0x00, 0x00, 0x00, 0x00, 0x00, 0x00, 0x00,
;0x00, 0x00, 0x00, 0x00, 0x00, 0x00, 0x00, 0x00,
;0x00, 0x00, 0x00, 0x00, 0x00, 0x00, 0x00, 0x00,
;0x00, 0x00, 0x00, 0x00, 0x00, 0x00, 0x00, 0x00,
;0x00, 0x00, 0x00, 0x00, 0x00, 0x00, 0x00, 0x00,
;0x00, 0x00, 0x00, 0x00, 0x00, 0x00, 0x00, 0x00,
;0x00, 0x00, 0x00, 0x00, 0x00, 0x00, 0x00, 0x00,
;0x00, 0x00, 0x00, 0x00, 0x00, 0x00, 0x00, 0x00,
;0x00, 0x00, 0x00, 0x00, 0x00, 0x00, 0x00, 0x00,
;0x00, 0x00, 0x00, 0x00, 0x00, 0x00, 0x00, 0x00,
;0x00, 0x00, 0x00, 0x00, 0x00, 0x00, 0x00, 0x00,
;0x00, 0x00, 0x00, 0x00, 0x00, 0x00, 0x00, 0x00,
;0x00, 0x00, 0x00, 0x00, 0x00, 0x00, 0x00, 0x00,
;0x00, 0x00, 0x00, 0x00, 0x00, 0x00, 0x00, 0x00,
;0x00, 0x00, 0x00, 0x00, 0x00, 0x00, 0x00, 0x00,
;0x00, 0x00, 0x00, 0x00, 0x00, 0x00, 0x00, 0x00,
;#endif
;};
;
;    #include "snow.c"
;/****************************************************************************
;Image data created by the LCD Vision V1.05 font & image editor/converter
;(C) Copyright 2011-2013 Pavel Haiduc, HP InfoTech s.r.l.
;http://www.hpinfotech.com
;
;Graphic LCD controller: ST7920 128x64 4bit Bus /RST PSB=1
;Image width: 128 pixels
;Image height: 64 pixels
;Color depth: 1 bits/pixel
;Imported image file name: snow.bmp
;
;Exported monochrome image data size:
;1028 bytes for displays organized as horizontal rows of bytes
;1028 bytes for displays organized as rows of vertical bytes.
;****************************************************************************/
;
;flash unsigned char snow[]=
;{
;/* Image width: 128 pixels */
;0x80, 0x00,
;/* Image height: 64 pixels */
;0x40, 0x00,
;#ifndef _GLCD_DATA_BYTEY_
;/* Image data for monochrome displays organized
;   as horizontal rows of bytes */
;0x00, 0x00, 0x00, 0x00, 0x00, 0x00, 0x00, 0x00,
;0x00, 0x00, 0x00, 0x00, 0x00, 0x00, 0x00, 0x00,
;0x00, 0x00, 0x00, 0x00, 0x00, 0x00, 0x00, 0x00,
;0x00, 0x00, 0x00, 0x00, 0x00, 0x00, 0x00, 0x00,
;0x00, 0x00, 0x00, 0x00, 0x00, 0x00, 0x00, 0x00,
;0x00, 0x00, 0x00, 0x00, 0x00, 0x00, 0x00, 0x00,
;0x00, 0x00, 0x00, 0x00, 0x00, 0x00, 0x00, 0x00,
;0x00, 0x00, 0x00, 0x00, 0x00, 0x00, 0x00, 0x00,
;0x00, 0x00, 0x00, 0x00, 0x00, 0x00, 0x00, 0x00,
;0x00, 0x00, 0x00, 0x00, 0x00, 0x00, 0x00, 0x00,
;0x00, 0x00, 0x00, 0x00, 0x00, 0x00, 0x00, 0x00,
;0x00, 0x00, 0x00, 0x00, 0x00, 0x00, 0x00, 0x00,
;0x00, 0x00, 0x00, 0x00, 0x00, 0x00, 0x00, 0x80,
;0x0F, 0x00, 0x00, 0x00, 0x00, 0x00, 0x00, 0x00,
;0x00, 0x00, 0x00, 0x00, 0x00, 0x00, 0x00, 0x80,
;0x0F, 0x00, 0x00, 0x00, 0x00, 0x00, 0x00, 0x00,
;0x00, 0x00, 0x00, 0x00, 0x00, 0x00, 0x00, 0x80,
;0x0F, 0x00, 0x00, 0x00, 0x00, 0x00, 0x00, 0x00,
;0x00, 0x00, 0x00, 0x00, 0x00, 0x00, 0x00, 0x86,
;0x0F, 0x03, 0x00, 0x00, 0x00, 0x00, 0x00, 0x00,
;0x00, 0x00, 0x00, 0x00, 0x00, 0x00, 0x00, 0x8F,
;0x8F, 0x07, 0x00, 0x00, 0x00, 0x00, 0x00, 0x00,
;0x00, 0x00, 0x00, 0x00, 0x00, 0x00, 0x80, 0xBF,
;0xEF, 0x0F, 0x00, 0x00, 0x00, 0x00, 0x00, 0x00,
;0x00, 0x00, 0x00, 0x00, 0x00, 0x00, 0x00, 0xFF,
;0xFF, 0x07, 0x00, 0x00, 0x00, 0x00, 0x00, 0x00,
;0x00, 0x00, 0x00, 0x00, 0x00, 0x00, 0x04, 0xFE,
;0xFF, 0x03, 0x00, 0x00, 0x00, 0x00, 0x00, 0x00,
;0x00, 0x00, 0x00, 0x00, 0x00, 0xC0, 0x07, 0xFC,
;0xFF, 0x01, 0x1F, 0x00, 0x00, 0x00, 0x00, 0x00,
;0x00, 0x00, 0x00, 0x00, 0x00, 0xC0, 0x07, 0xF8,
;0xFF, 0x00, 0x1F, 0x00, 0x00, 0x00, 0x00, 0x00,
;0x00, 0x00, 0x00, 0x00, 0x00, 0xC0, 0x0F, 0xE0,
;0x3F, 0x80, 0x1F, 0x00, 0x00, 0x00, 0x00, 0x00,
;0x00, 0x00, 0x00, 0x00, 0x00, 0x83, 0x0F, 0xC0,
;0x1F, 0x80, 0x0F, 0x06, 0x00, 0x00, 0x00, 0x00,
;0x00, 0x00, 0x00, 0x00, 0x00, 0x9F, 0x0F, 0x80,
;0x0F, 0x80, 0xCF, 0x07, 0x00, 0x00, 0x00, 0x00,
;0x00, 0x00, 0x00, 0x00, 0x80, 0xFF, 0x1F, 0x80,
;0x0F, 0x80, 0xFF, 0x0F, 0x00, 0x00, 0x00, 0x00,
;0x00, 0x00, 0x00, 0x00, 0x80, 0xFF, 0x1F, 0x80,
;0x0F, 0xC0, 0xFF, 0x0F, 0x00, 0x00, 0x00, 0x00,
;0x00, 0x00, 0x00, 0x00, 0x00, 0xFE, 0x1F, 0x80,
;0x0F, 0xC0, 0xFF, 0x03, 0x00, 0x00, 0x00, 0x00,
;0x00, 0x00, 0x00, 0x00, 0x00, 0xF8, 0x1F, 0x80,
;0x0F, 0xC0, 0xFF, 0x00, 0x00, 0x00, 0x00, 0x00,
;0x00, 0x00, 0x00, 0x00, 0x00, 0xF0, 0x7F, 0x80,
;0x0F, 0xF0, 0x7F, 0x00, 0x00, 0x00, 0x00, 0x00,
;0x00, 0x00, 0x00, 0x00, 0x00, 0xFE, 0xFF, 0x81,
;0x0F, 0xFC, 0xFF, 0x03, 0x00, 0x00, 0x00, 0x00,
;0x00, 0x00, 0x00, 0x00, 0xC0, 0xFF, 0xFF, 0x87,
;0x0F, 0xFF, 0xFF, 0x1F, 0x00, 0x00, 0x00, 0x00,
;0x00, 0x00, 0x00, 0x00, 0x80, 0xFF, 0xF3, 0xBF,
;0xEF, 0x7F, 0xFE, 0x0F, 0x00, 0x00, 0x00, 0x00,
;0x00, 0x00, 0x00, 0x00, 0x80, 0x3F, 0xC0, 0xFF,
;0xFF, 0x1F, 0xE0, 0x0F, 0x00, 0x00, 0x00, 0x00,
;0x00, 0x00, 0x00, 0x00, 0x80, 0x03, 0x00, 0xFF,
;0xFF, 0x07, 0x00, 0x0E, 0x00, 0x00, 0x00, 0x00,
;0x00, 0x00, 0x00, 0x00, 0x00, 0x00, 0x00, 0xFC,
;0xFF, 0x01, 0x00, 0x00, 0x00, 0x00, 0x00, 0x00,
;0x00, 0x00, 0x00, 0x00, 0x00, 0x00, 0x00, 0xF0,
;0x7F, 0x00, 0x00, 0x00, 0x00, 0x00, 0x00, 0x00,
;0x00, 0x00, 0x00, 0x00, 0x00, 0x00, 0x00, 0xF8,
;0xFF, 0x00, 0x00, 0x00, 0x00, 0x00, 0x00, 0x00,
;0x00, 0x00, 0x00, 0x00, 0x00, 0x00, 0x00, 0xFE,
;0xFF, 0x03, 0x00, 0x00, 0x00, 0x00, 0x00, 0x00,
;0x00, 0x00, 0x00, 0x00, 0x80, 0x0F, 0x80, 0xFF,
;0xFF, 0x1F, 0x80, 0x0F, 0x00, 0x00, 0x00, 0x00,
;0x00, 0x00, 0x00, 0x00, 0x80, 0xFF, 0xF0, 0xBF,
;0xEF, 0x7F, 0xF8, 0x0F, 0x00, 0x00, 0x00, 0x00,
;0x00, 0x00, 0x00, 0x00, 0xC0, 0xFF, 0xFF, 0x8F,
;0x8F, 0xFF, 0xFF, 0x1F, 0x00, 0x00, 0x00, 0x00,
;0x00, 0x00, 0x00, 0x00, 0x80, 0xFF, 0xFF, 0x83,
;0x0F, 0xFE, 0xFF, 0x0F, 0x00, 0x00, 0x00, 0x00,
;0x00, 0x00, 0x00, 0x00, 0x00, 0xF8, 0xFF, 0x80,
;0x0F, 0xF8, 0xFF, 0x00, 0x00, 0x00, 0x00, 0x00,
;0x00, 0x00, 0x00, 0x00, 0x00, 0xF0, 0x3F, 0x80,
;0x0F, 0xE0, 0x7F, 0x00, 0x00, 0x00, 0x00, 0x00,
;0x00, 0x00, 0x00, 0x00, 0x00, 0xFC, 0x1F, 0x80,
;0x0F, 0xC0, 0xFF, 0x01, 0x00, 0x00, 0x00, 0x00,
;0x00, 0x00, 0x00, 0x00, 0x00, 0xFF, 0x1F, 0x80,
;0x0F, 0xC0, 0xFF, 0x07, 0x00, 0x00, 0x00, 0x00,
;0x00, 0x00, 0x00, 0x00, 0x80, 0xFF, 0x1F, 0x80,
;0x0F, 0xC0, 0xFF, 0x0F, 0x00, 0x00, 0x00, 0x00,
;0x00, 0x00, 0x00, 0x00, 0x80, 0x9F, 0x0F, 0x80,
;0x0F, 0x80, 0xCF, 0x0F, 0x00, 0x00, 0x00, 0x00,
;0x00, 0x00, 0x00, 0x00, 0x00, 0x87, 0x0F, 0x80,
;0x0F, 0x80, 0x0F, 0x07, 0x00, 0x00, 0x00, 0x00,
;0x00, 0x00, 0x00, 0x00, 0x00, 0x80, 0x0F, 0xE0,
;0x3F, 0x80, 0x0F, 0x00, 0x00, 0x00, 0x00, 0x00,
;0x00, 0x00, 0x00, 0x00, 0x00, 0xC0, 0x07, 0xF0,
;0x7F, 0x00, 0x1F, 0x00, 0x00, 0x00, 0x00, 0x00,
;0x00, 0x00, 0x00, 0x00, 0x00, 0xC0, 0x07, 0xF8,
;0xFF, 0x00, 0x1F, 0x00, 0x00, 0x00, 0x00, 0x00,
;0x00, 0x00, 0x00, 0x00, 0x00, 0x00, 0x07, 0xFE,
;0xFF, 0x03, 0x07, 0x00, 0x00, 0x00, 0x00, 0x00,
;0x00, 0x00, 0x00, 0x00, 0x00, 0x00, 0x00, 0xFF,
;0xFF, 0x07, 0x00, 0x00, 0x00, 0x00, 0x00, 0x00,
;0x00, 0x00, 0x00, 0x00, 0x00, 0x00, 0x80, 0xBF,
;0xEF, 0x0F, 0x00, 0x00, 0x00, 0x00, 0x00, 0x00,
;0x00, 0x00, 0x00, 0x00, 0x00, 0x00, 0x80, 0x9F,
;0xCF, 0x0F, 0x00, 0x00, 0x00, 0x00, 0x00, 0x00,
;0x00, 0x00, 0x00, 0x00, 0x00, 0x00, 0x00, 0x8F,
;0x8F, 0x07, 0x00, 0x00, 0x00, 0x00, 0x00, 0x00,
;0x00, 0x00, 0x00, 0x00, 0x00, 0x00, 0x00, 0x82,
;0x0F, 0x02, 0x00, 0x00, 0x00, 0x00, 0x00, 0x00,
;0x00, 0x00, 0x00, 0x00, 0x00, 0x00, 0x00, 0x80,
;0x0F, 0x00, 0x00, 0x00, 0x00, 0x00, 0x00, 0x00,
;0x00, 0x00, 0x00, 0x00, 0x00, 0x00, 0x00, 0x80,
;0x0F, 0x00, 0x00, 0x00, 0x00, 0x00, 0x00, 0x00,
;0x00, 0x00, 0x00, 0x00, 0x00, 0x00, 0x00, 0x00,
;0x00, 0x00, 0x00, 0x00, 0x00, 0x00, 0x00, 0x00,
;0x00, 0x00, 0x00, 0x00, 0x00, 0x00, 0x00, 0x00,
;0x00, 0x00, 0x00, 0x00, 0x00, 0x00, 0x00, 0x00,
;0x00, 0x00, 0x00, 0x00, 0x00, 0x00, 0x00, 0x00,
;0x00, 0x00, 0x00, 0x00, 0x00, 0x00, 0x00, 0x00,
;0x00, 0x00, 0x00, 0x00, 0x00, 0x00, 0x00, 0x00,
;0x00, 0x00, 0x00, 0x00, 0x00, 0x00, 0x00, 0x00,
;0x00, 0x00, 0x00, 0x00, 0x00, 0x00, 0x00, 0x00,
;0x00, 0x00, 0x00, 0x00, 0x00, 0x00, 0x00, 0x00,
;0x00, 0x00, 0x00, 0x00, 0x00, 0x00, 0x00, 0x00,
;0x00, 0x00, 0x00, 0x00, 0x00, 0x00, 0x00, 0x00,
;0x00, 0x00, 0x00, 0x00, 0x00, 0x00, 0x00, 0x00,
;0x00, 0x00, 0x00, 0x00, 0x00, 0x00, 0x00, 0x00,
;0x00, 0x00, 0x00, 0x00, 0x00, 0x00, 0x00, 0x00,
;0x00, 0x00, 0x00, 0x00, 0x00, 0x00, 0x00, 0x00,
;0x00, 0x00, 0x00, 0x00, 0x00, 0x00, 0x00, 0x00,
;0x00, 0x00, 0x00, 0x00, 0x00, 0x00, 0x00, 0x00,
;#else
;/* Image data for monochrome displays organized
;   as rows of vertical bytes */
;0x00, 0x00, 0x00, 0x00, 0x00, 0x00, 0x00, 0x00,
;0x00, 0x00, 0x00, 0x00, 0x00, 0x00, 0x00, 0x00,
;0x00, 0x00, 0x00, 0x00, 0x00, 0x00, 0x00, 0x00,
;0x00, 0x00, 0x00, 0x00, 0x00, 0x00, 0x00, 0x00,
;0x00, 0x00, 0x00, 0x00, 0x00, 0x00, 0x00, 0x00,
;0x00, 0x00, 0x00, 0x00, 0x00, 0x00, 0x00, 0x00,
;0x00, 0x00, 0x00, 0x00, 0x00, 0x00, 0x00, 0x00,
;0x00, 0x00, 0x00, 0x00, 0x00, 0x00, 0x00, 0xC0,
;0xC0, 0xC0, 0xC0, 0xC0, 0x00, 0x00, 0x00, 0x00,
;0x00, 0x00, 0x00, 0x00, 0x00, 0x00, 0x00, 0x00,
;0x00, 0x00, 0x00, 0x00, 0x00, 0x00, 0x00, 0x00,
;0x00, 0x00, 0x00, 0x00, 0x00, 0x00, 0x00, 0x00,
;0x00, 0x00, 0x00, 0x00, 0x00, 0x00, 0x00, 0x00,
;0x00, 0x00, 0x00, 0x00, 0x00, 0x00, 0x00, 0x00,
;0x00, 0x00, 0x00, 0x00, 0x00, 0x00, 0x00, 0x00,
;0x00, 0x00, 0x00, 0x00, 0x00, 0x00, 0x00, 0x00,
;0x00, 0x00, 0x00, 0x00, 0x00, 0x00, 0x00, 0x00,
;0x00, 0x00, 0x00, 0x00, 0x00, 0x00, 0x00, 0x00,
;0x00, 0x00, 0x00, 0x00, 0x00, 0x00, 0x00, 0x00,
;0x00, 0x00, 0x00, 0x00, 0x00, 0x00, 0x00, 0x00,
;0x00, 0x00, 0x00, 0x00, 0x00, 0x00, 0x00, 0x00,
;0x00, 0x00, 0x00, 0x00, 0x00, 0x00, 0xC0, 0xC0,
;0xC0, 0xC0, 0xE0, 0x00, 0x00, 0x00, 0x00, 0x08,
;0x1C, 0x3E, 0x7E, 0xFC, 0xF8, 0xF8, 0xF0, 0xFF,
;0xFF, 0xFF, 0xFF, 0xFF, 0xF0, 0xF8, 0xF8, 0xFC,
;0x7E, 0x3E, 0x1C, 0x08, 0x00, 0x00, 0x00, 0x00,
;0xC0, 0xC0, 0xC0, 0xC0, 0xC0, 0x00, 0x00, 0x00,
;0x00, 0x00, 0x00, 0x00, 0x00, 0x00, 0x00, 0x00,
;0x00, 0x00, 0x00, 0x00, 0x00, 0x00, 0x00, 0x00,
;0x00, 0x00, 0x00, 0x00, 0x00, 0x00, 0x00, 0x00,
;0x00, 0x00, 0x00, 0x00, 0x00, 0x00, 0x00, 0x00,
;0x00, 0x00, 0x00, 0x00, 0x00, 0x00, 0x00, 0x00,
;0x00, 0x00, 0x00, 0x00, 0x00, 0x00, 0x00, 0x00,
;0x00, 0x00, 0x00, 0x00, 0x00, 0x00, 0x00, 0x00,
;0x00, 0x00, 0x00, 0x00, 0x00, 0x00, 0x00, 0x00,
;0x00, 0x00, 0x00, 0x00, 0x00, 0x00, 0x00, 0x00,
;0x00, 0x00, 0x00, 0x00, 0x00, 0x00, 0x00, 0x18,
;0x1E, 0x3E, 0x3C, 0x7C, 0xFC, 0xF8, 0xF9, 0xFF,
;0xFF, 0xFF, 0xFF, 0xFF, 0xF8, 0x80, 0x80, 0x00,
;0x00, 0x00, 0x00, 0x00, 0x00, 0x01, 0x03, 0xFF,
;0xFF, 0xFF, 0xFF, 0xFF, 0x03, 0x01, 0x00, 0x00,
;0x00, 0x00, 0x00, 0x00, 0x80, 0x80, 0xF0, 0xFF,
;0xFF, 0xFF, 0xFF, 0xFF, 0xF9, 0xF8, 0xFC, 0x7C,
;0x3C, 0x3E, 0x1E, 0x18, 0x00, 0x00, 0x00, 0x00,
;0x00, 0x00, 0x00, 0x00, 0x00, 0x00, 0x00, 0x00,
;0x00, 0x00, 0x00, 0x00, 0x00, 0x00, 0x00, 0x00,
;0x00, 0x00, 0x00, 0x00, 0x00, 0x00, 0x00, 0x00,
;0x00, 0x00, 0x00, 0x00, 0x00, 0x00, 0x00, 0x00,
;0x00, 0x00, 0x00, 0x00, 0x00, 0x00, 0x00, 0x00,
;0x00, 0x00, 0x00, 0x00, 0x00, 0x00, 0x00, 0x00,
;0x00, 0x00, 0x00, 0x00, 0x00, 0x00, 0x00, 0x00,
;0x00, 0x00, 0x00, 0x00, 0x00, 0x00, 0x00, 0x00,
;0x00, 0x00, 0x00, 0x00, 0x00, 0x00, 0x02, 0x1E,
;0x1E, 0x1F, 0x0F, 0x0F, 0x0F, 0x0F, 0x07, 0x07,
;0x07, 0x07, 0x03, 0x03, 0x07, 0x07, 0x0F, 0x0F,
;0x1F, 0x1E, 0x3E, 0xBC, 0xFC, 0xFC, 0xF8, 0xFF,
;0xFF, 0xFF, 0xFF, 0xFF, 0xF8, 0xFC, 0xFC, 0xBC,
;0x3E, 0x1E, 0x1F, 0x0F, 0x0F, 0x07, 0x07, 0x03,
;0x03, 0x07, 0x07, 0x07, 0x07, 0x0F, 0x0F, 0x0F,
;0x0F, 0x1F, 0x1E, 0x1E, 0x02, 0x00, 0x00, 0x00,
;0x00, 0x00, 0x00, 0x00, 0x00, 0x00, 0x00, 0x00,
;0x00, 0x00, 0x00, 0x00, 0x00, 0x00, 0x00, 0x00,
;0x00, 0x00, 0x00, 0x00, 0x00, 0x00, 0x00, 0x00,
;0x00, 0x00, 0x00, 0x00, 0x00, 0x00, 0x00, 0x00,
;0x00, 0x00, 0x00, 0x00, 0x00, 0x00, 0x00, 0x00,
;0x00, 0x00, 0x00, 0x00, 0x00, 0x00, 0x00, 0x00,
;0x00, 0x00, 0x00, 0x00, 0x00, 0x00, 0x00, 0x00,
;0x00, 0x00, 0x00, 0x00, 0x00, 0x00, 0x00, 0x00,
;0x00, 0x00, 0x00, 0x00, 0x00, 0x00, 0x08, 0x1E,
;0x1E, 0x1E, 0x9E, 0xBE, 0xFC, 0xFC, 0xFC, 0xFC,
;0xF8, 0xF8, 0xF8, 0xF8, 0xFC, 0x7C, 0x3C, 0x3E,
;0x1E, 0x1F, 0x0F, 0x0F, 0x07, 0x07, 0x03, 0xFF,
;0xFF, 0xFF, 0xFF, 0xFF, 0x03, 0x07, 0x07, 0x0F,
;0x0F, 0x1F, 0x1E, 0x3E, 0x3E, 0x7C, 0xFC, 0xF8,
;0xF8, 0xF8, 0xF8, 0xFC, 0xFC, 0xFC, 0xFC, 0xBE,
;0x9E, 0x1E, 0x1E, 0x1E, 0x08, 0x00, 0x00, 0x00,
;0x00, 0x00, 0x00, 0x00, 0x00, 0x00, 0x00, 0x00,
;0x00, 0x00, 0x00, 0x00, 0x00, 0x00, 0x00, 0x00,
;0x00, 0x00, 0x00, 0x00, 0x00, 0x00, 0x00, 0x00,
;0x00, 0x00, 0x00, 0x00, 0x00, 0x00, 0x00, 0x00,
;0x00, 0x00, 0x00, 0x00, 0x00, 0x00, 0x00, 0x00,
;0x00, 0x00, 0x00, 0x00, 0x00, 0x00, 0x00, 0x00,
;0x00, 0x00, 0x00, 0x00, 0x00, 0x00, 0x00, 0x00,
;0x00, 0x00, 0x00, 0x00, 0x00, 0x00, 0x00, 0x00,
;0x00, 0x00, 0x00, 0x00, 0x00, 0x00, 0x00, 0x06,
;0x0F, 0x0F, 0x0F, 0x07, 0x07, 0x03, 0x63, 0x7F,
;0xFF, 0xFF, 0xFF, 0x1F, 0x03, 0x00, 0x00, 0x00,
;0x00, 0x80, 0x80, 0xC0, 0xE0, 0xF0, 0xF0, 0xFF,
;0xFF, 0xFF, 0xFF, 0xFF, 0xF0, 0xF0, 0xE0, 0xC0,
;0x80, 0x80, 0x00, 0x00, 0x00, 0x00, 0x03, 0x1F,
;0xFF, 0xFF, 0xFF, 0x7F, 0x63, 0x03, 0x07, 0x07,
;0x0F, 0x0F, 0x0F, 0x06, 0x00, 0x00, 0x00, 0x00,
;0x00, 0x00, 0x00, 0x00, 0x00, 0x00, 0x00, 0x00,
;0x00, 0x00, 0x00, 0x00, 0x00, 0x00, 0x00, 0x00,
;0x00, 0x00, 0x00, 0x00, 0x00, 0x00, 0x00, 0x00,
;0x00, 0x00, 0x00, 0x00, 0x00, 0x00, 0x00, 0x00,
;0x00, 0x00, 0x00, 0x00, 0x00, 0x00, 0x00, 0x00,
;0x00, 0x00, 0x00, 0x00, 0x00, 0x00, 0x00, 0x00,
;0x00, 0x00, 0x00, 0x00, 0x00, 0x00, 0x00, 0x00,
;0x00, 0x00, 0x00, 0x00, 0x00, 0x00, 0x00, 0x00,
;0x00, 0x00, 0x00, 0x00, 0x00, 0x00, 0x00, 0x00,
;0x00, 0x00, 0x00, 0x00, 0x00, 0x00, 0x00, 0x00,
;0x00, 0x00, 0x00, 0x00, 0x00, 0x00, 0x00, 0x06,
;0x0F, 0x1F, 0x0F, 0x0F, 0x07, 0x03, 0x01, 0x7F,
;0x7F, 0x7F, 0x7F, 0x7F, 0x01, 0x03, 0x07, 0x0F,
;0x0F, 0x1F, 0x0F, 0x06, 0x00, 0x00, 0x00, 0x00,
;0x00, 0x00, 0x00, 0x00, 0x00, 0x00, 0x00, 0x00,
;0x00, 0x00, 0x00, 0x00, 0x00, 0x00, 0x00, 0x00,
;0x00, 0x00, 0x00, 0x00, 0x00, 0x00, 0x00, 0x00,
;0x00, 0x00, 0x00, 0x00, 0x00, 0x00, 0x00, 0x00,
;0x00, 0x00, 0x00, 0x00, 0x00, 0x00, 0x00, 0x00,
;0x00, 0x00, 0x00, 0x00, 0x00, 0x00, 0x00, 0x00,
;0x00, 0x00, 0x00, 0x00, 0x00, 0x00, 0x00, 0x00,
;0x00, 0x00, 0x00, 0x00, 0x00, 0x00, 0x00, 0x00,
;0x00, 0x00, 0x00, 0x00, 0x00, 0x00, 0x00, 0x00,
;0x00, 0x00, 0x00, 0x00, 0x00, 0x00, 0x00, 0x00,
;0x00, 0x00, 0x00, 0x00, 0x00, 0x00, 0x00, 0x00,
;0x00, 0x00, 0x00, 0x00, 0x00, 0x00, 0x00, 0x00,
;0x00, 0x00, 0x00, 0x00, 0x00, 0x00, 0x00, 0x00,
;0x00, 0x00, 0x00, 0x00, 0x00, 0x00, 0x00, 0x00,
;0x00, 0x00, 0x00, 0x00, 0x00, 0x00, 0x00, 0x00,
;0x00, 0x00, 0x00, 0x00, 0x00, 0x00, 0x00, 0x00,
;0x00, 0x00, 0x00, 0x00, 0x00, 0x00, 0x00, 0x00,
;0x00, 0x00, 0x00, 0x00, 0x00, 0x00, 0x00, 0x00,
;0x00, 0x00, 0x00, 0x00, 0x00, 0x00, 0x00, 0x00,
;0x00, 0x00, 0x00, 0x00, 0x00, 0x00, 0x00, 0x00,
;0x00, 0x00, 0x00, 0x00, 0x00, 0x00, 0x00, 0x00,
;0x00, 0x00, 0x00, 0x00, 0x00, 0x00, 0x00, 0x00,
;#endif
;};
;
;    #include "settingicon2.c"
;/****************************************************************************
;Image data created by the LCD Vision V1.05 font & image editor/converter
;(C) Copyright 2011-2013 Pavel Haiduc, HP InfoTech s.r.l.
;http://www.hpinfotech.com
;
;Graphic LCD controller: ST7920 128x64 4bit Bus /RST PSB=1
;Image width: 128 pixels
;Image height: 64 pixels
;Color depth: 1 bits/pixel
;Imported image file name: settingicon2.bmp
;
;Exported monochrome image data size:
;1028 bytes for displays organized as horizontal rows of bytes
;1028 bytes for displays organized as rows of vertical bytes.
;****************************************************************************/
;
;flash unsigned char settingicon2[]=
;{
;/* Image width: 128 pixels */
;0x80, 0x00,
;/* Image height: 64 pixels */
;0x40, 0x00,
;#ifndef _GLCD_DATA_BYTEY_
;/* Image data for monochrome displays organized
;   as horizontal rows of bytes */
;0x00, 0x00, 0x00, 0x00, 0x00, 0x00, 0x00, 0x00,
;0x00, 0x00, 0x00, 0x00, 0x00, 0x00, 0x00, 0x00,
;0x00, 0x00, 0x00, 0x00, 0x00, 0x00, 0x00, 0x00,
;0x00, 0x00, 0x00, 0x00, 0x00, 0x00, 0x00, 0x00,
;0x00, 0x00, 0x00, 0x00, 0x00, 0x00, 0x00, 0x00,
;0x00, 0x00, 0x00, 0x00, 0x00, 0x00, 0x00, 0x00,
;0x00, 0x00, 0x00, 0x00, 0x00, 0x00, 0x00, 0x00,
;0x00, 0x00, 0x00, 0x00, 0x00, 0x00, 0x00, 0x00,
;0x00, 0x00, 0x00, 0x00, 0x00, 0x00, 0x00, 0x00,
;0x00, 0x00, 0x00, 0x00, 0x00, 0x00, 0x00, 0x00,
;0x00, 0x00, 0x00, 0x00, 0x00, 0x00, 0x00, 0x00,
;0x00, 0x00, 0x00, 0x00, 0x00, 0x00, 0x00, 0x00,
;0x00, 0x00, 0x00, 0x00, 0x00, 0x00, 0x00, 0x00,
;0x00, 0x00, 0x00, 0x00, 0x00, 0x00, 0x00, 0x00,
;0x00, 0x00, 0x00, 0x00, 0x00, 0x00, 0x00, 0x00,
;0x00, 0x00, 0x00, 0x00, 0x00, 0x00, 0x00, 0x00,
;0x00, 0x00, 0x00, 0x00, 0x00, 0x00, 0x00, 0x00,
;0x00, 0x00, 0x00, 0x00, 0x00, 0x00, 0x00, 0x00,
;0x00, 0x00, 0x00, 0x00, 0x00, 0x00, 0x00, 0x00,
;0x00, 0x00, 0x00, 0x00, 0x00, 0x00, 0x00, 0x00,
;0x00, 0x00, 0x00, 0x00, 0x00, 0x00, 0x00, 0x00,
;0x00, 0x00, 0x00, 0x00, 0x00, 0x00, 0x00, 0x00,
;0x00, 0x00, 0x00, 0x00, 0x00, 0x00, 0x00, 0x00,
;0x00, 0x00, 0x00, 0x00, 0x00, 0x00, 0x00, 0x00,
;0x00, 0x00, 0x00, 0x00, 0x00, 0x00, 0x00, 0x00,
;0x00, 0x00, 0x00, 0x00, 0x00, 0x00, 0x00, 0x00,
;0x00, 0x00, 0x00, 0x00, 0x00, 0x00, 0x00, 0xFC,
;0x03, 0x00, 0x00, 0x00, 0x00, 0x00, 0x00, 0x00,
;0x00, 0x00, 0x00, 0x00, 0x00, 0x00, 0x00, 0xFE,
;0x0F, 0x00, 0x00, 0x00, 0x00, 0x00, 0x00, 0x00,
;0x00, 0x00, 0x00, 0x00, 0x00, 0x00, 0x00, 0xFF,
;0x0F, 0x00, 0x00, 0x00, 0x00, 0x00, 0x00, 0x00,
;0x00, 0x00, 0x00, 0x00, 0x00, 0x00, 0x07, 0xFF,
;0x0F, 0x0E, 0x00, 0x00, 0x00, 0x00, 0x00, 0x00,
;0x00, 0x00, 0x00, 0x00, 0x00, 0xC0, 0xDF, 0xFF,
;0x3F, 0x3F, 0x00, 0x00, 0x00, 0x00, 0x00, 0x00,
;0x00, 0x00, 0x00, 0x00, 0x00, 0xE0, 0xFF, 0xFF,
;0xFF, 0x7F, 0x00, 0x00, 0x00, 0x00, 0x00, 0x00,
;0x00, 0x00, 0x00, 0x00, 0x00, 0xF0, 0xFF, 0xFF,
;0xFF, 0xFF, 0x01, 0x00, 0x00, 0x00, 0x00, 0x00,
;0x00, 0x00, 0x00, 0x00, 0x00, 0xF8, 0xFF, 0xFF,
;0xFF, 0xFF, 0x01, 0x00, 0x00, 0x00, 0x00, 0x00,
;0x00, 0x00, 0x00, 0x00, 0x00, 0xF8, 0xFF, 0xFF,
;0xFF, 0xFF, 0x01, 0x00, 0x00, 0x00, 0x00, 0x00,
;0x00, 0x00, 0x00, 0x00, 0x00, 0xF8, 0xFF, 0xFF,
;0xFF, 0xFF, 0x01, 0x00, 0x00, 0x00, 0x00, 0x00,
;0x00, 0x00, 0x00, 0x00, 0x00, 0xF0, 0xFF, 0x03,
;0xFC, 0xFF, 0x00, 0x00, 0x00, 0x00, 0x00, 0x00,
;0x00, 0x00, 0x00, 0x00, 0x00, 0xE0, 0xFF, 0x00,
;0xE0, 0xFF, 0x00, 0x00, 0x00, 0x00, 0x00, 0x00,
;0x00, 0x00, 0x00, 0x00, 0x00, 0xF0, 0x7F, 0x00,
;0xC0, 0xFF, 0x00, 0x00, 0x00, 0x00, 0x00, 0x00,
;0x00, 0x00, 0x00, 0x00, 0x00, 0xFC, 0x1F, 0x00,
;0x80, 0xFF, 0x07, 0x00, 0x00, 0x00, 0x00, 0x00,
;0x00, 0x00, 0x00, 0x00, 0x00, 0xFF, 0x1F, 0x00,
;0x00, 0xFF, 0x0F, 0x00, 0x00, 0x00, 0x00, 0x00,
;0x00, 0x00, 0x00, 0x00, 0x80, 0xFF, 0x0F, 0x00,
;0x00, 0xFF, 0x80, 0x01, 0x00, 0x00, 0x00, 0x00,
;0x00, 0x00, 0x00, 0x00, 0x80, 0xFF, 0x0F, 0x00,
;0x00, 0x3E, 0xFC, 0x03, 0x00, 0x00, 0x00, 0x00,
;0x00, 0x00, 0x00, 0x00, 0x80, 0xFF, 0x0F, 0x00,
;0x00, 0x3E, 0xFF, 0x01, 0x00, 0x00, 0x00, 0x00,
;0x00, 0x00, 0x00, 0x00, 0x80, 0xFF, 0x0F, 0x00,
;0x00, 0x1E, 0xFF, 0x00, 0x00, 0x00, 0x00, 0x00,
;0x00, 0x00, 0x00, 0x00, 0x80, 0xFF, 0x0F, 0x00,
;0x00, 0x1E, 0x7F, 0x60, 0x00, 0x00, 0x00, 0x00,
;0x00, 0x00, 0x00, 0x00, 0x80, 0xFF, 0x0F, 0x00,
;0x00, 0x9F, 0x7F, 0x70, 0x00, 0x00, 0x00, 0x00,
;0x00, 0x00, 0x00, 0x00, 0x00, 0xFF, 0x1F, 0x00,
;0x00, 0x8F, 0xFF, 0x7C, 0x00, 0x00, 0x00, 0x00,
;0x00, 0x00, 0x00, 0x00, 0x00, 0xF0, 0x3F, 0x00,
;0x80, 0x8F, 0xFF, 0x3F, 0x00, 0x00, 0x00, 0x00,
;0x00, 0x00, 0x00, 0x00, 0x00, 0xF0, 0x7F, 0x00,
;0xC0, 0xC3, 0xFF, 0x3F, 0x00, 0x00, 0x00, 0x00,
;0x00, 0x00, 0x00, 0x00, 0x00, 0xE0, 0xFF, 0x00,
;0xF0, 0xF1, 0xFF, 0x3F, 0x00, 0x00, 0x00, 0x00,
;0x00, 0x00, 0x00, 0x00, 0x00, 0xF0, 0xFF, 0x07,
;0xFE, 0xF8, 0xFF, 0x1F, 0x00, 0x00, 0x00, 0x00,
;0x00, 0x00, 0x00, 0x00, 0x00, 0xF8, 0xFF, 0xFF,
;0x7F, 0xFC, 0xFF, 0x0F, 0x00, 0x00, 0x00, 0x00,
;0x00, 0x00, 0x00, 0x00, 0x00, 0xF8, 0xFF, 0xFF,
;0x1F, 0x3F, 0xFF, 0x00, 0x00, 0x00, 0x00, 0x00,
;0x00, 0x00, 0x00, 0x00, 0x00, 0xF8, 0xFF, 0xFF,
;0x8F, 0x8F, 0x0F, 0x00, 0x00, 0x00, 0x00, 0x00,
;0x00, 0x00, 0x00, 0x00, 0x00, 0xF0, 0xFF, 0xFF,
;0xC7, 0xC7, 0x07, 0x00, 0x00, 0x00, 0x00, 0x00,
;0x00, 0x00, 0x00, 0x00, 0x00, 0xE0, 0xFF, 0xFF,
;0xE1, 0xE3, 0x03, 0x00, 0x00, 0x00, 0x00, 0x00,
;0x00, 0x00, 0x00, 0x00, 0x00, 0x80, 0x9F, 0xFF,
;0xF8, 0xF9, 0x01, 0x00, 0x00, 0x00, 0x00, 0x00,
;0x00, 0x00, 0x00, 0x00, 0x00, 0x00, 0x02, 0xFF,
;0x7C, 0x7F, 0x00, 0x00, 0x00, 0x00, 0x00, 0x00,
;0x00, 0x00, 0x00, 0x00, 0x00, 0x00, 0x00, 0x7F,
;0x3C, 0x3E, 0x00, 0x00, 0x00, 0x00, 0x00, 0x00,
;0x00, 0x00, 0x00, 0x00, 0x00, 0x00, 0x00, 0x7E,
;0xFC, 0x1F, 0x00, 0x00, 0x00, 0x00, 0x00, 0x00,
;0x00, 0x00, 0x00, 0x00, 0x00, 0x00, 0x00, 0x7C,
;0xFC, 0x07, 0x00, 0x00, 0x00, 0x00, 0x00, 0x00,
;0x00, 0x00, 0x00, 0x00, 0x00, 0x00, 0x00, 0x00,
;0xF8, 0x03, 0x00, 0x00, 0x00, 0x00, 0x00, 0x00,
;0x00, 0x00, 0x00, 0x00, 0x00, 0x00, 0x00, 0x00,
;0xE0, 0x00, 0x00, 0x00, 0x00, 0x00, 0x00, 0x00,
;0x00, 0x00, 0x00, 0x00, 0x00, 0x00, 0x00, 0x00,
;0x00, 0x00, 0x00, 0x00, 0x00, 0x00, 0x00, 0x00,
;0x00, 0x00, 0x00, 0x00, 0x00, 0x00, 0x00, 0x00,
;0x00, 0x00, 0x00, 0x00, 0x00, 0x00, 0x00, 0x00,
;0x00, 0x00, 0x00, 0x00, 0x00, 0x00, 0x00, 0x00,
;0x00, 0x00, 0x00, 0x00, 0x00, 0x00, 0x00, 0x00,
;0x00, 0x00, 0x00, 0x00, 0x00, 0x00, 0x00, 0x00,
;0x00, 0x00, 0x00, 0x00, 0x00, 0x00, 0x00, 0x00,
;0x00, 0x00, 0x00, 0x00, 0x00, 0x00, 0x00, 0x00,
;0x00, 0x00, 0x00, 0x00, 0x00, 0x00, 0x00, 0x00,
;0x00, 0x00, 0x00, 0x00, 0x00, 0x00, 0x00, 0x00,
;0x00, 0x00, 0x00, 0x00, 0x00, 0x00, 0x00, 0x00,
;0x00, 0x00, 0x00, 0x00, 0x00, 0x00, 0x00, 0x00,
;0x00, 0x00, 0x00, 0x00, 0x00, 0x00, 0x00, 0x00,
;0x00, 0x00, 0x00, 0x00, 0x00, 0x00, 0x00, 0x00,
;0x00, 0x00, 0x00, 0x00, 0x00, 0x00, 0x00, 0x00,
;0x00, 0x00, 0x00, 0x00, 0x00, 0x00, 0x00, 0x00,
;0x00, 0x00, 0x00, 0x00, 0x00, 0x00, 0x00, 0x00,
;0x00, 0x00, 0x00, 0x00, 0x00, 0x00, 0x00, 0x00,
;0x00, 0x00, 0x00, 0x00, 0x00, 0x00, 0x00, 0x00,
;0x00, 0x00, 0x00, 0x00, 0x00, 0x00, 0x00, 0x00,
;0x00, 0x00, 0x00, 0x00, 0x00, 0x00, 0x00, 0x00,
;0x00, 0x00, 0x00, 0x00, 0x00, 0x00, 0x00, 0x00,
;0x00, 0x00, 0x00, 0x00, 0x00, 0x00, 0x00, 0x00,
;0x00, 0x00, 0x00, 0x00, 0x00, 0x00, 0x00, 0x00,
;0x00, 0x00, 0x00, 0x00, 0x00, 0x00, 0x00, 0x00,
;#else
;/* Image data for monochrome displays organized
;   as rows of vertical bytes */
;0x00, 0x00, 0x00, 0x00, 0x00, 0x00, 0x00, 0x00,
;0x00, 0x00, 0x00, 0x00, 0x00, 0x00, 0x00, 0x00,
;0x00, 0x00, 0x00, 0x00, 0x00, 0x00, 0x00, 0x00,
;0x00, 0x00, 0x00, 0x00, 0x00, 0x00, 0x00, 0x00,
;0x00, 0x00, 0x00, 0x00, 0x00, 0x00, 0x00, 0x00,
;0x00, 0x00, 0x00, 0x00, 0x00, 0x00, 0x00, 0x00,
;0x00, 0x00, 0x00, 0x00, 0x00, 0x00, 0x00, 0x00,
;0x00, 0x00, 0x00, 0x00, 0x00, 0x00, 0x00, 0x00,
;0x00, 0x00, 0x00, 0x00, 0x00, 0x00, 0x00, 0x00,
;0x00, 0x00, 0x00, 0x00, 0x00, 0x00, 0x00, 0x00,
;0x00, 0x00, 0x00, 0x00, 0x00, 0x00, 0x00, 0x00,
;0x00, 0x00, 0x00, 0x00, 0x00, 0x00, 0x00, 0x00,
;0x00, 0x00, 0x00, 0x00, 0x00, 0x00, 0x00, 0x00,
;0x00, 0x00, 0x00, 0x00, 0x00, 0x00, 0x00, 0x00,
;0x00, 0x00, 0x00, 0x00, 0x00, 0x00, 0x00, 0x00,
;0x00, 0x00, 0x00, 0x00, 0x00, 0x00, 0x00, 0x00,
;0x00, 0x00, 0x00, 0x00, 0x00, 0x00, 0x00, 0x00,
;0x00, 0x00, 0x00, 0x00, 0x00, 0x00, 0x00, 0x00,
;0x00, 0x00, 0x00, 0x00, 0x00, 0x00, 0x00, 0x00,
;0x00, 0x00, 0x00, 0x00, 0x00, 0x00, 0x00, 0x00,
;0x00, 0x00, 0x00, 0x00, 0x00, 0x00, 0x00, 0x00,
;0x00, 0x00, 0x00, 0x00, 0x00, 0x00, 0x00, 0x00,
;0x00, 0x00, 0x00, 0x00, 0x00, 0x00, 0x00, 0x00,
;0x80, 0xC0, 0xE0, 0xE0, 0xE0, 0xE0, 0xE0, 0xE0,
;0xE0, 0xE0, 0xC0, 0xC0, 0x00, 0x00, 0x00, 0x00,
;0x00, 0x00, 0x00, 0x00, 0x00, 0x00, 0x00, 0x00,
;0x00, 0x00, 0x00, 0x00, 0x00, 0x00, 0x00, 0x00,
;0x00, 0x00, 0x00, 0x00, 0x00, 0x00, 0x00, 0x00,
;0x00, 0x00, 0x00, 0x00, 0x00, 0x00, 0x00, 0x00,
;0x00, 0x00, 0x00, 0x00, 0x00, 0x00, 0x00, 0x00,
;0x00, 0x00, 0x00, 0x00, 0x00, 0x00, 0x00, 0x00,
;0x00, 0x00, 0x00, 0x00, 0x00, 0x00, 0x00, 0x00,
;0x00, 0x00, 0x00, 0x00, 0x00, 0x00, 0x00, 0x00,
;0x00, 0x00, 0x00, 0x00, 0x00, 0x00, 0x00, 0x00,
;0x00, 0x00, 0x00, 0x00, 0x00, 0x00, 0x00, 0x00,
;0x00, 0x00, 0x00, 0x00, 0x00, 0x00, 0x00, 0x00,
;0x00, 0x00, 0x00, 0x00, 0x00, 0x00, 0x00, 0x00,
;0x00, 0x00, 0x00, 0x70, 0xF8, 0xFC, 0xFE, 0xFE,
;0xFF, 0xFF, 0xFF, 0xFE, 0xFE, 0xFC, 0xFE, 0xFE,
;0xFF, 0xFF, 0x7F, 0x7F, 0x7F, 0x7F, 0x7F, 0x7F,
;0x7F, 0x7F, 0xFF, 0xFF, 0xFE, 0xFE, 0xFC, 0xFC,
;0xFE, 0xFF, 0xFF, 0xFF, 0xFE, 0xFE, 0xFC, 0xF8,
;0x78, 0x00, 0x00, 0x00, 0x00, 0x00, 0x00, 0x00,
;0x00, 0x00, 0x00, 0x00, 0x00, 0x00, 0x00, 0x00,
;0x00, 0x00, 0x00, 0x00, 0x00, 0x00, 0x00, 0x00,
;0x00, 0x00, 0x00, 0x00, 0x00, 0x00, 0x00, 0x00,
;0x00, 0x00, 0x00, 0x00, 0x00, 0x00, 0x00, 0x00,
;0x00, 0x00, 0x00, 0x00, 0x00, 0x00, 0x00, 0x00,
;0x00, 0x00, 0x00, 0x00, 0x00, 0x00, 0x00, 0x00,
;0x00, 0x00, 0x00, 0x00, 0x00, 0x00, 0x00, 0x00,
;0x00, 0x00, 0x00, 0x00, 0x00, 0x00, 0x00, 0x00,
;0x00, 0x00, 0x00, 0x00, 0x00, 0x00, 0x00, 0x00,
;0x00, 0x00, 0x00, 0x00, 0x00, 0x00, 0x00, 0xF0,
;0xF8, 0xF8, 0xFC, 0xFC, 0xFE, 0xFF, 0xFF, 0xFF,
;0xFF, 0xFF, 0xFF, 0xFF, 0x0F, 0x03, 0x03, 0x01,
;0x00, 0x00, 0x00, 0x00, 0x00, 0x00, 0x00, 0x00,
;0x00, 0x00, 0x00, 0x00, 0x00, 0x01, 0x03, 0x07,
;0x1F, 0xFF, 0xFF, 0xFF, 0xFF, 0x7F, 0x1F, 0x1F,
;0xCC, 0xCC, 0xEC, 0xE8, 0xE0, 0xE0, 0xE0, 0xF0,
;0x70, 0x20, 0x00, 0x00, 0x00, 0x00, 0x00, 0x00,
;0x00, 0x00, 0x00, 0x00, 0x00, 0x00, 0x00, 0x00,
;0x00, 0x00, 0x00, 0x00, 0x00, 0x00, 0x00, 0x00,
;0x00, 0x00, 0x00, 0x00, 0x00, 0x00, 0x00, 0x00,
;0x00, 0x00, 0x00, 0x00, 0x00, 0x00, 0x00, 0x00,
;0x00, 0x00, 0x00, 0x00, 0x00, 0x00, 0x00, 0x00,
;0x00, 0x00, 0x00, 0x00, 0x00, 0x00, 0x00, 0x00,
;0x00, 0x00, 0x00, 0x00, 0x00, 0x00, 0x00, 0x00,
;0x00, 0x00, 0x00, 0x00, 0x00, 0x00, 0x00, 0x00,
;0x00, 0x00, 0x00, 0x00, 0x00, 0x00, 0x00, 0x03,
;0x07, 0x07, 0x07, 0x87, 0xDF, 0xFF, 0xFF, 0xFF,
;0xFF, 0xFF, 0xFF, 0xFF, 0xFC, 0xF8, 0xF0, 0xE0,
;0xC0, 0xC0, 0xC0, 0x80, 0x80, 0x80, 0x80, 0x80,
;0x80, 0xC0, 0xC0, 0xC0, 0xE0, 0xE0, 0xF0, 0x78,
;0x3E, 0x1F, 0x8F, 0xCF, 0xE3, 0xE0, 0xF0, 0xFE,
;0xFF, 0xFF, 0xFF, 0xFF, 0xFF, 0xFF, 0xFF, 0xFC,
;0xF8, 0xF8, 0xFC, 0xFC, 0x7E, 0x3F, 0x07, 0x00,
;0x00, 0x00, 0x00, 0x00, 0x00, 0x00, 0x00, 0x00,
;0x00, 0x00, 0x00, 0x00, 0x00, 0x00, 0x00, 0x00,
;0x00, 0x00, 0x00, 0x00, 0x00, 0x00, 0x00, 0x00,
;0x00, 0x00, 0x00, 0x00, 0x00, 0x00, 0x00, 0x00,
;0x00, 0x00, 0x00, 0x00, 0x00, 0x00, 0x00, 0x00,
;0x00, 0x00, 0x00, 0x00, 0x00, 0x00, 0x00, 0x00,
;0x00, 0x00, 0x00, 0x00, 0x00, 0x00, 0x00, 0x00,
;0x00, 0x00, 0x00, 0x00, 0x00, 0x00, 0x00, 0x00,
;0x00, 0x00, 0x00, 0x00, 0x00, 0x00, 0x00, 0x00,
;0x00, 0x00, 0x00, 0x03, 0x07, 0x0F, 0x0F, 0x1F,
;0x1F, 0x3F, 0x1F, 0x1F, 0x1F, 0x0F, 0x0F, 0x1F,
;0x7F, 0xFF, 0xFF, 0xFF, 0xFF, 0xFF, 0xFF, 0x3F,
;0x0F, 0x07, 0xE7, 0xF3, 0xF1, 0xF8, 0xBC, 0x9E,
;0xBF, 0xEF, 0xE7, 0xF3, 0xF1, 0x79, 0x3C, 0x1E,
;0x1F, 0x0F, 0x07, 0x03, 0x01, 0x01, 0x01, 0x01,
;0x00, 0x00, 0x00, 0x00, 0x00, 0x00, 0x00, 0x00,
;0x00, 0x00, 0x00, 0x00, 0x00, 0x00, 0x00, 0x00,
;0x00, 0x00, 0x00, 0x00, 0x00, 0x00, 0x00, 0x00,
;0x00, 0x00, 0x00, 0x00, 0x00, 0x00, 0x00, 0x00,
;0x00, 0x00, 0x00, 0x00, 0x00, 0x00, 0x00, 0x00,
;0x00, 0x00, 0x00, 0x00, 0x00, 0x00, 0x00, 0x00,
;0x00, 0x00, 0x00, 0x00, 0x00, 0x00, 0x00, 0x00,
;0x00, 0x00, 0x00, 0x00, 0x00, 0x00, 0x00, 0x00,
;0x00, 0x00, 0x00, 0x00, 0x00, 0x00, 0x00, 0x00,
;0x00, 0x00, 0x00, 0x00, 0x00, 0x00, 0x00, 0x00,
;0x00, 0x00, 0x00, 0x00, 0x00, 0x00, 0x00, 0x00,
;0x00, 0x00, 0x00, 0x00, 0x00, 0x00, 0x00, 0x00,
;0x00, 0x00, 0x01, 0x01, 0x01, 0x01, 0x01, 0x00,
;0x00, 0x00, 0x01, 0x03, 0x03, 0x07, 0x07, 0x07,
;0x03, 0x03, 0x01, 0x00, 0x00, 0x00, 0x00, 0x00,
;0x00, 0x00, 0x00, 0x00, 0x00, 0x00, 0x00, 0x00,
;0x00, 0x00, 0x00, 0x00, 0x00, 0x00, 0x00, 0x00,
;0x00, 0x00, 0x00, 0x00, 0x00, 0x00, 0x00, 0x00,
;0x00, 0x00, 0x00, 0x00, 0x00, 0x00, 0x00, 0x00,
;0x00, 0x00, 0x00, 0x00, 0x00, 0x00, 0x00, 0x00,
;0x00, 0x00, 0x00, 0x00, 0x00, 0x00, 0x00, 0x00,
;0x00, 0x00, 0x00, 0x00, 0x00, 0x00, 0x00, 0x00,
;0x00, 0x00, 0x00, 0x00, 0x00, 0x00, 0x00, 0x00,
;0x00, 0x00, 0x00, 0x00, 0x00, 0x00, 0x00, 0x00,
;0x00, 0x00, 0x00, 0x00, 0x00, 0x00, 0x00, 0x00,
;0x00, 0x00, 0x00, 0x00, 0x00, 0x00, 0x00, 0x00,
;0x00, 0x00, 0x00, 0x00, 0x00, 0x00, 0x00, 0x00,
;0x00, 0x00, 0x00, 0x00, 0x00, 0x00, 0x00, 0x00,
;0x00, 0x00, 0x00, 0x00, 0x00, 0x00, 0x00, 0x00,
;0x00, 0x00, 0x00, 0x00, 0x00, 0x00, 0x00, 0x00,
;0x00, 0x00, 0x00, 0x00, 0x00, 0x00, 0x00, 0x00,
;0x00, 0x00, 0x00, 0x00, 0x00, 0x00, 0x00, 0x00,
;0x00, 0x00, 0x00, 0x00, 0x00, 0x00, 0x00, 0x00,
;0x00, 0x00, 0x00, 0x00, 0x00, 0x00, 0x00, 0x00,
;0x00, 0x00, 0x00, 0x00, 0x00, 0x00, 0x00, 0x00,
;0x00, 0x00, 0x00, 0x00, 0x00, 0x00, 0x00, 0x00,
;0x00, 0x00, 0x00, 0x00, 0x00, 0x00, 0x00, 0x00,
;#endif
;};
;
;    #include "heater.c"
;/****************************************************************************
;Image data created by the LCD Vision V1.05 font & image editor/converter
;(C) Copyright 2011-2013 Pavel Haiduc, HP InfoTech s.r.l.
;http://www.hpinfotech.com
;
;Graphic LCD controller: ST7920 128x64 4bit Bus /RST PSB=1
;Image width: 128 pixels
;Image height: 64 pixels
;Color depth: 1 bits/pixel
;Imported image file name: heater.bmp
;
;Exported monochrome image data size:
;1028 bytes for displays organized as horizontal rows of bytes
;1028 bytes for displays organized as rows of vertical bytes.
;****************************************************************************/
;
;flash unsigned char heater[]=
;{
;/* Image width: 128 pixels */
;0x80, 0x00,
;/* Image height: 64 pixels */
;0x40, 0x00,
;#ifndef _GLCD_DATA_BYTEY_
;/* Image data for monochrome displays organized
;   as horizontal rows of bytes */
;0x00, 0x00, 0x00, 0x00, 0x00, 0x00, 0x00, 0x00,
;0x00, 0x00, 0x00, 0x00, 0x00, 0x00, 0x00, 0x00,
;0x00, 0x00, 0x00, 0x00, 0x00, 0x00, 0x00, 0x00,
;0x00, 0x00, 0x00, 0x00, 0x00, 0x00, 0x00, 0x00,
;0x00, 0x00, 0x00, 0x00, 0x00, 0x00, 0x00, 0x00,
;0x00, 0x00, 0x00, 0x00, 0x00, 0x00, 0x00, 0x00,
;0x00, 0x00, 0x00, 0x00, 0x00, 0x00, 0x00, 0x00,
;0x00, 0x00, 0x00, 0x00, 0x00, 0x00, 0x00, 0x00,
;0x00, 0x00, 0x00, 0x00, 0x00, 0x00, 0x00, 0x00,
;0x00, 0x00, 0x00, 0x00, 0x00, 0x00, 0x00, 0x00,
;0x00, 0x00, 0x00, 0x00, 0x00, 0x80, 0x01, 0xC0,
;0x00, 0xE0, 0x00, 0x00, 0x00, 0x00, 0x00, 0x00,
;0x00, 0x00, 0x00, 0x00, 0x00, 0xC0, 0x07, 0xE0,
;0x03, 0xE0, 0x01, 0x00, 0x00, 0x00, 0x00, 0x00,
;0x00, 0x00, 0x00, 0x00, 0x00, 0x80, 0x0F, 0x80,
;0x07, 0xC0, 0x07, 0x00, 0x00, 0x00, 0x00, 0x00,
;0x00, 0x00, 0x00, 0x00, 0x00, 0x00, 0x1E, 0x00,
;0x0F, 0x80, 0x07, 0x00, 0x00, 0x00, 0x00, 0x00,
;0x00, 0x00, 0x00, 0x00, 0x00, 0x00, 0x1E, 0x00,
;0x1E, 0x00, 0x0F, 0x00, 0x00, 0x00, 0x00, 0x00,
;0x00, 0x00, 0x00, 0x00, 0x00, 0x00, 0x1E, 0x00,
;0x1E, 0x00, 0x0F, 0x00, 0x00, 0x00, 0x00, 0x00,
;0x00, 0x00, 0x00, 0x00, 0x00, 0x00, 0x1E, 0x00,
;0x0F, 0x80, 0x07, 0x00, 0x00, 0x00, 0x00, 0x00,
;0x00, 0x00, 0x00, 0x00, 0x00, 0x00, 0x0F, 0x80,
;0x07, 0xC0, 0x07, 0x00, 0x00, 0x00, 0x00, 0x00,
;0x00, 0x00, 0x00, 0x00, 0x00, 0xC0, 0x07, 0xC0,
;0x03, 0xE0, 0x01, 0x00, 0x00, 0x00, 0x00, 0x00,
;0x00, 0x00, 0x00, 0x00, 0x00, 0xE0, 0x03, 0xF0,
;0x01, 0xF8, 0x00, 0x00, 0x00, 0x00, 0x00, 0x00,
;0x00, 0x00, 0x00, 0x00, 0x00, 0xF0, 0x00, 0xF8,
;0x00, 0x7C, 0x00, 0x00, 0x00, 0x00, 0x00, 0x00,
;0x00, 0x00, 0x00, 0x00, 0x00, 0x78, 0x00, 0x7C,
;0x00, 0x3C, 0x00, 0x00, 0x00, 0x00, 0x00, 0x00,
;0x00, 0x00, 0x00, 0x00, 0x00, 0x78, 0x00, 0x3C,
;0x00, 0x1E, 0x00, 0x00, 0x00, 0x00, 0x00, 0x00,
;0x00, 0x00, 0x00, 0x00, 0x00, 0x78, 0x00, 0x3C,
;0x00, 0x1E, 0x00, 0x00, 0x00, 0x00, 0x00, 0x00,
;0x00, 0x00, 0x00, 0x00, 0x00, 0x78, 0x00, 0x7C,
;0x00, 0x3C, 0x00, 0x00, 0x00, 0x00, 0x00, 0x00,
;0x00, 0x00, 0x00, 0x00, 0x00, 0xF0, 0x00, 0xF8,
;0x00, 0x7C, 0x00, 0x00, 0x00, 0x00, 0x00, 0x00,
;0x00, 0x00, 0x00, 0x00, 0x00, 0xE0, 0x03, 0xF0,
;0x01, 0xF0, 0x01, 0x00, 0x00, 0x00, 0x00, 0x00,
;0x00, 0x00, 0x00, 0x00, 0x00, 0x80, 0x07, 0xC0,
;0x03, 0xE0, 0x01, 0x00, 0x00, 0x00, 0x00, 0x00,
;0x00, 0x00, 0x00, 0x00, 0x00, 0x00, 0x00, 0x00,
;0x00, 0x00, 0x00, 0x00, 0x00, 0x00, 0x00, 0x00,
;0x00, 0x00, 0x00, 0x00, 0x00, 0xE0, 0x01, 0xC0,
;0x03, 0x80, 0x07, 0x00, 0x00, 0x00, 0x00, 0x00,
;0x00, 0x00, 0x00, 0x00, 0x00, 0xF8, 0x07, 0xF0,
;0x0F, 0xE0, 0x1F, 0x00, 0x00, 0x00, 0x00, 0x00,
;0x00, 0x00, 0x00, 0x00, 0x00, 0xFE, 0x1F, 0xFC,
;0x1F, 0xF8, 0x3F, 0x00, 0x00, 0x00, 0x00, 0x00,
;0x00, 0x00, 0x00, 0x00, 0x00, 0xFE, 0x1F, 0x7C,
;0x3E, 0x78, 0x7C, 0x00, 0x00, 0x00, 0x00, 0x00,
;0x00, 0x00, 0x00, 0x00, 0x00, 0x1F, 0x3C, 0x1E,
;0x78, 0x3C, 0xF0, 0x00, 0x00, 0x00, 0x00, 0x00,
;0x00, 0x00, 0x00, 0x00, 0x00, 0x0F, 0x38, 0x1E,
;0x78, 0x1C, 0xE0, 0x00, 0x00, 0x00, 0x00, 0x00,
;0x00, 0x00, 0x00, 0x00, 0xE0, 0x0F, 0xF8, 0x1F,
;0xF8, 0x1F, 0xE0, 0x07, 0x00, 0x00, 0x00, 0x00,
;0x00, 0x00, 0x00, 0x00, 0xF8, 0x0F, 0xF8, 0x1F,
;0xF8, 0x1F, 0xE0, 0x1F, 0x00, 0x00, 0x00, 0x00,
;0x00, 0x00, 0x00, 0x00, 0xFC, 0x0F, 0xF8, 0x1F,
;0xF8, 0x1F, 0xE0, 0x3F, 0x00, 0x00, 0x00, 0x00,
;0x00, 0x00, 0x00, 0x00, 0xFC, 0x0F, 0xF8, 0x1F,
;0xF8, 0x1F, 0xE0, 0x3F, 0x00, 0x00, 0x00, 0x00,
;0x00, 0x00, 0x00, 0x00, 0x1C, 0x0F, 0x38, 0x1E,
;0x78, 0x1E, 0xE0, 0x38, 0x00, 0x00, 0x00, 0x00,
;0x00, 0x00, 0x00, 0x00, 0xFC, 0x0F, 0x78, 0x1E,
;0x78, 0x1E, 0xE0, 0x3D, 0x00, 0x00, 0x00, 0x00,
;0x00, 0x00, 0x00, 0x00, 0xFC, 0x0F, 0xF8, 0x1F,
;0xF8, 0x1F, 0xE0, 0x1F, 0x00, 0x00, 0x00, 0x00,
;0x00, 0x00, 0x00, 0x00, 0xF8, 0x0F, 0xF8, 0x1F,
;0xF8, 0x1F, 0xE0, 0x1F, 0x00, 0x00, 0x00, 0x00,
;0x00, 0x00, 0x00, 0x00, 0xC0, 0x0F, 0xF8, 0x1F,
;0xF8, 0x1F, 0xE0, 0x03, 0x00, 0x00, 0x00, 0x00,
;0x00, 0x00, 0x00, 0x00, 0x00, 0x0E, 0x38, 0x1E,
;0x78, 0x1E, 0xE0, 0x00, 0x00, 0x00, 0x00, 0x00,
;0x00, 0x00, 0x00, 0x00, 0x00, 0x0E, 0x38, 0x1E,
;0x78, 0x1E, 0xE0, 0x00, 0x00, 0x00, 0x00, 0x00,
;0x00, 0x00, 0x00, 0x00, 0x00, 0x0E, 0x38, 0x1E,
;0x78, 0x1E, 0xE0, 0x00, 0x00, 0x00, 0x00, 0x00,
;0x00, 0x00, 0x00, 0x00, 0x00, 0x0E, 0x38, 0x1E,
;0x78, 0x1E, 0xE0, 0x00, 0x00, 0x00, 0x00, 0x00,
;0x00, 0x00, 0x00, 0x00, 0x00, 0x0E, 0x38, 0x1E,
;0x78, 0x1E, 0xE0, 0x00, 0x00, 0x00, 0x00, 0x00,
;0x00, 0x00, 0x00, 0x00, 0x00, 0x0E, 0x38, 0x1E,
;0x78, 0x1E, 0xE0, 0x00, 0x00, 0x00, 0x00, 0x00,
;0x00, 0x00, 0x00, 0x00, 0x00, 0x0E, 0x38, 0x1E,
;0x78, 0x1E, 0xE0, 0x00, 0x00, 0x00, 0x00, 0x00,
;0x00, 0x00, 0x00, 0x00, 0x00, 0x0E, 0x38, 0x1E,
;0x78, 0x1E, 0xE0, 0x00, 0x00, 0x00, 0x00, 0x00,
;0x00, 0x00, 0x00, 0x00, 0x00, 0x0E, 0x38, 0x1E,
;0x78, 0x1E, 0xE0, 0x00, 0x00, 0x00, 0x00, 0x00,
;0x00, 0x00, 0x00, 0x00, 0x00, 0x0E, 0x38, 0x1E,
;0x78, 0x1E, 0xE0, 0x00, 0x00, 0x00, 0x00, 0x00,
;0x00, 0x00, 0x00, 0x00, 0x00, 0x0E, 0x38, 0x1E,
;0x78, 0x1E, 0xE0, 0x00, 0x00, 0x00, 0x00, 0x00,
;0x00, 0x00, 0x00, 0x00, 0x00, 0x0E, 0x38, 0x1E,
;0x78, 0x1E, 0xE0, 0x00, 0x00, 0x00, 0x00, 0x00,
;0x00, 0x00, 0x00, 0x00, 0x00, 0x1E, 0x3C, 0x1E,
;0x78, 0x1C, 0xF0, 0x00, 0x00, 0x00, 0x00, 0x00,
;0x00, 0x00, 0x00, 0x00, 0x00, 0x3E, 0x3E, 0x7C,
;0x3E, 0x7C, 0xFC, 0x00, 0x00, 0x00, 0x00, 0x00,
;0x00, 0x00, 0x00, 0x00, 0x00, 0xFC, 0x1F, 0xFC,
;0x1F, 0xF8, 0x7F, 0x00, 0x00, 0x00, 0x00, 0x00,
;0x00, 0x00, 0x00, 0x00, 0x00, 0xF8, 0x0F, 0xF0,
;0x0F, 0xF0, 0x1F, 0x00, 0x00, 0x00, 0x00, 0x00,
;0x00, 0x00, 0x00, 0x00, 0x00, 0xE0, 0x03, 0xC0,
;0x03, 0x80, 0x07, 0x00, 0x00, 0x00, 0x00, 0x00,
;0x00, 0x00, 0x00, 0x00, 0x00, 0x00, 0x00, 0x00,
;0x00, 0x00, 0x00, 0x00, 0x00, 0x00, 0x00, 0x00,
;0x00, 0x00, 0x00, 0x00, 0x00, 0x00, 0x00, 0x00,
;0x00, 0x00, 0x00, 0x00, 0x00, 0x00, 0x00, 0x00,
;0x00, 0x00, 0x00, 0x00, 0x00, 0x00, 0x00, 0x00,
;0x00, 0x00, 0x00, 0x00, 0x00, 0x00, 0x00, 0x00,
;0x00, 0x00, 0x00, 0x00, 0x00, 0x00, 0x00, 0x00,
;0x00, 0x00, 0x00, 0x00, 0x00, 0x00, 0x00, 0x00,
;0x00, 0x00, 0x00, 0x00, 0x00, 0x00, 0x00, 0x00,
;0x00, 0x00, 0x00, 0x00, 0x00, 0x00, 0x00, 0x00,
;0x00, 0x00, 0x00, 0x00, 0x00, 0x00, 0x00, 0x00,
;0x00, 0x00, 0x00, 0x00, 0x00, 0x00, 0x00, 0x00,
;0x00, 0x00, 0x00, 0x00, 0x00, 0x00, 0x00, 0x00,
;0x00, 0x00, 0x00, 0x00, 0x00, 0x00, 0x00, 0x00,
;0x00, 0x00, 0x00, 0x00, 0x00, 0x00, 0x00, 0x00,
;0x00, 0x00, 0x00, 0x00, 0x00, 0x00, 0x00, 0x00,
;#else
;/* Image data for monochrome displays organized
;   as rows of vertical bytes */
;0x00, 0x00, 0x00, 0x00, 0x00, 0x00, 0x00, 0x00,
;0x00, 0x00, 0x00, 0x00, 0x00, 0x00, 0x00, 0x00,
;0x00, 0x00, 0x00, 0x00, 0x00, 0x00, 0x00, 0x00,
;0x00, 0x00, 0x00, 0x00, 0x00, 0x00, 0x00, 0x00,
;0x00, 0x00, 0x00, 0x00, 0x00, 0x00, 0x00, 0x00,
;0x00, 0x00, 0x00, 0x00, 0x00, 0x00, 0x40, 0xE0,
;0xE0, 0xC0, 0xC0, 0x80, 0x00, 0x00, 0x00, 0x00,
;0x00, 0x00, 0x00, 0x00, 0x00, 0x40, 0x60, 0xE0,
;0xC0, 0xC0, 0x80, 0x00, 0x00, 0x00, 0x00, 0x00,
;0x00, 0x00, 0x00, 0x00, 0x00, 0x60, 0xE0, 0xE0,
;0xC0, 0x80, 0x80, 0x00, 0x00, 0x00, 0x00, 0x00,
;0x00, 0x00, 0x00, 0x00, 0x00, 0x00, 0x00, 0x00,
;0x00, 0x00, 0x00, 0x00, 0x00, 0x00, 0x00, 0x00,
;0x00, 0x00, 0x00, 0x00, 0x00, 0x00, 0x00, 0x00,
;0x00, 0x00, 0x00, 0x00, 0x00, 0x00, 0x00, 0x00,
;0x00, 0x00, 0x00, 0x00, 0x00, 0x00, 0x00, 0x00,
;0x00, 0x00, 0x00, 0x00, 0x00, 0x00, 0x00, 0x00,
;0x00, 0x00, 0x00, 0x00, 0x00, 0x00, 0x00, 0x00,
;0x00, 0x00, 0x00, 0x00, 0x00, 0x00, 0x00, 0x00,
;0x00, 0x00, 0x00, 0x00, 0x00, 0x00, 0x00, 0x00,
;0x00, 0x00, 0x00, 0x00, 0x00, 0x00, 0x00, 0x00,
;0x00, 0x00, 0x00, 0x00, 0x80, 0xC0, 0xE0, 0xE0,
;0x70, 0x7F, 0x3F, 0x1F, 0x0F, 0x00, 0x00, 0x00,
;0x00, 0x00, 0x00, 0x80, 0xC0, 0xC0, 0xE0, 0xF0,
;0x79, 0x3F, 0x1F, 0x0F, 0x06, 0x00, 0x00, 0x00,
;0x00, 0x00, 0x80, 0xC0, 0xC0, 0xE0, 0xF0, 0x79,
;0x3F, 0x1F, 0x1F, 0x06, 0x00, 0x00, 0x00, 0x00,
;0x00, 0x00, 0x00, 0x00, 0x00, 0x00, 0x00, 0x00,
;0x00, 0x00, 0x00, 0x00, 0x00, 0x00, 0x00, 0x00,
;0x00, 0x00, 0x00, 0x00, 0x00, 0x00, 0x00, 0x00,
;0x00, 0x00, 0x00, 0x00, 0x00, 0x00, 0x00, 0x00,
;0x00, 0x00, 0x00, 0x00, 0x00, 0x00, 0x00, 0x00,
;0x00, 0x00, 0x00, 0x00, 0x00, 0x00, 0x00, 0x00,
;0x00, 0x00, 0x00, 0x00, 0x00, 0x00, 0x00, 0x00,
;0x00, 0x00, 0x00, 0x00, 0x00, 0x00, 0x00, 0x00,
;0x00, 0x00, 0x00, 0x00, 0x00, 0x00, 0x00, 0x00,
;0x00, 0x00, 0x00, 0x00, 0x00, 0x00, 0x00, 0x00,
;0x00, 0x00, 0x00, 0x0F, 0x1F, 0x3F, 0x3F, 0x70,
;0x60, 0x60, 0x40, 0x00, 0x00, 0x00, 0x00, 0x00,
;0x00, 0x00, 0x0F, 0x1F, 0x3F, 0x3F, 0x79, 0x70,
;0x60, 0x40, 0x00, 0x00, 0x00, 0x00, 0x00, 0x00,
;0x00, 0x06, 0x1F, 0x1F, 0x3F, 0x79, 0x70, 0x60,
;0x60, 0x00, 0x00, 0x00, 0x00, 0x00, 0x00, 0x00,
;0x00, 0x00, 0x00, 0x00, 0x00, 0x00, 0x00, 0x00,
;0x00, 0x00, 0x00, 0x00, 0x00, 0x00, 0x00, 0x00,
;0x00, 0x00, 0x00, 0x00, 0x00, 0x00, 0x00, 0x00,
;0x00, 0x00, 0x00, 0x00, 0x00, 0x00, 0x00, 0x00,
;0x00, 0x00, 0x00, 0x00, 0x00, 0x00, 0x00, 0x00,
;0x00, 0x00, 0x00, 0x00, 0x00, 0x00, 0x00, 0x00,
;0x00, 0x00, 0x00, 0x00, 0x00, 0x00, 0x00, 0x00,
;0x00, 0x00, 0x00, 0x00, 0x00, 0x00, 0x00, 0x00,
;0x00, 0x00, 0x00, 0x00, 0x00, 0x00, 0x00, 0x00,
;0x00, 0x00, 0x00, 0x80, 0x80, 0xC0, 0xC0, 0xC0,
;0xF0, 0xFC, 0xFC, 0xFE, 0x1E, 0x0F, 0x0F, 0x0F,
;0x0F, 0x0E, 0x1E, 0xFC, 0xFC, 0xF0, 0xC0, 0xC0,
;0xC0, 0xF0, 0xFC, 0xFC, 0xFE, 0x0E, 0x0F, 0x07,
;0x07, 0x0F, 0x0E, 0xFE, 0xFC, 0xF8, 0xF0, 0xC0,
;0xC0, 0xC0, 0xF0, 0xFC, 0xFC, 0x1E, 0x0E, 0x07,
;0x07, 0x07, 0x0F, 0x0E, 0x1E, 0xFC, 0xF8, 0xF0,
;0xC0, 0xC0, 0xC0, 0x80, 0x80, 0x00, 0x00, 0x00,
;0x00, 0x00, 0x00, 0x00, 0x00, 0x00, 0x00, 0x00,
;0x00, 0x00, 0x00, 0x00, 0x00, 0x00, 0x00, 0x00,
;0x00, 0x00, 0x00, 0x00, 0x00, 0x00, 0x00, 0x00,
;0x00, 0x00, 0x00, 0x00, 0x00, 0x00, 0x00, 0x00,
;0x00, 0x00, 0x00, 0x00, 0x00, 0x00, 0x00, 0x00,
;0x00, 0x00, 0x00, 0x00, 0x00, 0x00, 0x00, 0x00,
;0x00, 0x00, 0x00, 0x00, 0x00, 0x00, 0x00, 0x00,
;0x00, 0x00, 0x00, 0x00, 0x00, 0x00, 0x00, 0x00,
;0x00, 0x00, 0x1F, 0x3F, 0x3F, 0x3B, 0x7B, 0x7B,
;0x7F, 0xFF, 0xFF, 0xFF, 0x00, 0x00, 0x00, 0x00,
;0x00, 0x00, 0x00, 0xFF, 0xFF, 0xFF, 0x7B, 0x73,
;0x73, 0xFF, 0xFF, 0xFF, 0xFF, 0x00, 0x00, 0x00,
;0x00, 0x00, 0x00, 0xFF, 0xFF, 0xFF, 0xFF, 0x73,
;0x73, 0xFF, 0xFF, 0xFF, 0xFF, 0x00, 0x00, 0x00,
;0x00, 0x00, 0x00, 0x00, 0x00, 0xFF, 0xFF, 0xFF,
;0x7B, 0x73, 0x3B, 0x3F, 0x3F, 0x0F, 0x00, 0x00,
;0x00, 0x00, 0x00, 0x00, 0x00, 0x00, 0x00, 0x00,
;0x00, 0x00, 0x00, 0x00, 0x00, 0x00, 0x00, 0x00,
;0x00, 0x00, 0x00, 0x00, 0x00, 0x00, 0x00, 0x00,
;0x00, 0x00, 0x00, 0x00, 0x00, 0x00, 0x00, 0x00,
;0x00, 0x00, 0x00, 0x00, 0x00, 0x00, 0x00, 0x00,
;0x00, 0x00, 0x00, 0x00, 0x00, 0x00, 0x00, 0x00,
;0x00, 0x00, 0x00, 0x00, 0x00, 0x00, 0x00, 0x00,
;0x00, 0x00, 0x00, 0x00, 0x00, 0x00, 0x00, 0x00,
;0x00, 0x00, 0x00, 0x00, 0x00, 0x00, 0x00, 0x00,
;0x00, 0xFF, 0xFF, 0xFF, 0x00, 0x00, 0x00, 0x00,
;0x00, 0x00, 0x00, 0xFF, 0xFF, 0xFF, 0x00, 0x00,
;0x00, 0xFF, 0xFF, 0xFF, 0xFF, 0x00, 0x00, 0x00,
;0x00, 0x00, 0x00, 0xFF, 0xFF, 0xFF, 0xFF, 0x00,
;0x00, 0xFF, 0xFF, 0xFF, 0xFF, 0x00, 0x00, 0x00,
;0x00, 0x00, 0x00, 0x00, 0x00, 0xFF, 0xFF, 0xFF,
;0x00, 0x00, 0x00, 0x00, 0x00, 0x00, 0x00, 0x00,
;0x00, 0x00, 0x00, 0x00, 0x00, 0x00, 0x00, 0x00,
;0x00, 0x00, 0x00, 0x00, 0x00, 0x00, 0x00, 0x00,
;0x00, 0x00, 0x00, 0x00, 0x00, 0x00, 0x00, 0x00,
;0x00, 0x00, 0x00, 0x00, 0x00, 0x00, 0x00, 0x00,
;0x00, 0x00, 0x00, 0x00, 0x00, 0x00, 0x00, 0x00,
;0x00, 0x00, 0x00, 0x00, 0x00, 0x00, 0x00, 0x00,
;0x00, 0x00, 0x00, 0x00, 0x00, 0x00, 0x00, 0x00,
;0x00, 0x00, 0x00, 0x00, 0x00, 0x00, 0x00, 0x00,
;0x00, 0x00, 0x00, 0x00, 0x00, 0x00, 0x00, 0x00,
;0x00, 0x1F, 0x3F, 0x7F, 0x78, 0xF0, 0xE0, 0xE0,
;0xE0, 0xF0, 0x78, 0x7F, 0x3F, 0x1F, 0x00, 0x00,
;0x00, 0x0F, 0x3F, 0x3F, 0x7F, 0x70, 0xF0, 0xE0,
;0xE0, 0xF0, 0x70, 0x7F, 0x3F, 0x1F, 0x0F, 0x00,
;0x00, 0x07, 0x1F, 0x3F, 0x7F, 0x70, 0x70, 0xE0,
;0xE0, 0xE0, 0xF0, 0x70, 0x78, 0x3F, 0x3F, 0x1F,
;0x00, 0x00, 0x00, 0x00, 0x00, 0x00, 0x00, 0x00,
;0x00, 0x00, 0x00, 0x00, 0x00, 0x00, 0x00, 0x00,
;0x00, 0x00, 0x00, 0x00, 0x00, 0x00, 0x00, 0x00,
;0x00, 0x00, 0x00, 0x00, 0x00, 0x00, 0x00, 0x00,
;0x00, 0x00, 0x00, 0x00, 0x00, 0x00, 0x00, 0x00,
;0x00, 0x00, 0x00, 0x00, 0x00, 0x00, 0x00, 0x00,
;0x00, 0x00, 0x00, 0x00, 0x00, 0x00, 0x00, 0x00,
;0x00, 0x00, 0x00, 0x00, 0x00, 0x00, 0x00, 0x00,
;0x00, 0x00, 0x00, 0x00, 0x00, 0x00, 0x00, 0x00,
;0x00, 0x00, 0x00, 0x00, 0x00, 0x00, 0x00, 0x00,
;0x00, 0x00, 0x00, 0x00, 0x00, 0x00, 0x00, 0x00,
;0x00, 0x00, 0x00, 0x00, 0x00, 0x00, 0x00, 0x00,
;0x00, 0x00, 0x00, 0x00, 0x00, 0x00, 0x00, 0x00,
;0x00, 0x00, 0x00, 0x00, 0x00, 0x00, 0x00, 0x00,
;0x00, 0x00, 0x00, 0x00, 0x00, 0x00, 0x00, 0x00,
;0x00, 0x00, 0x00, 0x00, 0x00, 0x00, 0x00, 0x00,
;0x00, 0x00, 0x00, 0x00, 0x00, 0x00, 0x00, 0x00,
;0x00, 0x00, 0x00, 0x00, 0x00, 0x00, 0x00, 0x00,
;0x00, 0x00, 0x00, 0x00, 0x00, 0x00, 0x00, 0x00,
;0x00, 0x00, 0x00, 0x00, 0x00, 0x00, 0x00, 0x00,
;0x00, 0x00, 0x00, 0x00, 0x00, 0x00, 0x00, 0x00,
;#endif
;};
;
;    #include "cooler.c"
;/****************************************************************************
;Image data created by the LCD Vision V1.05 font & image editor/converter
;(C) Copyright 2011-2013 Pavel Haiduc, HP InfoTech s.r.l.
;http://www.hpinfotech.com
;
;Graphic LCD controller: ST7920 128x64 4bit Bus /RST PSB=1
;Image width: 128 pixels
;Image height: 64 pixels
;Color depth: 1 bits/pixel
;Imported image file name: cooler.bmp
;
;Exported monochrome image data size:
;1028 bytes for displays organized as horizontal rows of bytes
;1028 bytes for displays organized as rows of vertical bytes.
;****************************************************************************/
;
;flash unsigned char cooler[]=
;{
;/* Image width: 128 pixels */
;0x80, 0x00,
;/* Image height: 64 pixels */
;0x40, 0x00,
;#ifndef _GLCD_DATA_BYTEY_
;/* Image data for monochrome displays organized
;   as horizontal rows of bytes */
;0x00, 0x00, 0x00, 0x00, 0x00, 0x00, 0x00, 0x00,
;0x00, 0x00, 0x00, 0x00, 0x00, 0x00, 0x00, 0x00,
;0x00, 0x00, 0x00, 0x00, 0x00, 0x00, 0x00, 0x00,
;0x00, 0x00, 0x00, 0x00, 0x00, 0x00, 0x00, 0x00,
;0x00, 0x00, 0x00, 0x00, 0x00, 0x00, 0x00, 0x00,
;0x00, 0x00, 0x00, 0x00, 0x00, 0x00, 0x00, 0x00,
;0x00, 0x00, 0x00, 0x00, 0x00, 0x00, 0x00, 0x00,
;0x00, 0x00, 0x00, 0x00, 0x00, 0x00, 0x00, 0x00,
;0x00, 0x00, 0x00, 0x00, 0x00, 0x00, 0x00, 0x00,
;0x00, 0x00, 0x00, 0x00, 0x00, 0x00, 0x00, 0x00,
;0x00, 0x00, 0x00, 0x00, 0x00, 0x00, 0x00, 0x00,
;0x00, 0x00, 0x00, 0x00, 0x00, 0x00, 0x00, 0x00,
;0x00, 0x00, 0x00, 0x00, 0x00, 0x00, 0x00, 0x00,
;0x00, 0x00, 0x00, 0x00, 0x00, 0x00, 0x00, 0x00,
;0x00, 0x00, 0x00, 0x00, 0x00, 0x00, 0x00, 0x00,
;0x00, 0x00, 0x00, 0x00, 0x00, 0x00, 0x00, 0x00,
;0x00, 0x00, 0x00, 0x00, 0x00, 0x00, 0x00, 0x00,
;0x00, 0x00, 0x00, 0x00, 0x00, 0x00, 0x00, 0x00,
;0x00, 0x00, 0x00, 0x00, 0xF8, 0xFF, 0xFF, 0xFF,
;0xFF, 0xFF, 0xFF, 0x3F, 0x00, 0x00, 0x00, 0x00,
;0x00, 0x00, 0x00, 0x00, 0xFC, 0xFF, 0xFF, 0xFF,
;0xFF, 0xFF, 0xFF, 0x7F, 0x00, 0x00, 0x00, 0x00,
;0x00, 0x00, 0x00, 0x00, 0xFE, 0xFF, 0xFF, 0xFF,
;0xFF, 0xFF, 0xFF, 0xFF, 0x00, 0x00, 0x00, 0x00,
;0x00, 0x00, 0x00, 0x00, 0xFE, 0xFF, 0xFF, 0xFF,
;0xFF, 0xFF, 0xFF, 0xFF, 0x00, 0x00, 0x00, 0x00,
;0x00, 0x00, 0x00, 0x00, 0xFE, 0xFF, 0x00, 0xF8,
;0xFF, 0xFF, 0xFF, 0xFF, 0x00, 0x00, 0x00, 0x00,
;0x00, 0x00, 0x00, 0x00, 0xFE, 0x1F, 0xFE, 0xE3,
;0xFF, 0xFF, 0xFF, 0xFF, 0x00, 0x00, 0x00, 0x00,
;0x00, 0x00, 0x00, 0x00, 0xFE, 0xC7, 0xFF, 0x9F,
;0xFF, 0xFF, 0xFF, 0xFF, 0x00, 0x00, 0x00, 0x00,
;0x00, 0x00, 0x00, 0x00, 0xFE, 0xC3, 0xFF, 0x19,
;0xFE, 0xFF, 0xFF, 0xFF, 0x00, 0x00, 0x00, 0x00,
;0x00, 0x00, 0x00, 0x00, 0xFE, 0x99, 0x7F, 0xC0,
;0xFC, 0x0F, 0x3E, 0xF8, 0x00, 0x00, 0x00, 0x00,
;0x00, 0x00, 0x00, 0x00, 0xFE, 0xBC, 0x3F, 0x8F,
;0xF9, 0xFF, 0xFF, 0xFF, 0x00, 0x00, 0x00, 0x00,
;0x00, 0x00, 0x00, 0x00, 0x7E, 0x3E, 0xBF, 0x77,
;0xF2, 0xFF, 0xFF, 0xFF, 0x00, 0x00, 0x00, 0x00,
;0x00, 0x00, 0x00, 0x00, 0x3E, 0x73, 0xDF, 0xF3,
;0xF6, 0xFF, 0xFF, 0xFF, 0x00, 0x00, 0x00, 0x00,
;0x00, 0x00, 0x00, 0x00, 0xBE, 0xEC, 0xDE, 0xFB,
;0xED, 0xFF, 0xFF, 0xFF, 0x00, 0x00, 0x00, 0x00,
;0x00, 0x00, 0x00, 0x00, 0x9E, 0xCE, 0xCC, 0xF9,
;0xCB, 0xFF, 0xFF, 0xFF, 0x00, 0x00, 0x00, 0x00,
;0x00, 0x00, 0x00, 0x00, 0x5E, 0xCF, 0xCD, 0xFD,
;0xDB, 0x1F, 0x7F, 0xFC, 0x00, 0x00, 0x00, 0x00,
;0x00, 0x00, 0x00, 0x00, 0x4E, 0xCF, 0xC9, 0xFE,
;0xDB, 0x0F, 0x3E, 0xF8, 0x00, 0x00, 0x00, 0x00,
;0x00, 0x00, 0x00, 0x00, 0x8E, 0xDF, 0x03, 0xC2,
;0x9B, 0xFF, 0xFF, 0xFF, 0x00, 0x00, 0x00, 0x00,
;0x00, 0x00, 0x00, 0x00, 0xAE, 0x9F, 0x71, 0x38,
;0xB8, 0xFF, 0xFF, 0xFF, 0x00, 0x00, 0x00, 0x00,
;0x00, 0x00, 0x00, 0x00, 0xAE, 0x3F, 0x24, 0xFD,
;0xBC, 0xFF, 0xFF, 0xFF, 0x00, 0x00, 0x00, 0x00,
;0x00, 0x00, 0x00, 0x00, 0xA6, 0x7F, 0x8E, 0xFB,
;0xBF, 0xFF, 0xFF, 0xFF, 0x00, 0x00, 0x00, 0x00,
;0x00, 0x00, 0x00, 0x00, 0xA6, 0x7F, 0x84, 0xF1,
;0x9F, 0xFF, 0xFF, 0xFF, 0x00, 0x00, 0x00, 0x00,
;0x00, 0x00, 0x00, 0x00, 0x06, 0x00, 0x00, 0x00,
;0x80, 0x1F, 0x3E, 0xF8, 0x00, 0x00, 0x00, 0x00,
;0x00, 0x00, 0x00, 0x00, 0x26, 0xFF, 0x8E, 0xFB,
;0xBF, 0xFF, 0xFF, 0xFF, 0x00, 0x00, 0x00, 0x00,
;0x00, 0x00, 0x00, 0x00, 0x6E, 0xFF, 0x24, 0xF1,
;0xBF, 0xFF, 0xFF, 0xFF, 0x00, 0x00, 0x00, 0x00,
;0x00, 0x00, 0x00, 0x00, 0x6E, 0x1C, 0x70, 0xE4,
;0xBF, 0xFF, 0xFF, 0xFF, 0x00, 0x00, 0x00, 0x00,
;0x00, 0x00, 0x00, 0x00, 0xEE, 0xC1, 0x03, 0xCE,
;0x9F, 0xFF, 0xFF, 0xFF, 0x00, 0x00, 0x00, 0x00,
;0x00, 0x00, 0x00, 0x00, 0xCE, 0xFF, 0x99, 0x9E,
;0xDF, 0x1F, 0x7E, 0xFC, 0x00, 0x00, 0x00, 0x00,
;0x00, 0x00, 0x00, 0x00, 0xDE, 0xFF, 0xBD, 0xBD,
;0xDF, 0x1F, 0x7F, 0xFC, 0x00, 0x00, 0x00, 0x00,
;0x00, 0x00, 0x00, 0x00, 0x9E, 0xFF, 0xBC, 0xB9,
;0xCF, 0xFF, 0xFF, 0xFF, 0x00, 0x00, 0x00, 0x00,
;0x00, 0x00, 0x00, 0x00, 0xBE, 0xFF, 0x9E, 0x3B,
;0xEF, 0xFF, 0xFF, 0xFF, 0x00, 0x00, 0x00, 0x00,
;0x00, 0x00, 0x00, 0x00, 0x3E, 0x7F, 0xCE, 0x33,
;0xF7, 0xFF, 0xFF, 0xFF, 0x00, 0x00, 0x00, 0x00,
;0x00, 0x00, 0x00, 0x00, 0x7E, 0x3E, 0xF3, 0xB7,
;0xF3, 0xFF, 0xFF, 0xFF, 0x00, 0x00, 0x00, 0x00,
;0x00, 0x00, 0x00, 0x00, 0xFE, 0xBC, 0xF9, 0x8F,
;0xF9, 0xFF, 0xFF, 0xFF, 0x00, 0x00, 0x00, 0x00,
;0x00, 0x00, 0x00, 0x00, 0xFE, 0x99, 0xF9, 0xCF,
;0xFC, 0x0F, 0x3E, 0xF8, 0x00, 0x00, 0x00, 0x00,
;0x00, 0x00, 0x00, 0x00, 0xFE, 0xC3, 0xF3, 0x01,
;0xFE, 0xFF, 0xFF, 0xFF, 0x00, 0x00, 0x00, 0x00,
;0x00, 0x00, 0x00, 0x00, 0xFE, 0xC7, 0x07, 0x9C,
;0xFF, 0xFF, 0xFF, 0xFF, 0x00, 0x00, 0x00, 0x00,
;0x00, 0x00, 0x00, 0x00, 0xFE, 0x1F, 0xFF, 0xC7,
;0xFF, 0xFF, 0xFF, 0xFF, 0x00, 0x00, 0x00, 0x00,
;0x00, 0x00, 0x00, 0x00, 0xFE, 0x7F, 0x00, 0xF8,
;0xFF, 0xFF, 0xFF, 0xFF, 0x00, 0x00, 0x00, 0x00,
;0x00, 0x00, 0x00, 0x00, 0xFE, 0xFF, 0x8F, 0xFF,
;0xFF, 0xFF, 0xFF, 0xFF, 0x00, 0x00, 0x00, 0x00,
;0x00, 0x00, 0x00, 0x00, 0xFE, 0xFF, 0xFF, 0xFF,
;0xFF, 0xFF, 0xFF, 0xFF, 0x00, 0x00, 0x00, 0x00,
;0x00, 0x00, 0x00, 0x00, 0xFC, 0xFF, 0xFF, 0xFF,
;0xFF, 0xFF, 0xFF, 0x7F, 0x00, 0x00, 0x00, 0x00,
;0x00, 0x00, 0x00, 0x00, 0xF8, 0xFF, 0xFF, 0xFF,
;0xFF, 0xFF, 0xFF, 0x3F, 0x00, 0x00, 0x00, 0x00,
;0x00, 0x00, 0x00, 0x00, 0x00, 0x00, 0x00, 0x00,
;0x00, 0x00, 0x00, 0x00, 0x00, 0x00, 0x00, 0x00,
;0x00, 0x00, 0x00, 0x00, 0x00, 0x00, 0x00, 0x00,
;0x00, 0x00, 0x00, 0x00, 0x00, 0x00, 0x00, 0x00,
;0x00, 0x00, 0x00, 0x00, 0x00, 0xFF, 0x03, 0x00,
;0x00, 0x80, 0xFF, 0x01, 0x00, 0x00, 0x00, 0x00,
;0x00, 0x00, 0x00, 0x00, 0x00, 0xFF, 0x03, 0x00,
;0x00, 0x80, 0xFF, 0x01, 0x00, 0x00, 0x00, 0x00,
;0x00, 0x00, 0x00, 0x00, 0x00, 0xFE, 0x03, 0x00,
;0x00, 0x80, 0xFF, 0x01, 0x00, 0x00, 0x00, 0x00,
;0x00, 0x00, 0x00, 0x00, 0x00, 0x00, 0x00, 0x00,
;0x00, 0x00, 0x00, 0x00, 0x00, 0x00, 0x00, 0x00,
;0x00, 0x00, 0x00, 0x00, 0x00, 0x00, 0x00, 0x00,
;0x00, 0x00, 0x00, 0x00, 0x00, 0x00, 0x00, 0x00,
;0x00, 0x00, 0x00, 0x00, 0x00, 0x00, 0x00, 0x00,
;0x00, 0x00, 0x00, 0x00, 0x00, 0x00, 0x00, 0x00,
;0x00, 0x00, 0x00, 0x00, 0x00, 0x00, 0x00, 0x00,
;0x00, 0x00, 0x00, 0x00, 0x00, 0x00, 0x00, 0x00,
;0x00, 0x00, 0x00, 0x00, 0x00, 0x00, 0x00, 0x00,
;0x00, 0x00, 0x00, 0x00, 0x00, 0x00, 0x00, 0x00,
;0x00, 0x00, 0x00, 0x00, 0x00, 0x00, 0x00, 0x00,
;0x00, 0x00, 0x00, 0x00, 0x00, 0x00, 0x00, 0x00,
;0x00, 0x00, 0x00, 0x00, 0x00, 0x00, 0x00, 0x00,
;0x00, 0x00, 0x00, 0x00, 0x00, 0x00, 0x00, 0x00,
;0x00, 0x00, 0x00, 0x00, 0x00, 0x00, 0x00, 0x00,
;0x00, 0x00, 0x00, 0x00, 0x00, 0x00, 0x00, 0x00,
;#else
;/* Image data for monochrome displays organized
;   as rows of vertical bytes */
;0x00, 0x00, 0x00, 0x00, 0x00, 0x00, 0x00, 0x00,
;0x00, 0x00, 0x00, 0x00, 0x00, 0x00, 0x00, 0x00,
;0x00, 0x00, 0x00, 0x00, 0x00, 0x00, 0x00, 0x00,
;0x00, 0x00, 0x00, 0x00, 0x00, 0x00, 0x00, 0x00,
;0x00, 0x00, 0x00, 0x00, 0x00, 0x00, 0x00, 0x00,
;0x00, 0x00, 0x00, 0x00, 0x00, 0x00, 0x00, 0x00,
;0x00, 0x00, 0x00, 0x00, 0x00, 0x00, 0x00, 0x00,
;0x00, 0x00, 0x00, 0x00, 0x00, 0x00, 0x00, 0x00,
;0x00, 0x00, 0x00, 0x00, 0x00, 0x00, 0x00, 0x00,
;0x00, 0x00, 0x00, 0x00, 0x00, 0x00, 0x00, 0x00,
;0x00, 0x00, 0x00, 0x00, 0x00, 0x00, 0x00, 0x00,
;0x00, 0x00, 0x00, 0x00, 0x00, 0x00, 0x00, 0x00,
;0x00, 0x00, 0x00, 0x00, 0x00, 0x00, 0x00, 0x00,
;0x00, 0x00, 0x00, 0x00, 0x00, 0x00, 0x00, 0x00,
;0x00, 0x00, 0x00, 0x00, 0x00, 0x00, 0x00, 0x00,
;0x00, 0x00, 0x00, 0x00, 0x00, 0x00, 0x00, 0x00,
;0x00, 0x00, 0x00, 0x00, 0x00, 0x00, 0x00, 0x00,
;0x00, 0x00, 0x00, 0x00, 0x00, 0x00, 0x00, 0x00,
;0x00, 0x00, 0x00, 0x00, 0x00, 0x00, 0x00, 0x00,
;0x00, 0x00, 0x00, 0x00, 0x00, 0x00, 0x00, 0x00,
;0x00, 0xF8, 0xFC, 0xFE, 0xFE, 0xFE, 0xFE, 0xFE,
;0xFE, 0xFE, 0xFE, 0x7E, 0x7E, 0x3E, 0xBE, 0xBE,
;0x9E, 0xDE, 0xDE, 0xDE, 0xDE, 0xDE, 0xDE, 0xDE,
;0xDE, 0xDE, 0x9E, 0xBE, 0xBE, 0x7E, 0x7E, 0xFE,
;0xFE, 0xFE, 0xFE, 0xFE, 0xFE, 0xFE, 0xFE, 0xFE,
;0xFE, 0xFE, 0xFE, 0xFE, 0xFE, 0xFE, 0xFE, 0xFE,
;0xFE, 0xFE, 0xFE, 0xFE, 0xFE, 0xFE, 0xFE, 0xFE,
;0xFE, 0xFE, 0xFE, 0xFE, 0xFE, 0xFE, 0xFC, 0xF8,
;0x00, 0x00, 0x00, 0x00, 0x00, 0x00, 0x00, 0x00,
;0x00, 0x00, 0x00, 0x00, 0x00, 0x00, 0x00, 0x00,
;0x00, 0x00, 0x00, 0x00, 0x00, 0x00, 0x00, 0x00,
;0x00, 0x00, 0x00, 0x00, 0x00, 0x00, 0x00, 0x00,
;0x00, 0x00, 0x00, 0x00, 0x00, 0x00, 0x00, 0x00,
;0x00, 0x00, 0x00, 0x00, 0x00, 0x00, 0x00, 0x00,
;0x00, 0x00, 0x00, 0x00, 0x00, 0x00, 0x00, 0x00,
;0x00, 0x00, 0x00, 0x00, 0x00, 0x00, 0x00, 0x00,
;0x00, 0xFF, 0xFF, 0xFF, 0xFF, 0x3F, 0x8F, 0x67,
;0x93, 0xD9, 0xEC, 0xEE, 0x1E, 0x3C, 0xF1, 0xE7,
;0x9F, 0x3F, 0xFF, 0xFF, 0x3F, 0x0F, 0xF3, 0xF9,
;0xFD, 0x3C, 0x8C, 0xE5, 0xF9, 0xF8, 0xFA, 0xF6,
;0xE4, 0xD9, 0x33, 0xE7, 0x9F, 0x3F, 0xFF, 0xFF,
;0xFF, 0xFF, 0xFF, 0xFF, 0xFD, 0x7D, 0x7D, 0x7D,
;0xFD, 0xFF, 0xFF, 0xFF, 0xFF, 0xFF, 0xFD, 0x7D,
;0x7D, 0x7D, 0xFD, 0xFF, 0xFF, 0xFF, 0xFF, 0xFF,
;0x00, 0x00, 0x00, 0x00, 0x00, 0x00, 0x00, 0x00,
;0x00, 0x00, 0x00, 0x00, 0x00, 0x00, 0x00, 0x00,
;0x00, 0x00, 0x00, 0x00, 0x00, 0x00, 0x00, 0x00,
;0x00, 0x00, 0x00, 0x00, 0x00, 0x00, 0x00, 0x00,
;0x00, 0x00, 0x00, 0x00, 0x00, 0x00, 0x00, 0x00,
;0x00, 0x00, 0x00, 0x00, 0x00, 0x00, 0x00, 0x00,
;0x00, 0x00, 0x00, 0x00, 0x00, 0x00, 0x00, 0x00,
;0x00, 0x00, 0x00, 0x00, 0x00, 0x00, 0x00, 0x00,
;0x00, 0xFF, 0xFF, 0x0F, 0x00, 0xBC, 0x01, 0x3E,
;0xBF, 0xBF, 0xBF, 0xBF, 0xBE, 0xB8, 0xB3, 0x87,
;0x07, 0x92, 0xB8, 0x91, 0x04, 0x0C, 0x05, 0xB1,
;0xB8, 0x93, 0x09, 0x9D, 0xBD, 0xBD, 0xBB, 0xBB,
;0xB3, 0xB3, 0xB8, 0xBF, 0xBF, 0x9C, 0x01, 0xFF,
;0xFF, 0xFF, 0xFF, 0xFF, 0xFE, 0xBE, 0xBE, 0xBE,
;0xBE, 0xFF, 0xFF, 0xFF, 0xFF, 0xFF, 0xBE, 0xBE,
;0xBE, 0xBE, 0xBE, 0xFF, 0xFF, 0xFF, 0xFF, 0xFF,
;0x00, 0x00, 0x00, 0x00, 0x00, 0x00, 0x00, 0x00,
;0x00, 0x00, 0x00, 0x00, 0x00, 0x00, 0x00, 0x00,
;0x00, 0x00, 0x00, 0x00, 0x00, 0x00, 0x00, 0x00,
;0x00, 0x00, 0x00, 0x00, 0x00, 0x00, 0x00, 0x00,
;0x00, 0x00, 0x00, 0x00, 0x00, 0x00, 0x00, 0x00,
;0x00, 0x00, 0x00, 0x00, 0x00, 0x00, 0x00, 0x00,
;0x00, 0x00, 0x00, 0x00, 0x00, 0x00, 0x00, 0x00,
;0x00, 0x00, 0x00, 0x00, 0x00, 0x00, 0x00, 0x00,
;0x00, 0xFF, 0xFF, 0xFF, 0xF0, 0xC7, 0x1F, 0x7C,
;0xFD, 0xF9, 0xFB, 0xFB, 0xFB, 0xF9, 0xFD, 0x7D,
;0x1C, 0xC4, 0xF1, 0xF8, 0x7A, 0x33, 0x82, 0xF8,
;0xF1, 0xCC, 0x1E, 0x7C, 0xF9, 0xF3, 0x07, 0x3F,
;0xFF, 0xFF, 0xFF, 0x7F, 0x9F, 0xC3, 0xF8, 0xFF,
;0xFF, 0xFF, 0xFF, 0xFF, 0xFF, 0xE7, 0xE7, 0xE7,
;0xF7, 0xFF, 0xFF, 0xFF, 0xFF, 0xFF, 0xFF, 0xE7,
;0xE7, 0xE7, 0xFF, 0xFF, 0xFF, 0xFF, 0xFF, 0xFF,
;0x00, 0x00, 0x00, 0x00, 0x00, 0x00, 0x00, 0x00,
;0x00, 0x00, 0x00, 0x00, 0x00, 0x00, 0x00, 0x00,
;0x00, 0x00, 0x00, 0x00, 0x00, 0x00, 0x00, 0x00,
;0x00, 0x00, 0x00, 0x00, 0x00, 0x00, 0x00, 0x00,
;0x00, 0x00, 0x00, 0x00, 0x00, 0x00, 0x00, 0x00,
;0x00, 0x00, 0x00, 0x00, 0x00, 0x00, 0x00, 0x00,
;0x00, 0x00, 0x00, 0x00, 0x00, 0x00, 0x00, 0x00,
;0x00, 0x00, 0x00, 0x00, 0x00, 0x00, 0x00, 0x00,
;0x00, 0xFF, 0xFF, 0xFF, 0xFF, 0xFF, 0xFF, 0xFE,
;0xFC, 0xF9, 0xF3, 0xE7, 0xE7, 0xC3, 0xD8, 0x9E,
;0xBF, 0xB9, 0xB0, 0xA6, 0x2F, 0x2F, 0x2F, 0xAF,
;0xAF, 0xA7, 0xB7, 0xD6, 0xD1, 0xC1, 0xE4, 0xF7,
;0xF3, 0xF9, 0xFC, 0xFE, 0xFF, 0xFF, 0xFF, 0xFF,
;0xFF, 0xFF, 0xFF, 0xFF, 0xFB, 0xFB, 0xFB, 0xFB,
;0xFB, 0xFF, 0xFF, 0xFF, 0xFF, 0xFF, 0xFB, 0xFB,
;0xFB, 0xFB, 0xFB, 0xFF, 0xFF, 0xFF, 0xFF, 0xFF,
;0x00, 0x00, 0x00, 0x00, 0x00, 0x00, 0x00, 0x00,
;0x00, 0x00, 0x00, 0x00, 0x00, 0x00, 0x00, 0x00,
;0x00, 0x00, 0x00, 0x00, 0x00, 0x00, 0x00, 0x00,
;0x00, 0x00, 0x00, 0x00, 0x00, 0x00, 0x00, 0x00,
;0x00, 0x00, 0x00, 0x00, 0x00, 0x00, 0x00, 0x00,
;0x00, 0x00, 0x00, 0x00, 0x00, 0x00, 0x00, 0x00,
;0x00, 0x00, 0x00, 0x00, 0x00, 0x00, 0x00, 0x00,
;0x00, 0x00, 0x00, 0x00, 0x00, 0x00, 0x00, 0x00,
;0x00, 0x01, 0x03, 0x07, 0x07, 0x07, 0x07, 0x07,
;0x67, 0xE7, 0xE7, 0xE7, 0xE7, 0xE7, 0xE7, 0xE7,
;0xE7, 0xE7, 0x07, 0x07, 0x07, 0x07, 0x07, 0x07,
;0x07, 0x07, 0x07, 0x07, 0x07, 0x07, 0x07, 0x07,
;0x07, 0x07, 0x07, 0x07, 0x07, 0x07, 0x07, 0x07,
;0x07, 0x07, 0x07, 0x07, 0x07, 0x07, 0x07, 0xE7,
;0xE7, 0xE7, 0xE7, 0xE7, 0xE7, 0xE7, 0xE7, 0xE7,
;0xE7, 0x07, 0x07, 0x07, 0x07, 0x07, 0x03, 0x01,
;0x00, 0x00, 0x00, 0x00, 0x00, 0x00, 0x00, 0x00,
;0x00, 0x00, 0x00, 0x00, 0x00, 0x00, 0x00, 0x00,
;0x00, 0x00, 0x00, 0x00, 0x00, 0x00, 0x00, 0x00,
;0x00, 0x00, 0x00, 0x00, 0x00, 0x00, 0x00, 0x00,
;0x00, 0x00, 0x00, 0x00, 0x00, 0x00, 0x00, 0x00,
;0x00, 0x00, 0x00, 0x00, 0x00, 0x00, 0x00, 0x00,
;0x00, 0x00, 0x00, 0x00, 0x00, 0x00, 0x00, 0x00,
;0x00, 0x00, 0x00, 0x00, 0x00, 0x00, 0x00, 0x00,
;0x00, 0x00, 0x00, 0x00, 0x00, 0x00, 0x00, 0x00,
;0x00, 0x00, 0x00, 0x00, 0x00, 0x00, 0x00, 0x00,
;0x00, 0x00, 0x00, 0x00, 0x00, 0x00, 0x00, 0x00,
;0x00, 0x00, 0x00, 0x00, 0x00, 0x00, 0x00, 0x00,
;0x00, 0x00, 0x00, 0x00, 0x00, 0x00, 0x00, 0x00,
;0x00, 0x00, 0x00, 0x00, 0x00, 0x00, 0x00, 0x00,
;0x00, 0x00, 0x00, 0x00, 0x00, 0x00, 0x00, 0x00,
;0x00, 0x00, 0x00, 0x00, 0x00, 0x00, 0x00, 0x00,
;0x00, 0x00, 0x00, 0x00, 0x00, 0x00, 0x00, 0x00,
;0x00, 0x00, 0x00, 0x00, 0x00, 0x00, 0x00, 0x00,
;0x00, 0x00, 0x00, 0x00, 0x00, 0x00, 0x00, 0x00,
;0x00, 0x00, 0x00, 0x00, 0x00, 0x00, 0x00, 0x00,
;#endif
;};
;
;    #include "sheater.c"
;/****************************************************************************
;Image data created by the LCD Vision V1.05 font & image editor/converter
;(C) Copyright 2011-2013 Pavel Haiduc, HP InfoTech s.r.l.
;http://www.hpinfotech.com
;
;Graphic LCD controller: ST7920 128x64 4bit Bus /RST PSB=1
;Image width: 60 pixels
;Image height: 32 pixels
;Color depth: 1 bits/pixel
;Imported image file name: sheater.bmp
;
;Exported monochrome image data size:
;260 bytes for displays organized as horizontal rows of bytes
;244 bytes for displays organized as rows of vertical bytes.
;****************************************************************************/
;
;flash unsigned char sheater[]=
;{
;/* Image width: 60 pixels */
;0x3C, 0x00,
;/* Image height: 32 pixels */
;0x20, 0x00,
;#ifndef _GLCD_DATA_BYTEY_
;/* Image data for monochrome displays organized
;   as horizontal rows of bytes */
;0x00, 0x00, 0x00, 0x00, 0x00, 0x00, 0x00, 0x00,
;0x00, 0x00, 0x00, 0x00, 0x00, 0x00, 0x00, 0x00,
;0x00, 0x00, 0x40, 0x60, 0x30, 0x00, 0x00, 0x00,
;0x00, 0x00, 0xC0, 0xE1, 0x70, 0x00, 0x00, 0x00,
;0x00, 0x00, 0x80, 0xC1, 0xE1, 0x00, 0x00, 0x00,
;0x00, 0x00, 0x80, 0xC1, 0xE1, 0x00, 0x00, 0x00,
;0x00, 0x00, 0xC0, 0xE1, 0x70, 0x00, 0x00, 0x00,
;0x00, 0x00, 0xE0, 0x70, 0x38, 0x00, 0x00, 0x00,
;0x00, 0x00, 0x70, 0x38, 0x1C, 0x00, 0x00, 0x00,
;0x00, 0x00, 0x70, 0x38, 0x1C, 0x00, 0x00, 0x00,
;0x00, 0x00, 0xE0, 0x70, 0x38, 0x00, 0x00, 0x00,
;0x00, 0x00, 0xC0, 0x60, 0x30, 0x00, 0x00, 0x00,
;0x00, 0x00, 0xF0, 0xF0, 0xF0, 0x00, 0x00, 0x00,
;0x00, 0x00, 0xF8, 0xF9, 0xF9, 0x01, 0x00, 0x00,
;0x00, 0x00, 0xB8, 0x9B, 0x9B, 0x03, 0x00, 0x00,
;0x00, 0x00, 0x1F, 0x9F, 0x1F, 0x0F, 0x00, 0x00,
;0x00, 0x00, 0x1F, 0x9F, 0x1F, 0x1F, 0x00, 0x00,
;0x00, 0x00, 0x1F, 0x9B, 0x1F, 0x1F, 0x00, 0x00,
;0x00, 0x00, 0x1F, 0x9F, 0x1F, 0x0F, 0x00, 0x00,
;0x00, 0x00, 0x1C, 0x9F, 0x1F, 0x07, 0x00, 0x00,
;0x00, 0x00, 0x18, 0x9B, 0x1F, 0x03, 0x00, 0x00,
;0x00, 0x00, 0x18, 0x9B, 0x1F, 0x03, 0x00, 0x00,
;0x00, 0x00, 0x18, 0x9B, 0x1F, 0x03, 0x00, 0x00,
;0x00, 0x00, 0x18, 0x9B, 0x1F, 0x03, 0x00, 0x00,
;0x00, 0x00, 0x18, 0x9B, 0x1F, 0x03, 0x00, 0x00,
;0x00, 0x00, 0xB8, 0x9B, 0x9F, 0x03, 0x00, 0x00,
;0x00, 0x00, 0xF8, 0xFB, 0xF9, 0x03, 0x00, 0x00,
;0x00, 0x00, 0xF0, 0xF1, 0xF0, 0x00, 0x00, 0x00,
;0x00, 0x00, 0x00, 0x00, 0x00, 0x00, 0x00, 0x00,
;0x00, 0x00, 0x00, 0x00, 0x00, 0x00, 0x00, 0x00,
;0x00, 0x00, 0x00, 0x00, 0x00, 0x00, 0x00, 0x00,
;0x00, 0x00, 0x00, 0x00, 0x00, 0x00, 0x00, 0x00,
;#else
;/* Image data for monochrome displays organized
;   as rows of vertical bytes */
;0x00, 0x00, 0x00, 0x00, 0x00, 0x00, 0x00, 0x00,
;0x00, 0x00, 0x00, 0x00, 0x00, 0x00, 0x00, 0x00,
;0x00, 0x00, 0x00, 0x00, 0x00, 0x80, 0xCC, 0xF8,
;0x78, 0x00, 0x00, 0x00, 0x80, 0xCC, 0xFC, 0x78,
;0x30, 0x00, 0x00, 0x80, 0xCC, 0xFC, 0x78, 0x30,
;0x00, 0x00, 0x00, 0x00, 0x00, 0x00, 0x00, 0x00,
;0x00, 0x00, 0x00, 0x00, 0x00, 0x00, 0x00, 0x00,
;0x00, 0x00, 0x00, 0x00, 0x00, 0x00, 0x00, 0x00,
;0x00, 0x00, 0x00, 0x00, 0x00, 0x00, 0x00, 0x00,
;0x00, 0x00, 0x00, 0x00, 0x80, 0x80, 0x80, 0xE0,
;0xF3, 0x77, 0x3F, 0x7C, 0xE0, 0xC0, 0x80, 0xE3,
;0xF7, 0x3F, 0x3C, 0xF0, 0xE0, 0xC0, 0x83, 0xE7,
;0xFF, 0x3C, 0x30, 0x70, 0xE0, 0xC0, 0x80, 0x80,
;0x00, 0x00, 0x00, 0x00, 0x00, 0x00, 0x00, 0x00,
;0x00, 0x00, 0x00, 0x00, 0x00, 0x00, 0x00, 0x00,
;0x00, 0x00, 0x00, 0x00, 0x00, 0x00, 0x00, 0x00,
;0x00, 0x00, 0x00, 0x00, 0x00, 0x00, 0x00, 0x00,
;0x07, 0x07, 0x0F, 0xFF, 0xFF, 0x00, 0x00, 0x00,
;0xFF, 0xFF, 0x0D, 0xFF, 0xFF, 0x00, 0x00, 0xFF,
;0xFF, 0xFF, 0xFF, 0xFF, 0xFF, 0x00, 0x00, 0x00,
;0xFF, 0xFF, 0x0F, 0x07, 0x03, 0x00, 0x00, 0x00,
;0x00, 0x00, 0x00, 0x00, 0x00, 0x00, 0x00, 0x00,
;0x00, 0x00, 0x00, 0x00, 0x00, 0x00, 0x00, 0x00,
;0x00, 0x00, 0x00, 0x00, 0x00, 0x00, 0x00, 0x00,
;0x00, 0x00, 0x00, 0x00, 0x00, 0x00, 0x00, 0x07,
;0x0F, 0x0E, 0x0C, 0x0E, 0x0F, 0x07, 0x00, 0x07,
;0x0F, 0x0C, 0x0C, 0x0F, 0x07, 0x03, 0x03, 0x07,
;0x0F, 0x0C, 0x0C, 0x0E, 0x07, 0x07, 0x00, 0x00,
;0x00, 0x00, 0x00, 0x00, 0x00, 0x00, 0x00, 0x00,
;0x00, 0x00, 0x00, 0x00, 0x00, 0x00, 0x00, 0x00,
;#endif
;};
;
;    #include "scooler.c"
;/****************************************************************************
;Image data created by the LCD Vision V1.05 font & image editor/converter
;(C) Copyright 2011-2013 Pavel Haiduc, HP InfoTech s.r.l.
;http://www.hpinfotech.com
;
;Graphic LCD controller: ST7920 128x64 4bit Bus /RST PSB=1
;Image width: 60 pixels
;Image height: 32 pixels
;Color depth: 1 bits/pixel
;Imported image file name: scooler.bmp
;
;Exported monochrome image data size:
;260 bytes for displays organized as horizontal rows of bytes
;244 bytes for displays organized as rows of vertical bytes.
;****************************************************************************/
;
;flash unsigned char scooler[]=
;{
;/* Image width: 60 pixels */
;0x3C, 0x00,
;/* Image height: 32 pixels */
;0x20, 0x00,
;#ifndef _GLCD_DATA_BYTEY_
;/* Image data for monochrome displays organized
;   as horizontal rows of bytes */
;0x00, 0x00, 0x00, 0x00, 0x00, 0x00, 0x00, 0x00,
;0x00, 0x00, 0x00, 0x00, 0x00, 0x00, 0x00, 0x00,
;0x00, 0x00, 0x00, 0x00, 0x00, 0x00, 0x00, 0x00,
;0x00, 0x00, 0x00, 0x00, 0x00, 0x00, 0x00, 0x00,
;0x00, 0x00, 0xFF, 0xFF, 0xFF, 0x1F, 0x00, 0x00,
;0x00, 0x80, 0xFF, 0xFF, 0xFF, 0x3F, 0x00, 0x00,
;0x00, 0x80, 0xE1, 0x0F, 0xFF, 0x3F, 0x00, 0x00,
;0x00, 0x80, 0xE1, 0x0F, 0x87, 0x30, 0x00, 0x00,
;0x00, 0x80, 0x81, 0x03, 0x87, 0x30, 0x00, 0x00,
;0x00, 0x80, 0x81, 0x03, 0x87, 0x30, 0x00, 0x00,
;0x00, 0x80, 0x07, 0xC0, 0x87, 0x30, 0x00, 0x00,
;0x00, 0x80, 0x07, 0xC0, 0xFF, 0x3F, 0x00, 0x00,
;0x00, 0x80, 0x1F, 0xE0, 0x87, 0x30, 0x00, 0x00,
;0x00, 0x80, 0x1F, 0xE0, 0x87, 0x30, 0x00, 0x00,
;0x00, 0x80, 0x1F, 0xE0, 0x87, 0x30, 0x00, 0x00,
;0x00, 0x80, 0x1F, 0xE0, 0x87, 0x30, 0x00, 0x00,
;0x00, 0x80, 0x07, 0xC0, 0xFF, 0x3F, 0x00, 0x00,
;0x00, 0x80, 0x07, 0xC0, 0x87, 0x30, 0x00, 0x00,
;0x00, 0x80, 0x81, 0x03, 0x87, 0x30, 0x00, 0x00,
;0x00, 0x80, 0x81, 0x03, 0x87, 0x30, 0x00, 0x00,
;0x00, 0x80, 0xE1, 0x0F, 0x87, 0x30, 0x00, 0x00,
;0x00, 0x80, 0xE1, 0x0F, 0xFF, 0x3F, 0x00, 0x00,
;0x00, 0x80, 0xFF, 0xFF, 0xFF, 0x3F, 0x00, 0x00,
;0x00, 0x80, 0xFF, 0xFF, 0xFF, 0x3F, 0x00, 0x00,
;0x00, 0x80, 0xFF, 0xFF, 0xFF, 0x3F, 0x00, 0x00,
;0x00, 0x00, 0xFF, 0xFF, 0xFF, 0x1F, 0x00, 0x00,
;0x00, 0x00, 0xF8, 0x00, 0xE0, 0x03, 0x00, 0x00,
;0x00, 0x00, 0xF8, 0x00, 0xE0, 0x03, 0x00, 0x00,
;0x00, 0x00, 0x00, 0x00, 0x00, 0x00, 0x00, 0x00,
;0x00, 0x00, 0x00, 0x00, 0x00, 0x00, 0x00, 0x00,
;0x00, 0x00, 0x00, 0x00, 0x00, 0x00, 0x00, 0x00,
;0x00, 0x00, 0x00, 0x00, 0x00, 0x00, 0x00, 0x00,
;#else
;/* Image data for monochrome displays organized
;   as rows of vertical bytes */
;0x00, 0x00, 0x00, 0x00, 0x00, 0x00, 0x00, 0x00,
;0x00, 0x00, 0x00, 0x00, 0x00, 0x00, 0x00, 0xE0,
;0xF0, 0x30, 0x30, 0x30, 0x30, 0xF0, 0xF0, 0xF0,
;0xF0, 0xF0, 0xF0, 0xF0, 0x30, 0x30, 0x30, 0x30,
;0xF0, 0xF0, 0xF0, 0x70, 0x70, 0x70, 0x70, 0xF0,
;0x70, 0x70, 0x70, 0x70, 0xF0, 0xE0, 0x00, 0x00,
;0x00, 0x00, 0x00, 0x00, 0x00, 0x00, 0x00, 0x00,
;0x00, 0x00, 0x00, 0x00, 0x00, 0x00, 0x00, 0x00,
;0x00, 0x00, 0x00, 0x00, 0x00, 0x00, 0x00, 0x00,
;0x00, 0x00, 0x00, 0xFF, 0xFF, 0xFC, 0xFC, 0xF0,
;0xF0, 0x00, 0x00, 0x03, 0x03, 0x03, 0x00, 0x00,
;0x00, 0xF0, 0xFC, 0xFC, 0xFF, 0xFF, 0xFF, 0x08,
;0x08, 0x08, 0x08, 0xFF, 0x08, 0x08, 0x08, 0x08,
;0xFF, 0xFF, 0x00, 0x00, 0x00, 0x00, 0x00, 0x00,
;0x00, 0x00, 0x00, 0x00, 0x00, 0x00, 0x00, 0x00,
;0x00, 0x00, 0x00, 0x00, 0x00, 0x00, 0x00, 0x00,
;0x00, 0x00, 0x00, 0x00, 0x00, 0x00, 0x00, 0xFF,
;0xFF, 0xC3, 0xC3, 0xC0, 0xC0, 0xF0, 0xF0, 0xFC,
;0xFC, 0xFC, 0xF0, 0xF0, 0xC0, 0xC0, 0xC3, 0xC3,
;0xFF, 0xFF, 0xFF, 0xE1, 0xE1, 0xE1, 0xE1, 0xFF,
;0xE1, 0xE1, 0xE1, 0xE1, 0xFF, 0xFF, 0x00, 0x00,
;0x00, 0x00, 0x00, 0x00, 0x00, 0x00, 0x00, 0x00,
;0x00, 0x00, 0x00, 0x00, 0x00, 0x00, 0x00, 0x00,
;0x00, 0x00, 0x00, 0x00, 0x00, 0x00, 0x00, 0x00,
;0x00, 0x00, 0x00, 0x01, 0x03, 0x03, 0x03, 0x0F,
;0x0F, 0x0F, 0x0F, 0x0F, 0x03, 0x03, 0x03, 0x03,
;0x03, 0x03, 0x03, 0x03, 0x03, 0x03, 0x03, 0x03,
;0x03, 0x0F, 0x0F, 0x0F, 0x0F, 0x0F, 0x03, 0x03,
;0x03, 0x01, 0x00, 0x00, 0x00, 0x00, 0x00, 0x00,
;0x00, 0x00, 0x00, 0x00, 0x00, 0x00, 0x00, 0x00,
;#endif
;};
;
;    #include "days.c"
;/****************************************************************************
;Image data created by the LCD Vision V1.05 font & image editor/converter
;(C) Copyright 2011-2013 Pavel Haiduc, HP InfoTech s.r.l.
;http://www.hpinfotech.com
;
;Graphic LCD controller: ST7920 128x64 4bit Bus /RST PSB=1
;Image width: 128 pixels
;Image height: 32 pixels
;Color depth: 1 bits/pixel
;Imported image file name: days.bmp
;
;Exported monochrome image data size:
;516 bytes for displays organized as horizontal rows of bytes
;516 bytes for displays organized as rows of vertical bytes.
;****************************************************************************/
;
;flash unsigned char days[]=
;{
;/* Image width: 128 pixels */
;0x80, 0x00,
;/* Image height: 32 pixels */
;0x20, 0x00,
;#ifndef _GLCD_DATA_BYTEY_
;/* Image data for monochrome displays organized
;   as horizontal rows of bytes */
;0x00, 0x00, 0x00, 0x00, 0x00, 0x00, 0x00, 0x00,
;0x00, 0x00, 0x00, 0x00, 0x00, 0x00, 0x00, 0x00,
;0xFE, 0xFF, 0xFF, 0xFF, 0xFF, 0xFF, 0xFF, 0xFF,
;0xFF, 0xFF, 0xFF, 0xFF, 0xFF, 0xFF, 0xFF, 0x7F,
;0x02, 0x00, 0x08, 0x00, 0x20, 0x00, 0xC0, 0x00,
;0x00, 0x01, 0x00, 0x04, 0x00, 0x10, 0x00, 0x40,
;0x02, 0x00, 0x08, 0x00, 0x20, 0x00, 0xC0, 0x00,
;0x00, 0x01, 0x00, 0x04, 0x00, 0x10, 0x00, 0x40,
;0x02, 0x00, 0x08, 0x00, 0x20, 0x00, 0xC0, 0x00,
;0x00, 0x01, 0x00, 0x04, 0x00, 0x10, 0x00, 0x40,
;0x02, 0x00, 0x08, 0x00, 0x20, 0x00, 0xC0, 0x00,
;0x00, 0x01, 0x00, 0x04, 0x00, 0x10, 0x00, 0x40,
;0x02, 0x00, 0x08, 0x00, 0x20, 0x00, 0xC0, 0x00,
;0x00, 0x01, 0x00, 0x04, 0x00, 0x10, 0x00, 0x42,
;0x02, 0x00, 0x08, 0x00, 0x20, 0x00, 0xC0, 0x00,
;0x00, 0x01, 0x04, 0x04, 0x00, 0x10, 0x00, 0x45,
;0x02, 0x3F, 0x08, 0x80, 0x21, 0xF8, 0xC3, 0x00,
;0x00, 0x01, 0x1E, 0x04, 0xE0, 0x10, 0x00, 0x40,
;0x82, 0x3F, 0x08, 0x81, 0x21, 0xF8, 0xC3, 0x00,
;0x69, 0x01, 0x1D, 0x04, 0xF0, 0x11, 0x00, 0x4A,
;0x02, 0x07, 0x08, 0xFF, 0x21, 0x70, 0xC0, 0x88,
;0x7F, 0x81, 0x1F, 0x04, 0x71, 0x10, 0xE1, 0x4F,
;0x82, 0x13, 0x08, 0xFF, 0x21, 0xB8, 0xC3, 0x0C,
;0x3F, 0x01, 0x1F, 0x04, 0xF1, 0x11, 0xE1, 0x4F,
;0x82, 0x13, 0x08, 0x7C, 0x20, 0x38, 0xC1, 0xFC,
;0x03, 0x01, 0x06, 0x04, 0xFF, 0x11, 0xFF, 0x45,
;0x82, 0x7F, 0x08, 0x38, 0x20, 0xF8, 0xC3, 0xFC,
;0x03, 0x01, 0x00, 0x04, 0xFF, 0x10, 0x7F, 0x40,
;0x02, 0x3E, 0x08, 0x10, 0x20, 0xE0, 0xC1, 0xF0,
;0x00, 0x01, 0x00, 0x04, 0x3E, 0x10, 0x3E, 0x40,
;0x02, 0x00, 0x08, 0x00, 0x20, 0x00, 0xC0, 0x00,
;0x00, 0x01, 0x00, 0x04, 0x00, 0x10, 0x00, 0x40,
;0xFE, 0xFF, 0xFF, 0xFF, 0xFF, 0xFF, 0xFF, 0xFF,
;0xFF, 0xFF, 0xFF, 0xFF, 0xFF, 0xFF, 0xFF, 0x7F,
;0xFE, 0xFF, 0xFF, 0xFF, 0xFF, 0xFF, 0xFF, 0xFF,
;0xFF, 0xFF, 0xFF, 0xFF, 0xFF, 0xFF, 0xFF, 0x7F,
;0x02, 0x00, 0x08, 0x00, 0x20, 0x00, 0xC0, 0x00,
;0x00, 0x01, 0x00, 0x04, 0x00, 0x10, 0x00, 0x40,
;0x02, 0x00, 0x08, 0x00, 0x20, 0x00, 0xC0, 0x00,
;0x00, 0x01, 0x00, 0x04, 0x00, 0x10, 0x00, 0x40,
;0x02, 0x00, 0x08, 0x00, 0x20, 0x00, 0xC0, 0x00,
;0x00, 0x01, 0x00, 0x04, 0x00, 0x10, 0x00, 0x40,
;0x02, 0x00, 0x08, 0x00, 0x20, 0x00, 0xC0, 0x00,
;0x00, 0x01, 0x00, 0x04, 0x00, 0x10, 0x00, 0x40,
;0x02, 0x00, 0x08, 0x00, 0x20, 0x00, 0xC0, 0x00,
;0x00, 0x01, 0x00, 0x04, 0x00, 0x10, 0x00, 0x40,
;0x02, 0x00, 0x08, 0x00, 0x20, 0x00, 0xC0, 0x00,
;0x00, 0x01, 0x00, 0x04, 0x00, 0x10, 0x00, 0x40,
;0x02, 0x00, 0x08, 0x00, 0x20, 0x00, 0xC0, 0x00,
;0x00, 0x01, 0x00, 0x04, 0x00, 0x10, 0x00, 0x40,
;0x02, 0x00, 0x08, 0x00, 0x20, 0x00, 0xC0, 0x00,
;0x00, 0x01, 0x00, 0x04, 0x00, 0x10, 0x00, 0x40,
;0x02, 0x00, 0x08, 0x00, 0x20, 0x00, 0xC0, 0x00,
;0x00, 0x01, 0x00, 0x04, 0x00, 0x10, 0x00, 0x40,
;0x02, 0x00, 0x08, 0x00, 0x20, 0x00, 0xC0, 0x00,
;0x00, 0x01, 0x00, 0x04, 0x00, 0x10, 0x00, 0x40,
;0x02, 0x00, 0x08, 0x00, 0x20, 0x00, 0xC0, 0x00,
;0x00, 0x01, 0x00, 0x04, 0x00, 0x10, 0x00, 0x40,
;0x02, 0x00, 0x08, 0x00, 0x20, 0x00, 0xC0, 0x00,
;0x00, 0x01, 0x00, 0x04, 0x00, 0x10, 0x00, 0x40,
;0xFE, 0xFF, 0xFF, 0xFF, 0xFF, 0xFF, 0xFF, 0xFF,
;0xFF, 0xFF, 0xFF, 0xFF, 0xFF, 0xFF, 0xFF, 0x7F,
;0x02, 0x00, 0x00, 0x00, 0x20, 0x00, 0x00, 0x00,
;0x00, 0x03, 0x00, 0x04, 0x00, 0x00, 0x00, 0x00,
;#else
;/* Image data for monochrome displays organized
;   as rows of vertical bytes */
;0x00, 0xFE, 0x02, 0x02, 0x02, 0x02, 0x02, 0x02,
;0x02, 0x02, 0x02, 0x02, 0x02, 0x02, 0x02, 0x02,
;0x02, 0x02, 0x02, 0xFE, 0x02, 0x02, 0x02, 0x02,
;0x02, 0x02, 0x02, 0x02, 0x02, 0x02, 0x02, 0x02,
;0x02, 0x02, 0x02, 0x02, 0x02, 0xFE, 0x02, 0x02,
;0x02, 0x02, 0x02, 0x02, 0x02, 0x02, 0x02, 0x02,
;0x02, 0x02, 0x02, 0x02, 0x02, 0x02, 0xFE, 0xFE,
;0x02, 0x02, 0x02, 0x02, 0x02, 0x02, 0x02, 0x02,
;0x02, 0x02, 0x02, 0x02, 0x02, 0x02, 0x02, 0x02,
;0xFE, 0x02, 0x02, 0x02, 0x02, 0x02, 0x02, 0x02,
;0x02, 0x02, 0x82, 0x02, 0x02, 0x02, 0x02, 0x02,
;0x02, 0x02, 0xFE, 0x02, 0x02, 0x02, 0x02, 0x02,
;0x02, 0x02, 0x02, 0x02, 0x02, 0x02, 0x02, 0x02,
;0x02, 0x02, 0x02, 0x02, 0xFE, 0x02, 0x02, 0x02,
;0x02, 0x02, 0x02, 0x02, 0x02, 0x02, 0x02, 0x02,
;0x82, 0x42, 0x82, 0x02, 0x02, 0x02, 0xFE, 0x00,
;0x00, 0xFF, 0x00, 0x00, 0x00, 0x00, 0x00, 0x3A,
;0x3F, 0x7F, 0x67, 0x63, 0x7B, 0x63, 0x20, 0x00,
;0x00, 0x00, 0x00, 0xFF, 0x00, 0x00, 0x00, 0x00,
;0x0E, 0x0C, 0x1C, 0x3C, 0x7C, 0x3C, 0x1C, 0x0F,
;0x0F, 0x00, 0x00, 0x00, 0x00, 0xFF, 0x00, 0x00,
;0x00, 0x00, 0x00, 0x3B, 0x3F, 0x7F, 0x67, 0x6B,
;0x7B, 0x2B, 0x00, 0x00, 0x00, 0x00, 0xFF, 0xFF,
;0x00, 0x00, 0x38, 0x3C, 0x70, 0x70, 0x70, 0x74,
;0x3E, 0x3C, 0x0C, 0x0E, 0x0C, 0x0E, 0x06, 0x00,
;0xFF, 0x00, 0x00, 0x00, 0x00, 0x00, 0x00, 0x04,
;0x0E, 0x1D, 0x1F, 0x0F, 0x0F, 0x00, 0x00, 0x00,
;0x00, 0x00, 0xFF, 0x00, 0x00, 0x00, 0x00, 0x00,
;0x3C, 0x70, 0x70, 0x70, 0x7E, 0x7F, 0x3F, 0x3B,
;0x1A, 0x00, 0x00, 0x00, 0xFF, 0x00, 0x00, 0x00,
;0x3C, 0x70, 0x70, 0x70, 0x70, 0x7C, 0x3C, 0x1C,
;0x1C, 0x0E, 0x1C, 0x0E, 0x00, 0x00, 0xFF, 0x00,
;0x00, 0xFF, 0x03, 0x03, 0x03, 0x03, 0x03, 0x03,
;0x03, 0x03, 0x03, 0x03, 0x03, 0x03, 0x03, 0x03,
;0x03, 0x03, 0x03, 0xFF, 0x03, 0x03, 0x03, 0x03,
;0x03, 0x03, 0x03, 0x03, 0x03, 0x03, 0x03, 0x03,
;0x03, 0x03, 0x03, 0x03, 0x03, 0xFF, 0x03, 0x03,
;0x03, 0x03, 0x03, 0x03, 0x03, 0x03, 0x03, 0x03,
;0x03, 0x03, 0x03, 0x03, 0x03, 0x03, 0xFF, 0xFF,
;0x03, 0x03, 0x03, 0x03, 0x03, 0x03, 0x03, 0x03,
;0x03, 0x03, 0x03, 0x03, 0x03, 0x03, 0x03, 0x03,
;0xFF, 0x03, 0x03, 0x03, 0x03, 0x03, 0x03, 0x03,
;0x03, 0x03, 0x03, 0x03, 0x03, 0x03, 0x03, 0x03,
;0x03, 0x03, 0xFF, 0x03, 0x03, 0x03, 0x03, 0x03,
;0x03, 0x03, 0x03, 0x03, 0x03, 0x03, 0x03, 0x03,
;0x03, 0x03, 0x03, 0x03, 0xFF, 0x03, 0x03, 0x03,
;0x03, 0x03, 0x03, 0x03, 0x03, 0x03, 0x03, 0x03,
;0x03, 0x03, 0x03, 0x03, 0x03, 0x03, 0xFF, 0x00,
;0x00, 0xFF, 0x40, 0x40, 0x40, 0x40, 0x40, 0x40,
;0x40, 0x40, 0x40, 0x40, 0x40, 0x40, 0x40, 0x40,
;0x40, 0x40, 0x40, 0x7F, 0x40, 0x40, 0x40, 0x40,
;0x40, 0x40, 0x40, 0x40, 0x40, 0x40, 0x40, 0x40,
;0x40, 0x40, 0x40, 0x40, 0x40, 0xFF, 0x40, 0x40,
;0x40, 0x40, 0x40, 0x40, 0x40, 0x40, 0x40, 0x40,
;0x40, 0x40, 0x40, 0x40, 0x40, 0x40, 0x7F, 0x7F,
;0x40, 0x40, 0x40, 0x40, 0x40, 0x40, 0x40, 0x40,
;0x40, 0x40, 0x40, 0x40, 0x40, 0x40, 0x40, 0x40,
;0xFF, 0xC0, 0x40, 0x40, 0x40, 0x40, 0x40, 0x40,
;0x40, 0x40, 0x40, 0x40, 0x40, 0x40, 0x40, 0x40,
;0x40, 0x40, 0xFF, 0x40, 0x40, 0x40, 0x40, 0x40,
;0x40, 0x40, 0x40, 0x40, 0x40, 0x40, 0x40, 0x40,
;0x40, 0x40, 0x40, 0x40, 0x7F, 0x40, 0x40, 0x40,
;0x40, 0x40, 0x40, 0x40, 0x40, 0x40, 0x40, 0x40,
;0x40, 0x40, 0x40, 0x40, 0x40, 0x40, 0x7F, 0x00,
;#endif
;};
;
;#include "tempread.h"

	.CSEG
_readtemp:
; .FSTART _readtemp
	CALL _w1_init
	CALL __BSTB1
	BLD  R2,0
	CALL SUBOPT_0x0
	LDI  R26,0
	SBRC R2,0
	LDI  R26,1
	CPI  R26,LOW(0x1)
	BRLO _0x5
	LDI  R26,LOW(0)
	LDI  R27,0
	CALL _ds18b20_temperature
	STS  _temp,R30
	STS  _temp+1,R31
	STS  _temp+2,R22
	STS  _temp+3,R23
_0x5:
	RET
; .FEND
;#include "clockchange.h"
_changeclock:
; .FSTART _changeclock
	LDI  R30,LOW(0)
	STS  _j,R30
	LDI  R30,LOW(1)
	STS  _selection,R30
	CALL SUBOPT_0x1
	SBIC 0x10,3
	RJMP _0x6
	CALL _glcd_clear
_0x7:
	SBIS 0x10,3
	RJMP _0x7
_0xA:
	CALL SUBOPT_0x1
	CALL SUBOPT_0x2
	CPI  R26,LOW(0xA)
	BRNE _0xD
	LDI  R30,LOW(2)
	EOR  R2,R30
	LDI  R30,LOW(0)
	STS  _j,R30
_0xD:
	CALL SUBOPT_0x3
	__POINTW2FN _0x0,0
	CALL _strcpyf
	CALL SUBOPT_0x4
	CALL SUBOPT_0x5
	CALL SUBOPT_0x6
	BRNE _0x82
	CALL SUBOPT_0x5
	CALL SUBOPT_0x7
	BREQ _0x10
	CALL SUBOPT_0x3
	__POINTW2FN _0x0,6
	CALL _strcpyf
	RJMP _0x11
_0x10:
	LDS  R26,_selection
	CPI  R26,LOW(0x1)
	BREQ _0x12
_0x82:
	LDI  R30,LOW(_str)
	LDI  R31,HIGH(_str)
	ST   -Y,R31
	ST   -Y,R30
	__POINTW1FN _0x0,11
	CALL SUBOPT_0x8
	CALL SUBOPT_0x9
_0x12:
_0x11:
	CALL SUBOPT_0xA
	CALL SUBOPT_0xB
	CALL SUBOPT_0xC
	CALL SUBOPT_0x6
	BRNE _0x83
	LDS  R26,_selection
	CALL SUBOPT_0xC
	CALL SUBOPT_0x7
	BREQ _0x15
	CALL SUBOPT_0x3
	CALL SUBOPT_0xD
	RJMP _0x16
_0x15:
	LDS  R26,_selection
	CPI  R26,LOW(0x2)
	BREQ _0x17
_0x83:
	LDI  R30,LOW(_str)
	LDI  R31,HIGH(_str)
	ST   -Y,R31
	ST   -Y,R30
	__POINTW1FN _0x0,17
	ST   -Y,R31
	ST   -Y,R30
	CALL SUBOPT_0xE
	CALL SUBOPT_0x9
_0x17:
_0x16:
	LDI  R30,LOW(5)
	CALL SUBOPT_0xF
	CALL SUBOPT_0x10
	CALL SUBOPT_0x6
	BRNE _0x84
	LDS  R26,_selection
	CALL SUBOPT_0x10
	CALL SUBOPT_0x7
	BREQ _0x1A
	CALL SUBOPT_0x3
	CALL SUBOPT_0xD
	RJMP _0x1B
_0x1A:
	LDS  R26,_selection
	CPI  R26,LOW(0x3)
	BREQ _0x1C
_0x84:
	LDI  R30,LOW(_str)
	LDI  R31,HIGH(_str)
	CALL SUBOPT_0x11
	CALL SUBOPT_0x12
	CALL SUBOPT_0x9
_0x1C:
_0x1B:
	LDI  R30,LOW(8)
	CALL SUBOPT_0xF
	CALL SUBOPT_0x13
	CALL SUBOPT_0x6
	BRNE _0x85
	LDS  R26,_selection
	CALL SUBOPT_0x13
	CALL SUBOPT_0x7
	BREQ _0x1F
	CALL SUBOPT_0x3
	__POINTW2FN _0x0,7
	CALL _strcpyf
	RJMP _0x20
_0x1F:
	LDS  R26,_selection
	CPI  R26,LOW(0x4)
	BREQ _0x21
_0x85:
	LDI  R30,LOW(_str)
	LDI  R31,HIGH(_str)
	CALL SUBOPT_0x14
_0x21:
_0x20:
	LDI  R30,LOW(11)
	CALL SUBOPT_0xF
	CALL SUBOPT_0x15
	CALL SUBOPT_0x6
	BRNE _0x86
	LDS  R26,_selection
	CALL SUBOPT_0x15
	CALL SUBOPT_0x7
	BREQ _0x24
	CALL SUBOPT_0x3
	CALL SUBOPT_0xD
	RJMP _0x25
_0x24:
	LDS  R26,_selection
	CPI  R26,LOW(0x5)
	BREQ _0x26
_0x86:
	LDI  R30,LOW(_str)
	LDI  R31,HIGH(_str)
	CALL SUBOPT_0x16
	CALL SUBOPT_0x17
	CALL SUBOPT_0x9
_0x26:
_0x25:
	LDI  R30,LOW(0)
	CALL SUBOPT_0x18
	CALL SUBOPT_0x19
	CALL SUBOPT_0x6
	BRNE _0x87
	LDS  R26,_selection
	CALL SUBOPT_0x19
	CALL SUBOPT_0x7
	BREQ _0x29
	CALL SUBOPT_0x3
	CALL SUBOPT_0xD
	RJMP _0x2A
_0x29:
	LDS  R26,_selection
	CPI  R26,LOW(0x6)
	BREQ _0x2B
_0x87:
	LDI  R30,LOW(_str)
	LDI  R31,HIGH(_str)
	CALL SUBOPT_0x16
	CALL SUBOPT_0x1A
	CALL SUBOPT_0x9
_0x2B:
_0x2A:
	LDI  R30,LOW(3)
	CALL SUBOPT_0x18
	CALL SUBOPT_0x1B
	CALL SUBOPT_0x6
	BRNE _0x88
	LDS  R26,_selection
	CALL SUBOPT_0x1B
	CALL SUBOPT_0x7
	BREQ _0x2E
	CALL SUBOPT_0x3
	CALL SUBOPT_0xD
	RJMP _0x2F
_0x2E:
	LDS  R26,_selection
	CPI  R26,LOW(0x7)
	BREQ _0x30
_0x88:
	LDI  R30,LOW(_str)
	LDI  R31,HIGH(_str)
	CALL SUBOPT_0x11
	CALL SUBOPT_0x1C
	CALL SUBOPT_0x9
_0x30:
_0x2F:
	LDI  R30,LOW(6)
	CALL SUBOPT_0x1D
	CALL SUBOPT_0x1E
	SBIC 0x10,5
	RJMP _0x31
	LDI  R26,LOW(150)
	LDI  R27,0
	CALL _delay_ms
	SBIC 0x10,5
	RJMP _0x32
	CALL SUBOPT_0x1F
	BRNE _0x33
	INC  R10
_0x33:
	LDS  R26,_selection
	CPI  R26,LOW(0x2)
	BRNE _0x34
	INC  R13
_0x34:
	LDS  R26,_selection
	CPI  R26,LOW(0x3)
	BRNE _0x35
	INC  R12
_0x35:
	LDS  R26,_selection
	CPI  R26,LOW(0x4)
	BRNE _0x36
	INC  R11
_0x36:
	LDS  R26,_selection
	CPI  R26,LOW(0x5)
	BRNE _0x37
	INC  R6
_0x37:
	LDS  R26,_selection
	CPI  R26,LOW(0x6)
	BRNE _0x38
	INC  R9
_0x38:
	LDS  R26,_selection
	CPI  R26,LOW(0x7)
	BRNE _0x39
	INC  R8
_0x39:
_0x32:
_0x31:
	SBIC 0x10,4
	RJMP _0x3A
	LDI  R26,LOW(150)
	LDI  R27,0
	CALL _delay_ms
	SBIC 0x10,4
	RJMP _0x3B
	CALL SUBOPT_0x1F
	BRNE _0x3C
	DEC  R10
_0x3C:
	LDS  R26,_selection
	CPI  R26,LOW(0x2)
	BRNE _0x3D
	DEC  R13
_0x3D:
	LDS  R26,_selection
	CPI  R26,LOW(0x3)
	BRNE _0x3E
	DEC  R12
_0x3E:
	LDS  R26,_selection
	CPI  R26,LOW(0x4)
	BRNE _0x3F
	DEC  R11
_0x3F:
	LDS  R26,_selection
	CPI  R26,LOW(0x5)
	BRNE _0x40
	DEC  R6
_0x40:
	LDS  R26,_selection
	CPI  R26,LOW(0x6)
	BRNE _0x41
	DEC  R9
_0x41:
	LDS  R26,_selection
	CPI  R26,LOW(0x7)
	BRNE _0x42
	DEC  R8
_0x42:
_0x3B:
_0x3A:
	MOV  R26,R10
	LDI  R30,LOW(99)
	CALL __GTB12U
	MOV  R0,R30
	LDI  R30,LOW(101)
	CALL __LTB12U
	AND  R30,R0
	BREQ _0x43
	CLR  R10
_0x43:
	LDI  R30,LOW(101)
	CP   R30,R10
	BRSH _0x44
	LDI  R30,LOW(99)
	MOV  R10,R30
_0x44:
	MOV  R26,R13
	LDI  R30,LOW(12)
	CALL __GTB12U
	MOV  R0,R30
	LDI  R30,LOW(14)
	CALL __LTB12U
	AND  R30,R0
	BREQ _0x45
	LDI  R30,LOW(1)
	MOV  R13,R30
_0x45:
	LDI  R30,LOW(14)
	CP   R30,R13
	BRSH _0x46
	LDI  R30,LOW(12)
	MOV  R13,R30
_0x46:
	MOV  R26,R12
	LDI  R30,LOW(30)
	CALL __GTB12U
	MOV  R0,R30
	LDI  R30,LOW(32)
	CALL __LTB12U
	AND  R30,R0
	BREQ _0x47
	CLR  R12
_0x47:
	LDI  R30,LOW(32)
	CP   R30,R12
	BRSH _0x48
	LDI  R30,LOW(31)
	MOV  R12,R30
_0x48:
	MOV  R26,R11
	LDI  R30,LOW(6)
	CALL __GTB12U
	MOV  R0,R30
	LDI  R30,LOW(8)
	CALL __LTB12U
	AND  R30,R0
	BREQ _0x49
	CLR  R11
_0x49:
	LDI  R30,LOW(8)
	CP   R30,R11
	BRSH _0x4A
	LDI  R30,LOW(6)
	MOV  R11,R30
_0x4A:
	MOV  R26,R6
	LDI  R30,LOW(23)
	CALL __GTB12U
	MOV  R0,R30
	LDI  R30,LOW(25)
	CALL __LTB12U
	AND  R30,R0
	BREQ _0x4B
	CLR  R6
_0x4B:
	LDI  R30,LOW(25)
	CP   R30,R6
	BRSH _0x4C
	LDI  R30,LOW(23)
	MOV  R6,R30
_0x4C:
	MOV  R26,R9
	LDI  R30,LOW(59)
	CALL __GTB12U
	MOV  R0,R30
	LDI  R30,LOW(61)
	CALL __LTB12U
	AND  R30,R0
	BREQ _0x4D
	CLR  R9
_0x4D:
	LDI  R30,LOW(61)
	CP   R30,R9
	BRSH _0x4E
	LDI  R30,LOW(59)
	MOV  R9,R30
_0x4E:
	MOV  R26,R8
	LDI  R30,LOW(59)
	CALL __GTB12U
	MOV  R0,R30
	LDI  R30,LOW(61)
	CALL __LTB12U
	AND  R30,R0
	BREQ _0x4F
	CLR  R8
_0x4F:
	LDI  R30,LOW(61)
	CP   R30,R8
	BRSH _0x50
	LDI  R30,LOW(59)
	MOV  R8,R30
_0x50:
	SBIC 0x10,3
	RJMP _0x51
_0x53:
	CALL SUBOPT_0x20
	SBIS 0x10,3
	RJMP _0x53
	LDS  R30,_selection
	SUBI R30,-LOW(1)
	STS  _selection,R30
	LDS  R26,_selection
	CPI  R26,LOW(0x8)
	BRNE _0x55
	LDI  R26,LOW(100)
	LDI  R27,0
	CALL _delay_ms
	ST   -Y,R6
	ST   -Y,R9
	MOV  R26,R8
	CALL _rtc_set_time
	LDI  R26,LOW(100)
	LDI  R27,0
	CALL _delay_ms
	ST   -Y,R11
	ST   -Y,R12
	ST   -Y,R13
	MOV  R26,R10
	CALL _rtc_set_date
	CALL _glcd_clear
	__POINTW2MN _0x56,0
	CALL _lcd_puts
	CALL SUBOPT_0x21
	RJMP _0xC
_0x55:
_0x51:
	RJMP _0xA
_0xC:
_0x6:
	RET
; .FEND

	.DSEG
_0x56:
	.BYTE 0xA
;#include "clockread.h"

	.CSEG
_readclock:
; .FSTART _readclock
	CALL SUBOPT_0x22
	LDI  R26,LOW(0)
	CALL _rtc_init
	LDI  R30,LOW(6)
	LDI  R31,HIGH(6)
	ST   -Y,R31
	ST   -Y,R30
	LDI  R30,LOW(9)
	LDI  R31,HIGH(9)
	ST   -Y,R31
	ST   -Y,R30
	LDI  R26,LOW(8)
	LDI  R27,HIGH(8)
	CALL _rtc_get_time
	LDI  R30,LOW(_strsec)
	LDI  R31,HIGH(_strsec)
	ST   -Y,R31
	ST   -Y,R30
	__POINTW1FN _0x0,44
	ST   -Y,R31
	ST   -Y,R30
	CALL SUBOPT_0x17
	CALL SUBOPT_0x1A
	CALL SUBOPT_0x1C
	LDI  R24,12
	CALL _sprintf
	ADIW R28,16
	LDI  R30,LOW(0)
	CALL SUBOPT_0x1D
	CALL SUBOPT_0x23
	LDI  R30,LOW(11)
	LDI  R31,HIGH(11)
	ST   -Y,R31
	ST   -Y,R30
	LDI  R30,LOW(12)
	LDI  R31,HIGH(12)
	ST   -Y,R31
	ST   -Y,R30
	LDI  R30,LOW(13)
	LDI  R31,HIGH(13)
	ST   -Y,R31
	ST   -Y,R30
	LDI  R26,LOW(10)
	LDI  R27,HIGH(10)
	CALL _rtc_get_date
	CALL SUBOPT_0x4
	LDI  R30,LOW(_strsec)
	LDI  R31,HIGH(_strsec)
	ST   -Y,R31
	ST   -Y,R30
	__POINTW1FN _0x0,59
	CALL SUBOPT_0x8
	CALL SUBOPT_0xE
	CALL SUBOPT_0x12
	LDI  R24,12
	CALL _sprintf
	ADIW R28,16
	CALL SUBOPT_0xA
	CALL SUBOPT_0x23
	LDI  R30,LOW(6)
	CP   R30,R11
	BRSH _0x57
	CLR  R11
_0x57:
	LDI  R30,LOW(_strsec)
	LDI  R31,HIGH(_strsec)
	CALL SUBOPT_0x14
	LDI  R30,LOW(11)
	ST   -Y,R30
	LDI  R26,LOW(0)
	CALL _lcd_gotoxy
	CALL SUBOPT_0x23
	RET
; .FEND
;#include "calender.h"
_readcalender:
; .FSTART _readcalender
	ST   -Y,R26
	CALL __SAVELOCR4
;	year -> Y+4
;	kabise -> R17
;	esfand -> R16
;	day -> R19
	LDI  R16,29
	MOV  R26,R10
	CLR  R27
	LDI  R30,LOW(33)
	LDI  R31,HIGH(33)
	CALL __MODW21
	MOV  R17,R30
	CPI  R17,1
	BREQ _0x59
	CPI  R17,5
	BREQ _0x59
	CPI  R17,9
	BREQ _0x59
	CPI  R17,13
	BREQ _0x59
	CPI  R17,17
	BREQ _0x59
	CPI  R17,22
	BREQ _0x59
	CPI  R17,26
	BREQ _0x59
	CPI  R17,30
	BRNE _0x58
_0x59:
	LDI  R16,LOW(30)
	LDI  R17,LOW(1)
	RJMP _0x5B
_0x58:
	LDI  R16,LOW(29)
	LDI  R17,LOW(0)
_0x5B:
	CALL __LOADLOCR4
	RJMP _0x2180010
; .FEND
;// Declare your global variables here
;
;// Timer1 overflow interrupt service routine
;interrupt [TIM1_OVF] void timer1_ovf_isr(void)
; 0000 0027 {
_timer1_ovf_isr:
; .FSTART _timer1_ovf_isr
	ST   -Y,R30
; 0000 0028 // Reinitialize Timer1 value
; 0000 0029 TCNT1H=0x5740 >> 8;
	LDI  R30,LOW(87)
	OUT  0x2D,R30
; 0000 002A TCNT1L=0x5740 & 0xff;
	LDI  R30,LOW(64)
	OUT  0x2C,R30
; 0000 002B // Place your code here
; 0000 002C     //if (led==1) led=0;
; 0000 002D     //else led=1;
; 0000 002E     //led^=1;
; 0000 002F 
; 0000 0030 }
	LD   R30,Y+
	RETI
; .FEND
;
;
;
;void main(void)
; 0000 0035     {
_main:
; .FSTART _main
; 0000 0036 
; 0000 0037 
; 0000 0038         #include "configall.h"
	SBIW R28,6
;	glcd_init_data -> Y+0
	LDI  R30,LOW(0)
	OUT  0x1A,R30
	OUT  0x1B,R30
	OUT  0x17,R30
	OUT  0x18,R30
	OUT  0x14,R30
	OUT  0x15,R30
	LDI  R30,LOW(64)
	OUT  0x11,R30
	LDI  R30,LOW(0)
	OUT  0x12,R30
	OUT  0x33,R30
	OUT  0x32,R30
	OUT  0x3C,R30
	OUT  0x2F,R30
	LDI  R30,LOW(4)
	OUT  0x2E,R30
	LDI  R30,LOW(87)
	OUT  0x2D,R30
	LDI  R30,LOW(64)
	OUT  0x2C,R30
	LDI  R30,LOW(0)
	OUT  0x27,R30
	OUT  0x26,R30
	OUT  0x2B,R30
	OUT  0x2A,R30
	OUT  0x29,R30
	OUT  0x28,R30
	OUT  0x22,R30
	OUT  0x25,R30
	OUT  0x24,R30
	OUT  0x23,R30
	LDI  R30,LOW(4)
	OUT  0x39,R30
	LDI  R30,LOW(0)
	OUT  0x35,R30
	OUT  0x34,R30
	OUT  0xA,R30
	LDI  R30,LOW(128)
	OUT  0x8,R30
	LDI  R30,LOW(0)
	OUT  0x30,R30
	OUT  0x6,R30
	OUT  0xD,R30
	OUT  0x36,R30
	CALL _w1_init
	CALL SUBOPT_0x0
	LDI  R30,LOW(_font5x7*2)
	LDI  R31,HIGH(_font5x7*2)
	ST   Y,R30
	STD  Y+1,R31
	LDI  R30,LOW(0)
	STD  Y+2,R30
	STD  Y+2+1,R30
	STD  Y+4,R30
	STD  Y+4+1,R30
	MOVW R26,R28
	CALL _glcd_init
; 0000 0039         #asm("sei")
	sei
; 0000 003A         glcd_cleargraphics();
	CALL _glcd_cleargraphics
; 0000 003B         glcd_clear();
	CALL _glcd_clear
; 0000 003C         glcd_putimagef(0,0,logo,1);
	CALL SUBOPT_0x22
	LDI  R30,LOW(_logo*2)
	LDI  R31,HIGH(_logo*2)
	CALL SUBOPT_0x24
; 0000 003D         delay_ms(1000);
	CALL SUBOPT_0x25
; 0000 003E         glcd_clear();
	CALL _glcd_clear
; 0000 003F         //rtc_init(0,0,0);
; 0000 0040         //rtc_set_time(13,43,0);
; 0000 0041         //rtc_set_date(2,21,06,00);
; 0000 0042         /*
; 0000 0043         while(1){
; 0000 0044             glcd_clear();
; 0000 0045             glcd_putimagef(0,0,cooler,1);
; 0000 0046             delay_ms(5000);
; 0000 0047             glcd_putimagef(0,0,cooler,3);
; 0000 0048             delay_ms(5000);
; 0000 0049         }
; 0000 004A          */
; 0000 004B 
; 0000 004C          while (1){
_0x5C:
; 0000 004D             for (i=0;i<=11;i++){
	CLR  R7
_0x60:
	LDI  R30,LOW(11)
	CP   R30,R7
	BRLO _0x61
; 0000 004E                 delay_ms(1000);
	CALL SUBOPT_0x25
; 0000 004F                 sprintf(str,"%01d%",i);
	CALL SUBOPT_0x3
	__POINTW1FN _0x0,73
	ST   -Y,R31
	ST   -Y,R30
	MOV  R30,R7
	CALL SUBOPT_0x26
; 0000 0050                 lcd_gotoxy(0,0);
	CALL SUBOPT_0xA
; 0000 0051                 lcd_puts(str);
	CALL SUBOPT_0x1E
; 0000 0052             }
	INC  R7
	RJMP _0x60
_0x61:
; 0000 0053             glcd_clear();
	CALL _glcd_clear
; 0000 0054             delay_ms(2000);
	LDI  R26,LOW(2000)
	LDI  R27,HIGH(2000)
	CALL _delay_ms
; 0000 0055          }
	RJMP _0x5C
; 0000 0056          while (1){
_0x62:
; 0000 0057 
; 0000 0058               readclock();
	RCALL _readclock
; 0000 0059               readtemp();
	RCALL _readtemp
; 0000 005A               sprintf(str,"%2.1f%`C",temp);
	CALL SUBOPT_0x3
	__POINTW1FN _0x0,79
	ST   -Y,R31
	ST   -Y,R30
	LDS  R30,_temp
	LDS  R31,_temp+1
	LDS  R22,_temp+2
	LDS  R23,_temp+3
	CALL __PUTPARD1
	CALL SUBOPT_0x9
; 0000 005B               //sprintf(buffer,"Temp=%2.1f%`C",temp);
; 0000 005C               lcd_gotoxy(10,1);
	LDI  R30,LOW(10)
	CALL SUBOPT_0x1D
; 0000 005D               lcd_puts(str);
	CALL SUBOPT_0x1E
; 0000 005E 
; 0000 005F               _wday=readcalender(_year);
	MOV  R26,R10
	RCALL _readcalender
	MOV  R11,R30
; 0000 0060 
; 0000 0061               //glcd_display(1);
; 0000 0062               //lcd_putsf("hi")
; 0000 0063 
; 0000 0064               if (lsec!=_sec){
	LDS  R26,_lsec
	CP   R8,R26
	BREQ _0x65
; 0000 0065                 led=~led;
	SBIS 0x12,6
	RJMP _0x66
	CBI  0x12,6
	RJMP _0x67
_0x66:
	SBI  0x12,6
_0x67:
; 0000 0066                 lsec=_sec;
	STS  _lsec,R8
; 0000 0067 
; 0000 0068               }
; 0000 0069 
; 0000 006A 
; 0000 006B 
; 0000 006C               if(up==0){
_0x65:
	SBIC 0x10,5
	RJMP _0x68
; 0000 006D                 j=0;
	LDI  R30,LOW(0)
	STS  _j,R30
; 0000 006E                 do{
_0x6A:
; 0000 006F                   delay_ms(25);
	CALL SUBOPT_0x20
; 0000 0070                   j++;
	CALL SUBOPT_0x2
; 0000 0071                    if (j==80) {
	CPI  R26,LOW(0x50)
	BRNE _0x6C
; 0000 0072                         glcd_clear();
	CALL SUBOPT_0x27
; 0000 0073                         strcpyf(state,"heatre");
	__POINTW2FN _0x0,88
	CALL _strcpyf
; 0000 0074                         glcd_putimagef(0,0,heater,1);
	CALL SUBOPT_0x22
	LDI  R30,LOW(_heater*2)
	LDI  R31,HIGH(_heater*2)
	CALL SUBOPT_0x24
; 0000 0075                     }
; 0000 0076                 }
_0x6C:
; 0000 0077                 while(up==0);
	SBIS 0x10,5
	RJMP _0x6A
; 0000 0078                 glcd_clear();
	CALL _glcd_clear
; 0000 0079               }
; 0000 007A 
; 0000 007B               if(down==0){
_0x68:
	SBIC 0x10,4
	RJMP _0x6D
; 0000 007C                 j=0;
	LDI  R30,LOW(0)
	STS  _j,R30
; 0000 007D                 do{
_0x6F:
; 0000 007E                   delay_ms(25);
	CALL SUBOPT_0x20
; 0000 007F                   j++;
	CALL SUBOPT_0x2
; 0000 0080                    if (j==80) {
	CPI  R26,LOW(0x50)
	BRNE _0x71
; 0000 0081                         glcd_clear();
	CALL SUBOPT_0x27
; 0000 0082                         strcpyf(state,"cooler");
	__POINTW2FN _0x0,95
	CALL _strcpyf
; 0000 0083                         glcd_putimagef(0,0,cooler,1);
	CALL SUBOPT_0x22
	LDI  R30,LOW(_cooler*2)
	LDI  R31,HIGH(_cooler*2)
	CALL SUBOPT_0x24
; 0000 0084                     }
; 0000 0085                 }
_0x71:
; 0000 0086                 while(down==0);
	SBIS 0x10,4
	RJMP _0x6F
; 0000 0087                 glcd_clear();
	CALL _glcd_clear
; 0000 0088               }
; 0000 0089 
; 0000 008A               if(menu==0){
_0x6D:
	SBIC 0x10,3
	RJMP _0x72
; 0000 008B                 j=0;
	LDI  R30,LOW(0)
	STS  _j,R30
; 0000 008C                 do{
_0x74:
; 0000 008D                   delay_ms(25);
	CALL SUBOPT_0x20
; 0000 008E                   j++;
	CALL SUBOPT_0x2
; 0000 008F                    if (j==80) {
	CPI  R26,LOW(0x50)
	BRNE _0x76
; 0000 0090                         glcd_clear();
	CALL _glcd_clear
; 0000 0091                         glcd_putimagef(0,0,snow,1);
	CALL SUBOPT_0x22
	LDI  R30,LOW(_snow*2)
	LDI  R31,HIGH(_snow*2)
	CALL SUBOPT_0x24
; 0000 0092                     }
; 0000 0093                     if(j==100){
_0x76:
	LDS  R26,_j
	CPI  R26,LOW(0x64)
	BRNE _0x77
; 0000 0094                         glcd_clear();
	CALL _glcd_clear
; 0000 0095                         changeclock();
	RCALL _changeclock
; 0000 0096                     }
; 0000 0097                 }
_0x77:
; 0000 0098                 while(menu==0);
	SBIS 0x10,3
	RJMP _0x74
; 0000 0099                 glcd_clear();
	CALL _glcd_clear
; 0000 009A               }
; 0000 009B 
; 0000 009C               if (_sec==00||_sec==15||_sec==30||_sec==45){
_0x72:
	TST  R8
	BREQ _0x79
	LDI  R30,LOW(15)
	CP   R30,R8
	BREQ _0x79
	LDI  R30,LOW(30)
	CP   R30,R8
	BREQ _0x79
	LDI  R30,LOW(45)
	CP   R30,R8
	BREQ _0x79
	RJMP _0x78
_0x79:
; 0000 009D                 glcd_clear();
	CALL _glcd_clear
; 0000 009E                 if (state=="cooler")glcd_putimagef(0,0,snow,1);
	__POINTW1FN _0x0,95
	LDI  R26,LOW(_state)
	LDI  R27,HIGH(_state)
	CP   R30,R26
	CPC  R31,R27
	BREQ _0x89
; 0000 009F                 else if(state=="heater")glcd_putimagef(0,0,snow,1);
	__POINTW1FN _0x0,102
	LDI  R26,LOW(_state)
	LDI  R27,HIGH(_state)
	CP   R30,R26
	CPC  R31,R27
	BRNE _0x7D
_0x89:
	LDI  R30,LOW(0)
	ST   -Y,R30
	ST   -Y,R30
	LDI  R30,LOW(_snow*2)
	LDI  R31,HIGH(_snow*2)
	CALL SUBOPT_0x24
; 0000 00A0                 issame=strcmpf(state,"cooler");
_0x7D:
	LDI  R30,LOW(_state)
	LDI  R31,HIGH(_state)
	ST   -Y,R31
	ST   -Y,R30
	__POINTW2FN _0x0,95
	CALL _strcmpf
	CALL __BSTB1
	BLD  R2,2
; 0000 00A1                 sprintf(str,"%02d",issame);
	CALL SUBOPT_0x3
	__POINTW1FN _0x0,23
	ST   -Y,R31
	ST   -Y,R30
	LDI  R30,0
	SBRC R2,2
	LDI  R30,1
	CALL SUBOPT_0x26
; 0000 00A2                 lcd_puts(str);
	CALL SUBOPT_0x1E
; 0000 00A3                 lcd_puts(state);
	LDI  R26,LOW(_state)
	LDI  R27,HIGH(_state)
	CALL _lcd_puts
; 0000 00A4                 delay_ms(1000);
	CALL SUBOPT_0x25
; 0000 00A5                 glcd_clear();
	CALL _glcd_clear
; 0000 00A6                 if (issame==1)glcd_putimagef(0,0,heater,1);
	SBRS R2,2
	RJMP _0x7E
	CALL SUBOPT_0x22
	LDI  R30,LOW(_heater*2)
	LDI  R31,HIGH(_heater*2)
	RJMP _0x8A
; 0000 00A7                 else if(issame==0)glcd_putimagef(0,0,cooler,1);
_0x7E:
	SBRC R2,2
	RJMP _0x80
	CALL SUBOPT_0x22
	LDI  R30,LOW(_cooler*2)
	LDI  R31,HIGH(_cooler*2)
_0x8A:
	ST   -Y,R31
	ST   -Y,R30
	LDI  R26,LOW(1)
	CALL _glcd_putimagef
; 0000 00A8                 delay_ms(3000);
_0x80:
	CALL SUBOPT_0x21
; 0000 00A9                 glcd_clear();
; 0000 00AA                 /*
; 0000 00AB                 //glcd_clear();
; 0000 00AC                 //if (state=="cooler")glcd_putimagef(0,0,snow,1);
; 0000 00AD                 //else if(state=="heater")glcd_putimagef(0,0,snow,1);
; 0000 00AE                 issame=strcmpf(state,"cooler");
; 0000 00AF                 sprintf(str,"%01d",issame);
; 0000 00B0                 //lcd_puts(str);
; 0000 00B1                 //lcd_puts(state);
; 0000 00B2                 //delay_ms(1000);
; 0000 00B3                 //glcd_clear();
; 0000 00B4                 if (issame==1)glcd_putimagef(65,32,sheater,1);
; 0000 00B5                 else if(issame==0)glcd_putimagef(65,32,scooler,1);
; 0000 00B6                 delay_ms(3000);
; 0000 00B7                 //glcd_clear();
; 0000 00B8                 */
; 0000 00B9               }
; 0000 00BA 
; 0000 00BB 
; 0000 00BC 
; 0000 00BD 
; 0000 00BE 
; 0000 00BF         }
_0x78:
	RJMP _0x62
; 0000 00C0     }
_0x81:
	RJMP _0x81
; .FEND
;
	#ifndef __SLEEP_DEFINED__
	#define __SLEEP_DEFINED__
	.EQU __se_bit=0x80
	.EQU __sm_mask=0x70
	.EQU __sm_powerdown=0x20
	.EQU __sm_powersave=0x30
	.EQU __sm_standby=0x60
	.EQU __sm_ext_standby=0x70
	.EQU __sm_adc_noise_red=0x10
	.SET power_ctrl_reg=mcucr
	#endif

	.CSEG
_put_buff_G100:
; .FSTART _put_buff_G100
	ST   -Y,R27
	ST   -Y,R26
	ST   -Y,R17
	ST   -Y,R16
	LDD  R26,Y+2
	LDD  R27,Y+2+1
	ADIW R26,2
	CALL __GETW1P
	SBIW R30,0
	BREQ _0x2000010
	LDD  R26,Y+2
	LDD  R27,Y+2+1
	ADIW R26,4
	CALL __GETW1P
	MOVW R16,R30
	SBIW R30,0
	BREQ _0x2000012
	__CPWRN 16,17,2
	BRLO _0x2000013
	MOVW R30,R16
	SBIW R30,1
	MOVW R16,R30
	__PUTW1SNS 2,4
_0x2000012:
	LDD  R26,Y+2
	LDD  R27,Y+2+1
	ADIW R26,2
	CALL SUBOPT_0x28
	SBIW R30,1
	LDD  R26,Y+4
	STD  Z+0,R26
_0x2000013:
	LDD  R26,Y+2
	LDD  R27,Y+2+1
	CALL __GETW1P
	TST  R31
	BRMI _0x2000014
	CALL SUBOPT_0x28
_0x2000014:
	RJMP _0x2000015
_0x2000010:
	LDD  R26,Y+2
	LDD  R27,Y+2+1
	LDI  R30,LOW(65535)
	LDI  R31,HIGH(65535)
	ST   X+,R30
	ST   X,R31
_0x2000015:
	LDD  R17,Y+1
	LDD  R16,Y+0
_0x2180010:
	ADIW R28,5
	RET
; .FEND
__ftoe_G100:
; .FSTART __ftoe_G100
	CALL SUBOPT_0x29
	LDI  R30,LOW(128)
	STD  Y+2,R30
	LDI  R30,LOW(63)
	STD  Y+3,R30
	CALL __SAVELOCR4
	LDD  R30,Y+14
	LDD  R31,Y+14+1
	CPI  R30,LOW(0xFFFF)
	LDI  R26,HIGH(0xFFFF)
	CPC  R31,R26
	BRNE _0x2000019
	LDD  R30,Y+8
	LDD  R31,Y+8+1
	ST   -Y,R31
	ST   -Y,R30
	__POINTW2FN _0x2000000,0
	CALL _strcpyf
	RJMP _0x218000F
_0x2000019:
	CPI  R30,LOW(0x7FFF)
	LDI  R26,HIGH(0x7FFF)
	CPC  R31,R26
	BRNE _0x2000018
	LDD  R30,Y+8
	LDD  R31,Y+8+1
	ST   -Y,R31
	ST   -Y,R30
	__POINTW2FN _0x2000000,1
	CALL _strcpyf
	RJMP _0x218000F
_0x2000018:
	LDD  R26,Y+11
	CPI  R26,LOW(0x7)
	BRLO _0x200001B
	LDI  R30,LOW(6)
	STD  Y+11,R30
_0x200001B:
	LDD  R17,Y+11
_0x200001C:
	MOV  R30,R17
	SUBI R17,1
	CPI  R30,0
	BREQ _0x200001E
	CALL SUBOPT_0x2A
	RJMP _0x200001C
_0x200001E:
	__GETD1S 12
	CALL __CPD10
	BRNE _0x200001F
	LDI  R19,LOW(0)
	CALL SUBOPT_0x2A
	RJMP _0x2000020
_0x200001F:
	LDD  R19,Y+11
	CALL SUBOPT_0x2B
	BREQ PC+2
	BRCC PC+2
	RJMP _0x2000021
	CALL SUBOPT_0x2A
_0x2000022:
	CALL SUBOPT_0x2B
	BRLO _0x2000024
	CALL SUBOPT_0x2C
	CALL SUBOPT_0x2D
	RJMP _0x2000022
_0x2000024:
	RJMP _0x2000025
_0x2000021:
_0x2000026:
	CALL SUBOPT_0x2B
	BRSH _0x2000028
	CALL SUBOPT_0x2C
	CALL SUBOPT_0x2E
	CALL SUBOPT_0x2F
	SUBI R19,LOW(1)
	RJMP _0x2000026
_0x2000028:
	CALL SUBOPT_0x2A
_0x2000025:
	__GETD1S 12
	CALL SUBOPT_0x30
	CALL SUBOPT_0x2F
	CALL SUBOPT_0x2B
	BRLO _0x2000029
	CALL SUBOPT_0x2C
	CALL SUBOPT_0x2D
_0x2000029:
_0x2000020:
	LDI  R17,LOW(0)
_0x200002A:
	LDD  R30,Y+11
	CP   R30,R17
	BRLO _0x200002C
	__GETD2S 4
	CALL SUBOPT_0x31
	CALL SUBOPT_0x30
	MOVW R26,R30
	MOVW R24,R22
	CALL _floor
	__PUTD1S 4
	CALL SUBOPT_0x2C
	CALL __DIVF21
	CALL __CFD1U
	MOV  R16,R30
	CALL SUBOPT_0x32
	CALL SUBOPT_0x33
	CLR  R31
	CLR  R22
	CLR  R23
	CALL __CDF1
	__GETD2S 4
	CALL __MULF12
	CALL SUBOPT_0x2C
	CALL SUBOPT_0x34
	CALL SUBOPT_0x2F
	MOV  R30,R17
	SUBI R17,-1
	CPI  R30,0
	BRNE _0x200002A
	CALL SUBOPT_0x32
	LDI  R30,LOW(46)
	ST   X,R30
	RJMP _0x200002A
_0x200002C:
	CALL SUBOPT_0x35
	SBIW R30,1
	LDD  R26,Y+10
	STD  Z+0,R26
	CPI  R19,0
	BRGE _0x200002E
	NEG  R19
	LDD  R26,Y+8
	LDD  R27,Y+8+1
	LDI  R30,LOW(45)
	RJMP _0x2000113
_0x200002E:
	LDD  R26,Y+8
	LDD  R27,Y+8+1
	LDI  R30,LOW(43)
_0x2000113:
	ST   X,R30
	CALL SUBOPT_0x35
	CALL SUBOPT_0x35
	SBIW R30,1
	MOVW R22,R30
	MOV  R26,R19
	LDI  R30,LOW(10)
	CALL __DIVB21
	SUBI R30,-LOW(48)
	MOVW R26,R22
	ST   X,R30
	CALL SUBOPT_0x35
	SBIW R30,1
	MOVW R22,R30
	MOV  R26,R19
	LDI  R30,LOW(10)
	CALL __MODB21
	SUBI R30,-LOW(48)
	MOVW R26,R22
	ST   X,R30
	LDD  R26,Y+8
	LDD  R27,Y+8+1
	LDI  R30,LOW(0)
	ST   X,R30
_0x218000F:
	CALL __LOADLOCR4
	ADIW R28,16
	RET
; .FEND
__print_G100:
; .FSTART __print_G100
	ST   -Y,R27
	ST   -Y,R26
	SBIW R28,63
	SBIW R28,17
	CALL __SAVELOCR6
	LDI  R17,0
	__GETW1SX 88
	STD  Y+8,R30
	STD  Y+8+1,R31
	__GETW1SX 86
	STD  Y+6,R30
	STD  Y+6+1,R31
	LDD  R26,Y+6
	LDD  R27,Y+6+1
	LDI  R30,LOW(0)
	LDI  R31,HIGH(0)
	ST   X+,R30
	ST   X,R31
_0x2000030:
	MOVW R26,R28
	SUBI R26,LOW(-(92))
	SBCI R27,HIGH(-(92))
	CALL SUBOPT_0x28
	SBIW R30,1
	LPM  R30,Z
	MOV  R18,R30
	CPI  R30,0
	BRNE PC+2
	RJMP _0x2000032
	MOV  R30,R17
	CPI  R30,0
	BRNE _0x2000036
	CPI  R18,37
	BRNE _0x2000037
	LDI  R17,LOW(1)
	RJMP _0x2000038
_0x2000037:
	CALL SUBOPT_0x36
_0x2000038:
	RJMP _0x2000035
_0x2000036:
	CPI  R30,LOW(0x1)
	BRNE _0x2000039
	CPI  R18,37
	BRNE _0x200003A
	CALL SUBOPT_0x36
	RJMP _0x2000114
_0x200003A:
	LDI  R17,LOW(2)
	LDI  R30,LOW(0)
	STD  Y+21,R30
	LDI  R16,LOW(0)
	CPI  R18,45
	BRNE _0x200003B
	LDI  R16,LOW(1)
	RJMP _0x2000035
_0x200003B:
	CPI  R18,43
	BRNE _0x200003C
	LDI  R30,LOW(43)
	STD  Y+21,R30
	RJMP _0x2000035
_0x200003C:
	CPI  R18,32
	BRNE _0x200003D
	LDI  R30,LOW(32)
	STD  Y+21,R30
	RJMP _0x2000035
_0x200003D:
	RJMP _0x200003E
_0x2000039:
	CPI  R30,LOW(0x2)
	BRNE _0x200003F
_0x200003E:
	LDI  R21,LOW(0)
	LDI  R17,LOW(3)
	CPI  R18,48
	BRNE _0x2000040
	ORI  R16,LOW(128)
	RJMP _0x2000035
_0x2000040:
	RJMP _0x2000041
_0x200003F:
	CPI  R30,LOW(0x3)
	BRNE _0x2000042
_0x2000041:
	CPI  R18,48
	BRLO _0x2000044
	CPI  R18,58
	BRLO _0x2000045
_0x2000044:
	RJMP _0x2000043
_0x2000045:
	LDI  R26,LOW(10)
	MUL  R21,R26
	MOV  R21,R0
	MOV  R30,R18
	SUBI R30,LOW(48)
	ADD  R21,R30
	RJMP _0x2000035
_0x2000043:
	LDI  R20,LOW(0)
	CPI  R18,46
	BRNE _0x2000046
	LDI  R17,LOW(4)
	RJMP _0x2000035
_0x2000046:
	RJMP _0x2000047
_0x2000042:
	CPI  R30,LOW(0x4)
	BRNE _0x2000049
	CPI  R18,48
	BRLO _0x200004B
	CPI  R18,58
	BRLO _0x200004C
_0x200004B:
	RJMP _0x200004A
_0x200004C:
	ORI  R16,LOW(32)
	LDI  R26,LOW(10)
	MUL  R20,R26
	MOV  R20,R0
	MOV  R30,R18
	SUBI R30,LOW(48)
	ADD  R20,R30
	RJMP _0x2000035
_0x200004A:
_0x2000047:
	CPI  R18,108
	BRNE _0x200004D
	ORI  R16,LOW(2)
	LDI  R17,LOW(5)
	RJMP _0x2000035
_0x200004D:
	RJMP _0x200004E
_0x2000049:
	CPI  R30,LOW(0x5)
	BREQ PC+2
	RJMP _0x2000035
_0x200004E:
	MOV  R30,R18
	CPI  R30,LOW(0x63)
	BRNE _0x2000053
	CALL SUBOPT_0x37
	CALL SUBOPT_0x38
	CALL SUBOPT_0x37
	LDD  R26,Z+4
	ST   -Y,R26
	CALL SUBOPT_0x39
	RJMP _0x2000054
_0x2000053:
	CPI  R30,LOW(0x45)
	BREQ _0x2000057
	CPI  R30,LOW(0x65)
	BRNE _0x2000058
_0x2000057:
	RJMP _0x2000059
_0x2000058:
	CPI  R30,LOW(0x66)
	BREQ PC+2
	RJMP _0x200005A
_0x2000059:
	MOVW R30,R28
	ADIW R30,22
	STD  Y+14,R30
	STD  Y+14+1,R31
	CALL SUBOPT_0x3A
	CALL __GETD1P
	CALL SUBOPT_0x3B
	CALL SUBOPT_0x3C
	LDD  R26,Y+13
	TST  R26
	BRMI _0x200005B
	LDD  R26,Y+21
	CPI  R26,LOW(0x2B)
	BREQ _0x200005D
	CPI  R26,LOW(0x20)
	BREQ _0x200005F
	RJMP _0x2000060
_0x200005B:
	CALL SUBOPT_0x3D
	CALL __ANEGF1
	CALL SUBOPT_0x3B
	LDI  R30,LOW(45)
	STD  Y+21,R30
_0x200005D:
	SBRS R16,7
	RJMP _0x2000061
	LDD  R30,Y+21
	ST   -Y,R30
	CALL SUBOPT_0x39
	RJMP _0x2000062
_0x2000061:
_0x200005F:
	LDD  R30,Y+14
	LDD  R31,Y+14+1
	ADIW R30,1
	STD  Y+14,R30
	STD  Y+14+1,R31
	SBIW R30,1
	LDD  R26,Y+21
	STD  Z+0,R26
_0x2000062:
_0x2000060:
	SBRS R16,5
	LDI  R20,LOW(6)
	CPI  R18,102
	BRNE _0x2000064
	CALL SUBOPT_0x3D
	CALL __PUTPARD1
	ST   -Y,R20
	LDD  R26,Y+19
	LDD  R27,Y+19+1
	CALL _ftoa
	RJMP _0x2000065
_0x2000064:
	CALL SUBOPT_0x3D
	CALL __PUTPARD1
	ST   -Y,R20
	ST   -Y,R18
	LDD  R26,Y+20
	LDD  R27,Y+20+1
	RCALL __ftoe_G100
_0x2000065:
	MOVW R30,R28
	ADIW R30,22
	CALL SUBOPT_0x3E
	RJMP _0x2000066
_0x200005A:
	CPI  R30,LOW(0x73)
	BRNE _0x2000068
	CALL SUBOPT_0x3C
	CALL SUBOPT_0x3F
	CALL SUBOPT_0x3E
	RJMP _0x2000069
_0x2000068:
	CPI  R30,LOW(0x70)
	BRNE _0x200006B
	CALL SUBOPT_0x3C
	CALL SUBOPT_0x3F
	STD  Y+14,R30
	STD  Y+14+1,R31
	LDD  R26,Y+14
	LDD  R27,Y+14+1
	CALL _strlenf
	MOV  R17,R30
	ORI  R16,LOW(8)
_0x2000069:
	ANDI R16,LOW(127)
	CPI  R20,0
	BREQ _0x200006D
	CP   R20,R17
	BRLO _0x200006E
_0x200006D:
	RJMP _0x200006C
_0x200006E:
	MOV  R17,R20
_0x200006C:
_0x2000066:
	LDI  R20,LOW(0)
	LDI  R30,LOW(0)
	STD  Y+20,R30
	LDI  R19,LOW(0)
	RJMP _0x200006F
_0x200006B:
	CPI  R30,LOW(0x64)
	BREQ _0x2000072
	CPI  R30,LOW(0x69)
	BRNE _0x2000073
_0x2000072:
	ORI  R16,LOW(4)
	RJMP _0x2000074
_0x2000073:
	CPI  R30,LOW(0x75)
	BRNE _0x2000075
_0x2000074:
	LDI  R30,LOW(10)
	STD  Y+20,R30
	SBRS R16,1
	RJMP _0x2000076
	__GETD1N 0x3B9ACA00
	CALL SUBOPT_0x40
	LDI  R17,LOW(10)
	RJMP _0x2000077
_0x2000076:
	__GETD1N 0x2710
	CALL SUBOPT_0x40
	LDI  R17,LOW(5)
	RJMP _0x2000077
_0x2000075:
	CPI  R30,LOW(0x58)
	BRNE _0x2000079
	ORI  R16,LOW(8)
	RJMP _0x200007A
_0x2000079:
	CPI  R30,LOW(0x78)
	BREQ PC+2
	RJMP _0x20000B8
_0x200007A:
	LDI  R30,LOW(16)
	STD  Y+20,R30
	SBRS R16,1
	RJMP _0x200007C
	__GETD1N 0x10000000
	CALL SUBOPT_0x40
	LDI  R17,LOW(8)
	RJMP _0x2000077
_0x200007C:
	__GETD1N 0x1000
	CALL SUBOPT_0x40
	LDI  R17,LOW(4)
_0x2000077:
	CPI  R20,0
	BREQ _0x200007D
	ANDI R16,LOW(127)
	RJMP _0x200007E
_0x200007D:
	LDI  R20,LOW(1)
_0x200007E:
	SBRS R16,1
	RJMP _0x200007F
	CALL SUBOPT_0x3C
	CALL SUBOPT_0x3A
	ADIW R26,4
	CALL __GETD1P
	RJMP _0x2000115
_0x200007F:
	SBRS R16,2
	RJMP _0x2000081
	CALL SUBOPT_0x3C
	CALL SUBOPT_0x3F
	CALL __CWD1
	RJMP _0x2000115
_0x2000081:
	CALL SUBOPT_0x3C
	CALL SUBOPT_0x3F
	CLR  R22
	CLR  R23
_0x2000115:
	__PUTD1S 10
	SBRS R16,2
	RJMP _0x2000083
	LDD  R26,Y+13
	TST  R26
	BRPL _0x2000084
	CALL SUBOPT_0x3D
	CALL __ANEGD1
	CALL SUBOPT_0x3B
	LDI  R30,LOW(45)
	STD  Y+21,R30
_0x2000084:
	LDD  R30,Y+21
	CPI  R30,0
	BREQ _0x2000085
	SUBI R17,-LOW(1)
	SUBI R20,-LOW(1)
	RJMP _0x2000086
_0x2000085:
	ANDI R16,LOW(251)
_0x2000086:
_0x2000083:
	MOV  R19,R20
_0x200006F:
	SBRC R16,0
	RJMP _0x2000087
_0x2000088:
	CP   R17,R21
	BRSH _0x200008B
	CP   R19,R21
	BRLO _0x200008C
_0x200008B:
	RJMP _0x200008A
_0x200008C:
	SBRS R16,7
	RJMP _0x200008D
	SBRS R16,2
	RJMP _0x200008E
	ANDI R16,LOW(251)
	LDD  R18,Y+21
	SUBI R17,LOW(1)
	RJMP _0x200008F
_0x200008E:
	LDI  R18,LOW(48)
_0x200008F:
	RJMP _0x2000090
_0x200008D:
	LDI  R18,LOW(32)
_0x2000090:
	CALL SUBOPT_0x36
	SUBI R21,LOW(1)
	RJMP _0x2000088
_0x200008A:
_0x2000087:
_0x2000091:
	CP   R17,R20
	BRSH _0x2000093
	ORI  R16,LOW(16)
	SBRS R16,2
	RJMP _0x2000094
	CALL SUBOPT_0x41
	BREQ _0x2000095
	SUBI R21,LOW(1)
_0x2000095:
	SUBI R17,LOW(1)
	SUBI R20,LOW(1)
_0x2000094:
	LDI  R30,LOW(48)
	ST   -Y,R30
	CALL SUBOPT_0x39
	CPI  R21,0
	BREQ _0x2000096
	SUBI R21,LOW(1)
_0x2000096:
	SUBI R20,LOW(1)
	RJMP _0x2000091
_0x2000093:
	MOV  R19,R17
	LDD  R30,Y+20
	CPI  R30,0
	BRNE _0x2000097
_0x2000098:
	CPI  R19,0
	BREQ _0x200009A
	SBRS R16,3
	RJMP _0x200009B
	LDD  R30,Y+14
	LDD  R31,Y+14+1
	LPM  R18,Z+
	STD  Y+14,R30
	STD  Y+14+1,R31
	RJMP _0x200009C
_0x200009B:
	LDD  R26,Y+14
	LDD  R27,Y+14+1
	LD   R18,X+
	STD  Y+14,R26
	STD  Y+14+1,R27
_0x200009C:
	CALL SUBOPT_0x36
	CPI  R21,0
	BREQ _0x200009D
	SUBI R21,LOW(1)
_0x200009D:
	SUBI R19,LOW(1)
	RJMP _0x2000098
_0x200009A:
	RJMP _0x200009E
_0x2000097:
_0x20000A0:
	CALL SUBOPT_0x42
	CALL __DIVD21U
	MOV  R18,R30
	CPI  R18,10
	BRLO _0x20000A2
	SBRS R16,3
	RJMP _0x20000A3
	SUBI R18,-LOW(55)
	RJMP _0x20000A4
_0x20000A3:
	SUBI R18,-LOW(87)
_0x20000A4:
	RJMP _0x20000A5
_0x20000A2:
	SUBI R18,-LOW(48)
_0x20000A5:
	SBRC R16,4
	RJMP _0x20000A7
	CPI  R18,49
	BRSH _0x20000A9
	__GETD2S 16
	__CPD2N 0x1
	BRNE _0x20000A8
_0x20000A9:
	RJMP _0x20000AB
_0x20000A8:
	CP   R20,R19
	BRSH _0x2000116
	CP   R21,R19
	BRLO _0x20000AE
	SBRS R16,0
	RJMP _0x20000AF
_0x20000AE:
	RJMP _0x20000AD
_0x20000AF:
	LDI  R18,LOW(32)
	SBRS R16,7
	RJMP _0x20000B0
_0x2000116:
	LDI  R18,LOW(48)
_0x20000AB:
	ORI  R16,LOW(16)
	SBRS R16,2
	RJMP _0x20000B1
	CALL SUBOPT_0x41
	BREQ _0x20000B2
	SUBI R21,LOW(1)
_0x20000B2:
_0x20000B1:
_0x20000B0:
_0x20000A7:
	CALL SUBOPT_0x36
	CPI  R21,0
	BREQ _0x20000B3
	SUBI R21,LOW(1)
_0x20000B3:
_0x20000AD:
	SUBI R19,LOW(1)
	CALL SUBOPT_0x42
	CALL __MODD21U
	CALL SUBOPT_0x3B
	LDD  R30,Y+20
	__GETD2S 16
	CLR  R31
	CLR  R22
	CLR  R23
	CALL __DIVD21U
	CALL SUBOPT_0x40
	__GETD1S 16
	CALL __CPD10
	BREQ _0x20000A1
	RJMP _0x20000A0
_0x20000A1:
_0x200009E:
	SBRS R16,0
	RJMP _0x20000B4
_0x20000B5:
	CPI  R21,0
	BREQ _0x20000B7
	SUBI R21,LOW(1)
	LDI  R30,LOW(32)
	ST   -Y,R30
	CALL SUBOPT_0x39
	RJMP _0x20000B5
_0x20000B7:
_0x20000B4:
_0x20000B8:
_0x2000054:
_0x2000114:
	LDI  R17,LOW(0)
_0x2000035:
	RJMP _0x2000030
_0x2000032:
	LDD  R26,Y+6
	LDD  R27,Y+6+1
	CALL __GETW1P
	CALL __LOADLOCR6
	ADIW R28,63
	ADIW R28,31
	RET
; .FEND
_sprintf:
; .FSTART _sprintf
	PUSH R15
	MOV  R15,R24
	SBIW R28,6
	CALL __SAVELOCR4
	CALL SUBOPT_0x43
	SBIW R30,0
	BRNE _0x20000B9
	LDI  R30,LOW(65535)
	LDI  R31,HIGH(65535)
	RJMP _0x218000E
_0x20000B9:
	MOVW R26,R28
	ADIW R26,6
	CALL __ADDW2R15
	MOVW R16,R26
	CALL SUBOPT_0x43
	STD  Y+6,R30
	STD  Y+6+1,R31
	LDI  R30,LOW(0)
	STD  Y+8,R30
	STD  Y+8+1,R30
	MOVW R26,R28
	ADIW R26,10
	CALL __ADDW2R15
	CALL __GETW1P
	ST   -Y,R31
	ST   -Y,R30
	ST   -Y,R17
	ST   -Y,R16
	LDI  R30,LOW(_put_buff_G100)
	LDI  R31,HIGH(_put_buff_G100)
	ST   -Y,R31
	ST   -Y,R30
	MOVW R26,R28
	ADIW R26,10
	RCALL __print_G100
	MOVW R18,R30
	LDD  R26,Y+6
	LDD  R27,Y+6+1
	LDI  R30,LOW(0)
	ST   X,R30
	MOVW R30,R18
_0x218000E:
	CALL __LOADLOCR4
	ADIW R28,10
	POP  R15
	RET
; .FEND

	.CSEG
_rtc_init:
; .FSTART _rtc_init
	ST   -Y,R26
	LDD  R30,Y+2
	ANDI R30,LOW(0x3)
	STD  Y+2,R30
	LDD  R30,Y+1
	CPI  R30,0
	BREQ _0x2020003
	LDD  R30,Y+2
	ORI  R30,0x10
	STD  Y+2,R30
_0x2020003:
	LD   R30,Y
	CPI  R30,0
	BREQ _0x2020004
	LDD  R30,Y+2
	ORI  R30,0x80
	STD  Y+2,R30
_0x2020004:
	CALL SUBOPT_0x44
	LDI  R26,LOW(7)
	CALL _i2c_write
	LDD  R26,Y+2
	CALL SUBOPT_0x45
	JMP  _0x218000D
; .FEND
_rtc_get_time:
; .FSTART _rtc_get_time
	ST   -Y,R27
	ST   -Y,R26
	CALL SUBOPT_0x44
	LDI  R26,LOW(0)
	CALL SUBOPT_0x45
	CALL SUBOPT_0x46
	CALL SUBOPT_0x47
	CALL SUBOPT_0x48
	CALL SUBOPT_0x49
	MOV  R26,R30
	CALL _bcd2bin
	LDD  R26,Y+4
	LDD  R27,Y+4+1
	ST   X,R30
	CALL _i2c_stop
	JMP  _0x218000A
; .FEND
_rtc_set_time:
; .FSTART _rtc_set_time
	ST   -Y,R26
	CALL SUBOPT_0x44
	LDI  R26,LOW(0)
	CALL SUBOPT_0x4A
	CALL SUBOPT_0x4B
	CALL SUBOPT_0x4C
	CALL SUBOPT_0x45
	JMP  _0x218000D
; .FEND
_rtc_get_date:
; .FSTART _rtc_get_date
	ST   -Y,R27
	ST   -Y,R26
	CALL SUBOPT_0x44
	LDI  R26,LOW(3)
	CALL SUBOPT_0x45
	CALL SUBOPT_0x46
	LDD  R26,Y+6
	LDD  R27,Y+6+1
	ST   X,R30
	CALL SUBOPT_0x48
	LDD  R26,Y+4
	LDD  R27,Y+4+1
	ST   X,R30
	CALL SUBOPT_0x48
	CALL SUBOPT_0x49
	CALL SUBOPT_0x47
	CALL _i2c_stop
	ADIW R28,8
	RET
; .FEND
_rtc_set_date:
; .FSTART _rtc_set_date
	ST   -Y,R26
	CALL SUBOPT_0x44
	LDI  R26,LOW(3)
	CALL _i2c_write
	LDD  R26,Y+3
	CALL SUBOPT_0x4C
	CALL SUBOPT_0x4B
	CALL SUBOPT_0x4A
	CALL SUBOPT_0x45
	ADIW R28,4
	RET
; .FEND

	.CSEG
_memset:
; .FSTART _memset
	ST   -Y,R27
	ST   -Y,R26
    ldd  r27,y+1
    ld   r26,y
    adiw r26,0
    breq memset1
    ldd  r31,y+4
    ldd  r30,y+3
    ldd  r22,y+2
memset0:
    st   z+,r22
    sbiw r26,1
    brne memset0
memset1:
    ldd  r30,y+3
    ldd  r31,y+4
	JMP  _0x2180008
; .FEND
_strcmpf:
; .FSTART _strcmpf
	ST   -Y,R27
	ST   -Y,R26
    ld   r30,y+
    ld   r31,y+
    ld   r26,y+
    ld   r27,y+
strcmpf0:
    ld   r1,x+
	lpm  r0,z+
    cp   r0,r1
    brne strcmpf1
    tst  r0
    brne strcmpf0
strcmpf3:
    clr  r30
    ret
strcmpf1:
    sub  r1,r0
    breq strcmpf3
    ldi  r30,1
    brcc strcmpf2
    subi r30,2
strcmpf2:
    ret
; .FEND
_strcpy:
; .FSTART _strcpy
	ST   -Y,R27
	ST   -Y,R26
    ld   r30,y+
    ld   r31,y+
    ld   r26,y+
    ld   r27,y+
    movw r24,r26
strcpy0:
    ld   r22,z+
    st   x+,r22
    tst  r22
    brne strcpy0
    movw r30,r24
    ret
; .FEND
_strcpyf:
; .FSTART _strcpyf
	ST   -Y,R27
	ST   -Y,R26
    ld   r30,y+
    ld   r31,y+
    ld   r26,y+
    ld   r27,y+
    movw r24,r26
strcpyf0:
	lpm  r0,z+
    st   x+,r0
    tst  r0
    brne strcpyf0
    movw r30,r24
    ret
; .FEND
_strlen:
; .FSTART _strlen
	ST   -Y,R27
	ST   -Y,R26
    ld   r26,y+
    ld   r27,y+
    clr  r30
    clr  r31
strlen0:
    ld   r22,x+
    tst  r22
    breq strlen1
    adiw r30,1
    rjmp strlen0
strlen1:
    ret
; .FEND
_strlenf:
; .FSTART _strlenf
	ST   -Y,R27
	ST   -Y,R26
    clr  r26
    clr  r27
    ld   r30,y+
    ld   r31,y+
strlenf0:
	lpm  r0,z+
    tst  r0
    breq strlenf1
    adiw r26,1
    rjmp strlenf0
strlenf1:
    movw r30,r26
    ret
; .FEND

	.CSEG
_ds18b20_select:
; .FSTART _ds18b20_select
	ST   -Y,R27
	ST   -Y,R26
	ST   -Y,R17
	CALL _w1_init
	CPI  R30,0
	BRNE _0x2060003
	LDI  R30,LOW(0)
	RJMP _0x218000C
_0x2060003:
	LDD  R30,Y+1
	LDD  R31,Y+1+1
	SBIW R30,0
	BREQ _0x2060004
	LDI  R26,LOW(85)
	CALL _w1_write
	LDI  R17,LOW(0)
_0x2060006:
	LDD  R26,Y+1
	LDD  R27,Y+1+1
	LD   R30,X+
	STD  Y+1,R26
	STD  Y+1+1,R27
	MOV  R26,R30
	CALL _w1_write
	SUBI R17,-LOW(1)
	CPI  R17,8
	BRLO _0x2060006
	RJMP _0x2060008
_0x2060004:
	LDI  R26,LOW(204)
	CALL _w1_write
_0x2060008:
	LDI  R30,LOW(1)
	RJMP _0x218000C
; .FEND
_ds18b20_read_spd:
; .FSTART _ds18b20_read_spd
	ST   -Y,R27
	ST   -Y,R26
	CALL __SAVELOCR4
	LDD  R26,Y+4
	LDD  R27,Y+4+1
	RCALL _ds18b20_select
	CPI  R30,0
	BRNE _0x2060009
	LDI  R30,LOW(0)
	CALL __LOADLOCR4
	JMP  _0x218000A
_0x2060009:
	LDI  R26,LOW(190)
	CALL _w1_write
	LDI  R17,LOW(0)
	__POINTWRM 18,19,___ds18b20_scratch_pad
_0x206000B:
	PUSH R19
	PUSH R18
	__ADDWRN 18,19,1
	CALL _w1_read
	POP  R26
	POP  R27
	ST   X,R30
	SUBI R17,-LOW(1)
	CPI  R17,9
	BRLO _0x206000B
	LDI  R30,LOW(___ds18b20_scratch_pad)
	LDI  R31,HIGH(___ds18b20_scratch_pad)
	ST   -Y,R31
	ST   -Y,R30
	LDI  R26,LOW(9)
	CALL _w1_dow_crc8
	CALL __LNEGB1
	CALL __LOADLOCR4
	JMP  _0x218000A
; .FEND
_ds18b20_temperature:
; .FSTART _ds18b20_temperature
	ST   -Y,R27
	ST   -Y,R26
	ST   -Y,R17
	LDD  R26,Y+1
	LDD  R27,Y+1+1
	RCALL _ds18b20_read_spd
	CPI  R30,0
	BRNE _0x206000D
	CALL SUBOPT_0x4D
	RJMP _0x218000C
_0x206000D:
	__GETB1MN ___ds18b20_scratch_pad,4
	SWAP R30
	ANDI R30,0xF
	LSR  R30
	ANDI R30,LOW(0x3)
	MOV  R17,R30
	LDD  R26,Y+1
	LDD  R27,Y+1+1
	RCALL _ds18b20_select
	CPI  R30,0
	BRNE _0x206000E
	CALL SUBOPT_0x4D
	RJMP _0x218000C
_0x206000E:
	LDI  R26,LOW(68)
	CALL _w1_write
	MOV  R30,R17
	LDI  R26,LOW(_conv_delay_G103*2)
	LDI  R27,HIGH(_conv_delay_G103*2)
	LDI  R31,0
	LSL  R30
	ROL  R31
	ADD  R30,R26
	ADC  R31,R27
	CALL __GETW2PF
	CALL _delay_ms
	LDD  R26,Y+1
	LDD  R27,Y+1+1
	RCALL _ds18b20_read_spd
	CPI  R30,0
	BRNE _0x206000F
	CALL SUBOPT_0x4D
	RJMP _0x218000C
_0x206000F:
	CALL _w1_init
	MOV  R30,R17
	LDI  R26,LOW(_bit_mask_G103*2)
	LDI  R27,HIGH(_bit_mask_G103*2)
	LDI  R31,0
	LSL  R30
	ROL  R31
	ADD  R30,R26
	ADC  R31,R27
	CALL __GETW1PF
	LDS  R26,___ds18b20_scratch_pad
	LDS  R27,___ds18b20_scratch_pad+1
	AND  R30,R26
	AND  R31,R27
	CALL SUBOPT_0x4E
	__GETD2N 0x3D800000
	CALL __MULF12
_0x218000C:
	LDD  R17,Y+0
_0x218000D:
	ADIW R28,3
	RET
; .FEND
	#ifndef __SLEEP_DEFINED__
	#define __SLEEP_DEFINED__
	.EQU __se_bit=0x80
	.EQU __sm_mask=0x70
	.EQU __sm_powerdown=0x20
	.EQU __sm_powersave=0x30
	.EQU __sm_standby=0x60
	.EQU __sm_ext_standby=0x70
	.EQU __sm_adc_noise_red=0x10
	.SET power_ctrl_reg=mcucr
	#endif

	.CSEG
_st7920_delay_G104:
; .FSTART _st7920_delay_G104
    nop
    nop
    nop
	RET
; .FEND
_st7920_wrbus_G104:
; .FSTART _st7920_wrbus_G104
	ST   -Y,R26
	CBI  0x1B,6
	SBI  0x1B,5
	SBI  0x1A,4
	SBI  0x1A,3
	SBI  0x1A,2
	SBI  0x1A,1
	LD   R30,Y
	ANDI R30,LOW(0x10)
	BREQ _0x2080003
	SBI  0x1B,4
	RJMP _0x2080004
_0x2080003:
	CBI  0x1B,4
_0x2080004:
	LD   R30,Y
	ANDI R30,LOW(0x20)
	BREQ _0x2080005
	SBI  0x1B,3
	RJMP _0x2080006
_0x2080005:
	CBI  0x1B,3
_0x2080006:
	LD   R30,Y
	ANDI R30,LOW(0x40)
	BREQ _0x2080007
	SBI  0x1B,2
	RJMP _0x2080008
_0x2080007:
	CBI  0x1B,2
_0x2080008:
	LD   R30,Y
	ANDI R30,LOW(0x80)
	BREQ _0x2080009
	SBI  0x1B,1
	RJMP _0x208000A
_0x2080009:
	CBI  0x1B,1
_0x208000A:
	RCALL _st7920_delay_G104
	CBI  0x1B,5
    nop
    nop
	LD   R30,Y
	ANDI R30,LOW(0x1)
	BREQ _0x208000B
	SBI  0x1B,4
	RJMP _0x208000C
_0x208000B:
	CBI  0x1B,4
_0x208000C:
	LD   R30,Y
	ANDI R30,LOW(0x2)
	BREQ _0x208000D
	SBI  0x1B,3
	RJMP _0x208000E
_0x208000D:
	CBI  0x1B,3
_0x208000E:
	LD   R30,Y
	ANDI R30,LOW(0x4)
	BREQ _0x208000F
	SBI  0x1B,2
	RJMP _0x2080010
_0x208000F:
	CBI  0x1B,2
_0x2080010:
	LD   R30,Y
	ANDI R30,LOW(0x8)
	BREQ _0x2080011
	SBI  0x1B,1
	RJMP _0x2080012
_0x2080011:
	CBI  0x1B,1
_0x2080012:
	CALL SUBOPT_0x4F
	CBI  0x1B,5
	RJMP _0x2180007
; .FEND
_st7920_rdbus_G104:
; .FSTART _st7920_rdbus_G104
	ST   -Y,R17
	SBI  0x1B,6
	CBI  0x1A,4
	CBI  0x1A,3
	CBI  0x1A,2
	CBI  0x1A,1
	SBI  0x1B,5
	RCALL _st7920_delay_G104
	LDI  R17,LOW(0)
	SBIC 0x19,4
	LDI  R17,LOW(16)
	SBIC 0x19,3
	ORI  R17,LOW(32)
	SBIC 0x19,2
	ORI  R17,LOW(64)
	SBIC 0x19,1
	ORI  R17,LOW(128)
	CBI  0x1B,5
	CALL SUBOPT_0x4F
	SBIC 0x19,4
	ORI  R17,LOW(1)
	SBIC 0x19,3
	ORI  R17,LOW(2)
	SBIC 0x19,2
	ORI  R17,LOW(4)
	SBIC 0x19,1
	ORI  R17,LOW(8)
	CBI  0x1B,5
	MOV  R30,R17
	RJMP _0x218000B
; .FEND
_st7920_busy_G104:
; .FSTART _st7920_busy_G104
	ST   -Y,R17
	CBI  0x1B,7
	SBI  0x1B,6
	CBI  0x1A,4
	CBI  0x1A,3
	CBI  0x1A,2
	CBI  0x1A,1
_0x208001C:
	SBI  0x1B,5
	RCALL _st7920_delay_G104
	IN   R30,0x19
	ANDI R30,LOW(0x2)
	LDI  R26,LOW(0)
	CALL __NEB12
	MOV  R17,R30
	CBI  0x1B,5
	CALL SUBOPT_0x4F
	CBI  0x1B,5
	RCALL _st7920_delay_G104
	CPI  R17,0
	BRNE _0x208001C
	__DELAY_USB 4
_0x218000B:
	LD   R17,Y+
	RET
; .FEND
_st7920_wrdata:
; .FSTART _st7920_wrdata
	ST   -Y,R26
	RCALL _st7920_busy_G104
	SBI  0x1B,7
	LD   R26,Y
	RCALL _st7920_wrbus_G104
	RJMP _0x2180007
; .FEND
_st7920_rddata:
; .FSTART _st7920_rddata
	RCALL _st7920_busy_G104
	SBI  0x1B,7
	RCALL _st7920_rdbus_G104
	RET
; .FEND
_st7920_wrcmd:
; .FSTART _st7920_wrcmd
	ST   -Y,R26
	RCALL _st7920_busy_G104
	LD   R26,Y
	RCALL _st7920_wrbus_G104
	RJMP _0x2180007
; .FEND
_st7920_setxy_G104:
; .FSTART _st7920_setxy_G104
	ST   -Y,R26
	LD   R30,Y
	ANDI R30,LOW(0x1F)
	ORI  R30,0x80
	MOV  R26,R30
	RCALL _st7920_wrcmd
	LD   R26,Y
	CPI  R26,LOW(0x20)
	BRLO _0x208001E
	LDD  R30,Y+1
	ORI  R30,0x80
	STD  Y+1,R30
_0x208001E:
	LDD  R30,Y+1
	SWAP R30
	ANDI R30,0xF
	ORI  R30,0x80
	MOV  R26,R30
	RCALL _st7920_wrcmd
	JMP  _0x2180003
; .FEND
_glcd_display:
; .FSTART _glcd_display
	ST   -Y,R26
	CALL SUBOPT_0x50
	LD   R30,Y
	CPI  R30,0
	BREQ _0x208001F
	LDI  R30,LOW(12)
	RJMP _0x2080020
_0x208001F:
	LDI  R30,LOW(8)
_0x2080020:
	MOV  R26,R30
	RCALL _st7920_wrcmd
	LD   R30,Y
	CPI  R30,0
	BREQ _0x2080022
	LDI  R30,LOW(2)
	RJMP _0x2080023
_0x2080022:
	LDI  R30,LOW(0)
_0x2080023:
	STS  _st7920_graphics_on_G104,R30
	CALL SUBOPT_0x50
	CALL SUBOPT_0x51
	RJMP _0x2180007
; .FEND
_glcd_cleartext:
; .FSTART _glcd_cleartext
	CALL SUBOPT_0x50
	LDI  R26,LOW(1)
	RCALL _st7920_wrcmd
	LDI  R30,LOW(0)
	STS  _yt_G104,R30
	STS  _xt_G104,R30
	ST   -Y,R30
	LDI  R26,LOW(0)
	RCALL _glcd_moveto
	RET
; .FEND
_glcd_cleargraphics:
; .FSTART _glcd_cleargraphics
	CALL __SAVELOCR4
	LDI  R19,0
	__GETB1MN _glcd_state,1
	CPI  R30,0
	BREQ _0x2080025
	LDI  R19,LOW(255)
_0x2080025:
	CALL SUBOPT_0x51
	LDI  R16,LOW(0)
_0x2080026:
	CPI  R16,64
	BRSH _0x2080028
	LDI  R30,LOW(0)
	ST   -Y,R30
	MOV  R26,R16
	SUBI R16,-1
	RCALL _st7920_setxy_G104
	LDI  R17,LOW(16)
_0x2080029:
	MOV  R30,R17
	SUBI R17,1
	CPI  R30,0
	BREQ _0x208002B
	MOV  R26,R19
	RCALL _st7920_wrdata
	__DELAY_USB 4
	RJMP _0x2080029
_0x208002B:
	RJMP _0x2080026
_0x2080028:
	LDI  R30,LOW(0)
	ST   -Y,R30
	LDI  R26,LOW(0)
	RCALL _glcd_moveto
	CALL __LOADLOCR4
	JMP  _0x2180001
; .FEND
_glcd_clear:
; .FSTART _glcd_clear
	RCALL _glcd_cleartext
	RCALL _glcd_cleargraphics
	RET
; .FEND
_glcd_init:
; .FSTART _glcd_init
	ST   -Y,R27
	ST   -Y,R26
	ST   -Y,R17
	ST   -Y,R16
	SBI  0x1A,5
	CBI  0x1B,5
	SBI  0x1A,6
	SBI  0x1B,6
	SBI  0x1A,7
	CBI  0x1B,7
	SBI  0x1A,0
	CALL SUBOPT_0x1
	CBI  0x1B,0
	LDI  R26,LOW(1)
	LDI  R27,0
	CALL _delay_ms
	SBI  0x1B,0
	LDI  R26,LOW(1)
	LDI  R27,0
	CALL _delay_ms
	CBI  0x1B,6
	SBI  0x1A,4
	SBI  0x1A,3
	SBI  0x1A,2
	SBI  0x1A,1
	LDI  R17,LOW(0)
_0x208002D:
	CPI  R17,6
	BRSH _0x208002E
	SBI  0x1B,5
	MOV  R30,R17
	LDI  R31,0
	SUBI R30,LOW(-_st7920_init_4bit_G104*2)
	SBCI R31,HIGH(-_st7920_init_4bit_G104*2)
	LPM  R16,Z
	SBRS R16,4
	RJMP _0x208002F
	SBI  0x1B,4
	RJMP _0x2080030
_0x208002F:
	CBI  0x1B,4
_0x2080030:
	SBRS R16,5
	RJMP _0x2080031
	SBI  0x1B,3
	RJMP _0x2080032
_0x2080031:
	CBI  0x1B,3
_0x2080032:
	SBRS R16,6
	RJMP _0x2080033
	SBI  0x1B,2
	RJMP _0x2080034
_0x2080033:
	CBI  0x1B,2
_0x2080034:
	SBRS R16,7
	RJMP _0x2080035
	SBI  0x1B,1
	RJMP _0x2080036
_0x2080035:
	CBI  0x1B,1
_0x2080036:
	__DELAY_USB 18
	CBI  0x1B,5
	__DELAY_USW 553
	SUBI R17,-1
	RJMP _0x208002D
_0x208002E:
	LDI  R26,LOW(8)
	RCALL _st7920_wrbus_G104
	__DELAY_USW 553
	LDI  R26,LOW(1)
	RCALL _st7920_wrcmd
	LDI  R26,LOW(15)
	LDI  R27,0
	CALL _delay_ms
	LDI  R30,LOW(0)
	STS  _yt_G104,R30
	STS  _xt_G104,R30
	LDI  R26,LOW(6)
	RCALL _st7920_wrcmd
	LDI  R26,LOW(36)
	RCALL _st7920_wrcmd
	LDI  R26,LOW(64)
	RCALL _st7920_wrcmd
	LDI  R26,LOW(2)
	RCALL _st7920_wrcmd
	LDI  R30,LOW(0)
	STS  _st7920_graphics_on_G104,R30
	RCALL _glcd_cleargraphics
	LDI  R26,LOW(1)
	RCALL _glcd_display
	LDI  R30,LOW(1)
	STS  _glcd_state,R30
	LDI  R30,LOW(0)
	__PUTB1MN _glcd_state,1
	LDI  R30,LOW(1)
	__PUTB1MN _glcd_state,6
	__PUTB1MN _glcd_state,7
	LDD  R30,Y+2
	LDD  R31,Y+2+1
	SBIW R30,0
	BREQ _0x2080037
	LDD  R26,Y+2
	LDD  R27,Y+2+1
	CALL __GETW1P
	__PUTW1MN _glcd_state,4
	ADIW R26,2
	CALL __GETW1P
	__PUTW1MN _glcd_state,25
	LDD  R26,Y+2
	LDD  R27,Y+2+1
	ADIW R26,4
	CALL __GETW1P
	RJMP _0x20800C6
_0x2080037:
	LDI  R30,LOW(0)
	LDI  R31,HIGH(0)
	__PUTW1MN _glcd_state,4
	__PUTW1MN _glcd_state,25
_0x20800C6:
	__PUTW1MN _glcd_state,27
	LDI  R30,LOW(1)
	__PUTB1MN _glcd_state,8
	LDI  R30,LOW(255)
	__PUTB1MN _glcd_state,9
	LDI  R30,LOW(1)
	__PUTB1MN _glcd_state,16
	__POINTW1MN _glcd_state,17
	ST   -Y,R31
	ST   -Y,R30
	LDI  R30,LOW(255)
	ST   -Y,R30
	LDI  R26,LOW(8)
	LDI  R27,0
	CALL _memset
	LDI  R30,LOW(1)
	LDD  R17,Y+1
	LDD  R16,Y+0
	JMP  _0x2180001
; .FEND
_st7920_rdbyte_G104:
; .FSTART _st7920_rdbyte_G104
	ST   -Y,R26
	LDD  R30,Y+1
	ST   -Y,R30
	LDD  R26,Y+1
	RCALL _st7920_setxy_G104
	RCALL _st7920_rddata
	LDD  R30,Y+1
	ANDI R30,LOW(0xF)
	CPI  R30,LOW(0x8)
	BRLO _0x2080039
	RCALL _st7920_rddata
	STS  _st7920_bits8_15_G104,R30
_0x2080039:
	RCALL _st7920_rddata
	JMP  _0x2180003
; .FEND
_st7920_wrbyte_G104:
; .FSTART _st7920_wrbyte_G104
	ST   -Y,R26
	LDD  R30,Y+2
	ST   -Y,R30
	LDD  R26,Y+2
	RCALL _st7920_setxy_G104
	LDD  R30,Y+2
	ANDI R30,LOW(0xF)
	CPI  R30,LOW(0x8)
	BRLO _0x208003A
	LDS  R26,_st7920_bits8_15_G104
	RCALL _st7920_wrdata
_0x208003A:
	LD   R26,Y
	RCALL _st7920_wrdata
	JMP  _0x2180002
; .FEND
_st7920_wrmasked_G104:
; .FSTART _st7920_wrmasked_G104
	ST   -Y,R26
	ST   -Y,R17
	CALL SUBOPT_0x51
	LDD  R30,Y+5
	ST   -Y,R30
	LDD  R26,Y+5
	CALL SUBOPT_0x52
	MOV  R17,R30
	LDD  R30,Y+1
	CPI  R30,LOW(0x7)
	BREQ _0x208004A
	CPI  R30,LOW(0x8)
	BRNE _0x208004B
_0x208004A:
	LDD  R30,Y+3
	ST   -Y,R30
	LDD  R26,Y+2
	CALL _glcd_mappixcolor1bit
	STD  Y+3,R30
	RJMP _0x208004C
_0x208004B:
	CPI  R30,LOW(0x3)
	BRNE _0x208004E
	LDD  R30,Y+3
	COM  R30
	STD  Y+3,R30
	RJMP _0x208004F
_0x208004E:
	CPI  R30,0
	BRNE _0x2080050
_0x208004F:
	RJMP _0x2080051
_0x2080050:
	CPI  R30,LOW(0x9)
	BRNE _0x2080052
_0x2080051:
	RJMP _0x2080053
_0x2080052:
	CPI  R30,LOW(0xA)
	BRNE _0x2080054
_0x2080053:
_0x208004C:
	LDD  R30,Y+2
	COM  R30
	AND  R17,R30
	RJMP _0x2080055
_0x2080054:
	CPI  R30,LOW(0x2)
	BRNE _0x2080056
_0x2080055:
	LDD  R30,Y+2
	LDD  R26,Y+3
	AND  R30,R26
	OR   R17,R30
	RJMP _0x2080048
_0x2080056:
	CPI  R30,LOW(0x1)
	BRNE _0x2080057
	LDD  R30,Y+2
	LDD  R26,Y+3
	AND  R30,R26
	EOR  R17,R30
	RJMP _0x2080048
_0x2080057:
	CPI  R30,LOW(0x4)
	BRNE _0x2080048
	LDD  R30,Y+2
	COM  R30
	LDD  R26,Y+3
	OR   R30,R26
	AND  R17,R30
_0x2080048:
	LDD  R30,Y+5
	ST   -Y,R30
	LDD  R30,Y+5
	ST   -Y,R30
	MOV  R26,R17
	CALL _glcd_revbits
	MOV  R26,R30
	RCALL _st7920_wrbyte_G104
	LDD  R17,Y+0
_0x218000A:
	ADIW R28,6
	RET
; .FEND
_glcd_block:
; .FSTART _glcd_block
	ST   -Y,R26
	SBIW R28,7
	CALL __SAVELOCR6
	LDD  R26,Y+20
	CPI  R26,LOW(0x80)
	BRSH _0x208005A
	LDD  R26,Y+19
	CPI  R26,LOW(0x40)
	BRSH _0x208005A
	LDD  R26,Y+18
	CPI  R26,LOW(0x0)
	BREQ _0x208005A
	LDD  R26,Y+17
	CPI  R26,LOW(0x0)
	BRNE _0x2080059
_0x208005A:
	RJMP _0x2180009
_0x2080059:
	LDD  R30,Y+18
	LSR  R30
	LSR  R30
	LSR  R30
	MOV  R18,R30
	__PUTBSR 18,8
	LDD  R30,Y+18
	ANDI R30,LOW(0x7)
	STD  Y+11,R30
	CPI  R30,0
	BREQ _0x208005C
	LDD  R30,Y+8
	SUBI R30,-LOW(1)
	STD  Y+8,R30
_0x208005C:
	LDD  R16,Y+18
	LDD  R26,Y+20
	CLR  R27
	LDD  R30,Y+18
	LDI  R31,0
	ADD  R26,R30
	ADC  R27,R31
	CPI  R26,LOW(0x81)
	LDI  R30,HIGH(0x81)
	CPC  R27,R30
	BRLO _0x208005D
	LDD  R26,Y+20
	LDI  R30,LOW(128)
	SUB  R30,R26
	STD  Y+18,R30
_0x208005D:
	LDD  R30,Y+17
	STD  Y+10,R30
	LDD  R26,Y+19
	CLR  R27
	LDD  R30,Y+17
	LDI  R31,0
	ADD  R26,R30
	ADC  R27,R31
	CPI  R26,LOW(0x41)
	LDI  R30,HIGH(0x41)
	CPC  R27,R30
	BRLO _0x208005E
	LDD  R26,Y+19
	LDI  R30,LOW(64)
	SUB  R30,R26
	STD  Y+17,R30
_0x208005E:
	LDD  R30,Y+13
	CPI  R30,LOW(0x6)
	BREQ PC+2
	RJMP _0x2080062
	LDD  R30,Y+16
	CPI  R30,LOW(0x1)
	BRNE _0x2080066
	RJMP _0x2180009
_0x2080066:
	CPI  R30,LOW(0x3)
	BRNE _0x2080069
	__GETW1MN _glcd_state,27
	SBIW R30,0
	BRNE _0x2080068
	RJMP _0x2180009
_0x2080068:
_0x2080069:
	LDD  R30,Y+11
	CPI  R30,0
	BRNE _0x208006B
	LDD  R26,Y+18
	CP   R16,R26
	BREQ _0x208006A
_0x208006B:
	MOV  R30,R18
	LDD  R26,Y+14
	LDD  R27,Y+14+1
	LDI  R31,0
	CALL SUBOPT_0x53
	LDD  R17,Y+17
_0x208006D:
	CPI  R17,0
	BREQ _0x208006F
	MOV  R19,R18
_0x2080070:
	PUSH R19
	SUBI R19,-1
	LDD  R30,Y+8
	POP  R26
	CP   R26,R30
	BRSH _0x2080072
	CALL SUBOPT_0x54
	RJMP _0x2080070
_0x2080072:
	MOV  R30,R18
	LDD  R26,Y+6
	LDD  R27,Y+6+1
	LDI  R31,0
	CALL SUBOPT_0x53
	SUBI R17,LOW(1)
	RJMP _0x208006D
_0x208006F:
_0x208006A:
	LDD  R18,Y+17
	LDD  R30,Y+10
	CP   R30,R18
	BREQ _0x2080073
	MOV  R26,R18
	CLR  R27
	LDD  R30,Y+8
	LDI  R31,0
	CALL __MULW12U
	LDD  R26,Y+14
	LDD  R27,Y+14+1
	CALL SUBOPT_0x53
_0x2080074:
	PUSH R18
	SUBI R18,-1
	LDD  R30,Y+10
	POP  R26
	CP   R26,R30
	BRSH _0x2080076
	LDI  R19,LOW(0)
_0x2080077:
	PUSH R19
	SUBI R19,-1
	LDD  R30,Y+8
	POP  R26
	CP   R26,R30
	BRSH _0x2080079
	CALL SUBOPT_0x54
	RJMP _0x2080077
_0x2080079:
	RJMP _0x2080074
_0x2080076:
_0x2080073:
	RJMP _0x2080061
_0x2080062:
	CPI  R30,LOW(0x9)
	BRNE _0x208007A
	LDI  R30,LOW(0)
	RJMP _0x20800C7
_0x208007A:
	CPI  R30,LOW(0xA)
	BRNE _0x2080061
	LDI  R30,LOW(255)
_0x20800C7:
	STD  Y+10,R30
	ST   -Y,R30
	LDD  R26,Y+14
	CALL _glcd_mappixcolor1bit
	STD  Y+10,R30
_0x2080061:
	LDD  R30,Y+20
	ANDI R30,LOW(0x7)
	MOV  R19,R30
	LDI  R30,LOW(8)
	SUB  R30,R19
	MOV  R18,R30
	MOV  R21,R18
	LDD  R26,Y+18
	CP   R18,R26
	BRLO _0x208007E
	LDD  R21,Y+18
	RJMP _0x208007F
_0x208007E:
	CPI  R19,0
	BREQ _0x2080080
	MOV  R20,R19
	LDD  R26,Y+18
	CPI  R26,LOW(0x9)
	BRSH _0x2080081
	LDD  R30,Y+18
	SUB  R30,R18
	MOV  R20,R30
_0x2080081:
	MOV  R30,R20
	LDI  R31,0
	SUBI R30,LOW(-__glcd_mask*2)
	SBCI R31,HIGH(-__glcd_mask*2)
	LPM  R20,Z
_0x2080080:
_0x208007F:
	ST   -Y,R19
	MOV  R26,R21
	CALL _glcd_getmask
	MOV  R21,R30
	LDD  R26,Y+11
	CP   R18,R26
	BRSH _0x2080082
	LDD  R30,Y+11
	SUB  R30,R18
	STD  Y+11,R30
_0x2080082:
	LDD  R30,Y+11
	LDI  R31,0
	SUBI R30,LOW(-__glcd_mask*2)
	SBCI R31,HIGH(-__glcd_mask*2)
	LPM  R0,Z
	STD  Y+12,R0
	CALL SUBOPT_0x51
_0x2080083:
	LDD  R30,Y+17
	SUBI R30,LOW(1)
	STD  Y+17,R30
	SUBI R30,-LOW(1)
	BRNE PC+2
	RJMP _0x2080085
	LDI  R17,LOW(0)
	LDD  R16,Y+20
	LDD  R30,Y+14
	LDD  R31,Y+14+1
	STD  Y+6,R30
	STD  Y+6+1,R31
	CPI  R19,0
	BRNE PC+2
	RJMP _0x2080086
	__PUTBSR 20,11
	LDD  R26,Y+13
	CPI  R26,LOW(0x6)
	BREQ PC+2
	RJMP _0x2080087
_0x2080088:
	LDD  R30,Y+18
	CP   R17,R30
	BRLO PC+2
	RJMP _0x208008A
	ST   -Y,R16
	LDD  R26,Y+20
	CALL SUBOPT_0x52
	AND  R30,R21
	MOV  R26,R30
	MOV  R30,R19
	CALL __LSRB12
	STD  Y+9,R30
	CALL SUBOPT_0x55
	MOV  R1,R30
	MOV  R30,R19
	MOV  R26,R21
	CALL __LSRB12
	COM  R30
	AND  R30,R1
	LDD  R26,Y+9
	OR   R30,R26
	STD  Y+9,R30
	LDD  R26,Y+18
	CP   R18,R26
	BRSH _0x208008C
	MOV  R30,R16
	LSR  R30
	LSR  R30
	LSR  R30
	CPI  R30,LOW(0xF)
	BRLO _0x208008B
_0x208008C:
	CALL SUBOPT_0x56
	ST   -Y,R31
	ST   -Y,R30
	LDD  R26,Y+12
	CALL _glcd_writemem
	RJMP _0x208008A
_0x208008B:
	LDD  R26,Y+18
	SUB  R26,R17
	CPI  R26,LOW(0x8)
	BRSH _0x208008E
	LDD  R30,Y+12
	STD  Y+11,R30
_0x208008E:
	SUBI R16,-LOW(8)
	ST   -Y,R16
	LDD  R26,Y+20
	CALL SUBOPT_0x52
	LDD  R26,Y+11
	AND  R30,R26
	MOV  R26,R30
	MOV  R30,R18
	CALL __LSLB12
	STD  Y+10,R30
	MOV  R30,R18
	LDD  R26,Y+11
	CALL __LSLB12
	COM  R30
	LDD  R26,Y+9
	AND  R30,R26
	LDD  R26,Y+10
	OR   R30,R26
	STD  Y+10,R30
	CALL SUBOPT_0x56
	ADIW R30,1
	STD  Y+7,R30
	STD  Y+7+1,R31
	SBIW R30,1
	ST   -Y,R31
	ST   -Y,R30
	LDD  R26,Y+13
	CALL _glcd_writemem
	SUBI R17,-LOW(8)
	RJMP _0x2080088
_0x208008A:
	RJMP _0x208008F
_0x2080087:
_0x2080090:
	LDD  R30,Y+18
	CP   R17,R30
	BRSH _0x2080092
	LDD  R30,Y+13
	CPI  R30,LOW(0x9)
	BREQ _0x2080097
	CPI  R30,LOW(0xA)
	BRNE _0x2080099
_0x2080097:
	RJMP _0x2080095
_0x2080099:
	CALL SUBOPT_0x56
	ADIW R30,1
	STD  Y+7,R30
	STD  Y+7+1,R31
	SBIW R30,1
	CLR  R22
	CLR  R23
	MOVW R26,R30
	MOVW R24,R22
	CALL _glcd_readmem
	STD  Y+10,R30
_0x2080095:
	ST   -Y,R16
	LDD  R30,Y+20
	ST   -Y,R30
	MOV  R30,R19
	LDD  R26,Y+12
	CALL __LSLB12
	ST   -Y,R30
	ST   -Y,R21
	LDD  R26,Y+17
	RCALL _st7920_wrmasked_G104
	LDD  R26,Y+18
	CP   R18,R26
	BRSH _0x2080092
	MOV  R30,R16
	LSR  R30
	LSR  R30
	LSR  R30
	CPI  R30,LOW(0xF)
	BRSH _0x2080092
	SUB  R26,R17
	CPI  R26,LOW(0x8)
	BRSH _0x208009C
	LDD  R30,Y+12
	STD  Y+11,R30
_0x208009C:
	SUBI R16,-LOW(8)
	ST   -Y,R16
	LDD  R30,Y+20
	ST   -Y,R30
	MOV  R30,R18
	LDD  R26,Y+12
	CALL __LSRB12
	CALL SUBOPT_0x57
	SUBI R17,-LOW(8)
	RJMP _0x2080090
_0x2080092:
_0x208008F:
	RJMP _0x208009D
_0x2080086:
	__PUTBSR 21,11
_0x208009E:
	LDD  R30,Y+18
	CP   R17,R30
	BRSH _0x20800A0
	LDD  R26,Y+18
	SUB  R26,R17
	CPI  R26,LOW(0x8)
	BRSH _0x20800A1
	LDD  R30,Y+12
	STD  Y+11,R30
_0x20800A1:
	LDD  R30,Y+13
	CPI  R30,LOW(0x9)
	BREQ _0x20800A6
	CPI  R30,LOW(0xA)
	BRNE _0x20800A8
_0x20800A6:
	RJMP _0x20800A4
_0x20800A8:
	LDD  R26,Y+13
	CPI  R26,LOW(0x6)
	BRNE _0x20800AA
	LDD  R26,Y+11
	CPI  R26,LOW(0xFF)
	BREQ _0x20800A9
_0x20800AA:
	CALL SUBOPT_0x55
	STD  Y+10,R30
_0x20800A9:
_0x20800A4:
	LDD  R26,Y+13
	CPI  R26,LOW(0x6)
	BRNE _0x20800AC
	CALL SUBOPT_0x56
	ST   -Y,R31
	ST   -Y,R30
	ST   -Y,R16
	LDD  R26,Y+23
	CALL SUBOPT_0x52
	LDD  R26,Y+14
	AND  R30,R26
	MOV  R0,R30
	LDD  R30,Y+14
	COM  R30
	LDD  R26,Y+13
	AND  R30,R26
	OR   R30,R0
	MOV  R26,R30
	CALL _glcd_writemem
	RJMP _0x20800AD
_0x20800AC:
	ST   -Y,R16
	LDD  R30,Y+20
	ST   -Y,R30
	LDD  R30,Y+12
	CALL SUBOPT_0x57
_0x20800AD:
	LDD  R30,Y+6
	LDD  R31,Y+6+1
	ADIW R30,1
	STD  Y+6,R30
	STD  Y+6+1,R31
	SUBI R16,-LOW(8)
	SUBI R17,-LOW(8)
	RJMP _0x208009E
_0x20800A0:
_0x208009D:
	LDD  R30,Y+19
	SUBI R30,-LOW(1)
	STD  Y+19,R30
	LDD  R30,Y+8
	LDD  R26,Y+14
	LDD  R27,Y+14+1
	LDI  R31,0
	ADD  R30,R26
	ADC  R31,R27
	STD  Y+14,R30
	STD  Y+14+1,R31
	RJMP _0x2080083
_0x2080085:
_0x2180009:
	CALL __LOADLOCR6
	ADIW R28,21
	RET
; .FEND
_lcd_gotoxy:
; .FSTART _lcd_gotoxy
	ST   -Y,R26
	LDD  R26,Y+1
	CPI  R26,LOW(0x10)
	BRLO _0x20800AE
	LDI  R30,LOW(15)
	STD  Y+1,R30
_0x20800AE:
	LD   R26,Y
	CPI  R26,LOW(0x4)
	BRLO _0x20800AF
	LDI  R30,LOW(3)
	ST   Y,R30
_0x20800AF:
	CALL SUBOPT_0x50
	LD   R30,Y
	LDI  R31,0
	SUBI R30,LOW(-_st7920_base_y_G104*2)
	SBCI R31,HIGH(-_st7920_base_y_G104*2)
	LPM  R26,Z
	LDD  R30,Y+1
	LSR  R30
	OR   R30,R26
	MOV  R26,R30
	RCALL _st7920_wrcmd
	LDD  R30,Y+1
	STS  _xt_G104,R30
	LD   R30,Y
	STS  _yt_G104,R30
	JMP  _0x2180003
; .FEND
_glcd_putcharcg:
; .FSTART _glcd_putcharcg
	ST   -Y,R26
	ST   -Y,R17
	ST   -Y,R16
	LDD  R26,Y+4
	CPI  R26,LOW(0x10)
	BRLO _0x20800B0
	LDI  R30,LOW(15)
	STD  Y+4,R30
_0x20800B0:
	LDD  R26,Y+3
	CPI  R26,LOW(0x4)
	BRLO _0x20800B1
	LDI  R30,LOW(3)
	STD  Y+3,R30
_0x20800B1:
	LDD  R30,Y+3
	LDI  R31,0
	SUBI R30,LOW(-_st7920_base_y_G104*2)
	SBCI R31,HIGH(-_st7920_base_y_G104*2)
	LPM  R26,Z
	LDD  R30,Y+4
	LSR  R30
	OR   R30,R26
	MOV  R17,R30
	CALL SUBOPT_0x50
	MOV  R26,R17
	RCALL _st7920_wrcmd
	RCALL _st7920_rddata
	LDD  R30,Y+4
	ANDI R30,LOW(0x1)
	BREQ _0x20800B2
	RCALL _st7920_rddata
	MOV  R16,R30
_0x20800B2:
	MOV  R26,R17
	RCALL _st7920_wrcmd
	LDD  R30,Y+4
	ANDI R30,LOW(0x1)
	BREQ _0x20800B3
	MOV  R26,R16
	RCALL _st7920_wrdata
_0x20800B3:
	LDD  R26,Y+2
	RCALL _st7920_wrdata
	LDD  R17,Y+1
	LDD  R16,Y+0
_0x2180008:
	ADIW R28,5
	RET
; .FEND
_lcd_putchar:
; .FSTART _lcd_putchar
	ST   -Y,R26
	LD   R26,Y
	CPI  R26,LOW(0xA)
	BREQ _0x20800B8
	LDS  R26,_xt_G104
	CPI  R26,LOW(0x10)
	BRLO _0x20800B7
_0x20800B8:
	LDI  R30,LOW(0)
	STS  _xt_G104,R30
	LDS  R26,_yt_G104
	SUBI R26,-LOW(1)
	STS  _yt_G104,R26
	CPI  R26,LOW(0x4)
	BRLO _0x20800BA
	STS  _yt_G104,R30
_0x20800BA:
_0x20800B7:
	LD   R26,Y
	CPI  R26,LOW(0xA)
	BRNE _0x20800BB
	LDS  R30,_xt_G104
	ST   -Y,R30
	LDS  R26,_yt_G104
	RCALL _lcd_gotoxy
	RJMP _0x20800BC
_0x20800BB:
	LDS  R30,_xt_G104
	SUBI R30,-LOW(1)
	STS  _xt_G104,R30
	SUBI R30,LOW(1)
	ST   -Y,R30
	LDS  R30,_yt_G104
	ST   -Y,R30
	LDD  R26,Y+2
	RCALL _glcd_putcharcg
_0x20800BC:
_0x2180007:
	ADIW R28,1
	RET
; .FEND
_lcd_puts:
; .FSTART _lcd_puts
	ST   -Y,R27
	ST   -Y,R26
	ST   -Y,R17
_0x20800BD:
	LDD  R26,Y+1
	LDD  R27,Y+1+1
	LD   R30,X+
	STD  Y+1,R26
	STD  Y+1+1,R27
	MOV  R17,R30
	CPI  R30,0
	BREQ _0x20800BF
	MOV  R26,R17
	RCALL _lcd_putchar
	RJMP _0x20800BD
_0x20800BF:
	LDD  R17,Y+0
	JMP  _0x2180002
; .FEND

	.CSEG
_glcd_clipx:
; .FSTART _glcd_clipx
	CALL SUBOPT_0x58
	BRLT _0x20A0003
	LDI  R30,LOW(0)
	LDI  R31,HIGH(0)
	JMP  _0x2180003
_0x20A0003:
	LD   R26,Y
	LDD  R27,Y+1
	CPI  R26,LOW(0x80)
	LDI  R30,HIGH(0x80)
	CPC  R27,R30
	BRLT _0x20A0004
	LDI  R30,LOW(127)
	LDI  R31,HIGH(127)
	JMP  _0x2180003
_0x20A0004:
	LD   R30,Y
	LDD  R31,Y+1
	JMP  _0x2180003
; .FEND
_glcd_clipy:
; .FSTART _glcd_clipy
	CALL SUBOPT_0x58
	BRLT _0x20A0005
	LDI  R30,LOW(0)
	LDI  R31,HIGH(0)
	JMP  _0x2180003
_0x20A0005:
	LD   R26,Y
	LDD  R27,Y+1
	CPI  R26,LOW(0x40)
	LDI  R30,HIGH(0x40)
	CPC  R27,R30
	BRLT _0x20A0006
	LDI  R30,LOW(63)
	LDI  R31,HIGH(63)
	JMP  _0x2180003
_0x20A0006:
	LD   R30,Y
	LDD  R31,Y+1
	JMP  _0x2180003
; .FEND
_glcd_imagesize:
; .FSTART _glcd_imagesize
	ST   -Y,R26
	ST   -Y,R17
	LDD  R26,Y+2
	CPI  R26,LOW(0x80)
	BRSH _0x20A0008
	LDD  R26,Y+1
	CPI  R26,LOW(0x40)
	BRLO _0x20A0007
_0x20A0008:
	__GETD1N 0x0
	LDD  R17,Y+0
	JMP  _0x2180002
_0x20A0007:
	LDD  R30,Y+2
	ANDI R30,LOW(0x7)
	MOV  R17,R30
	LDD  R30,Y+2
	LSR  R30
	LSR  R30
	LSR  R30
	STD  Y+2,R30
	CPI  R17,0
	BREQ _0x20A000A
	SUBI R30,-LOW(1)
	STD  Y+2,R30
_0x20A000A:
	LDD  R26,Y+2
	CLR  R27
	CLR  R24
	CLR  R25
	LDD  R30,Y+1
	CLR  R31
	CLR  R22
	CLR  R23
	CALL __MULD12U
	__ADDD1N 4
	LDD  R17,Y+0
	JMP  _0x2180002
; .FEND
_glcd_putimagef:
; .FSTART _glcd_putimagef
	ST   -Y,R26
	CALL __SAVELOCR4
	LDD  R26,Y+4
	CPI  R26,LOW(0x5)
	BRSH _0x20A003D
	LDD  R30,Y+5
	LDD  R31,Y+5+1
	LPM  R16,Z+
	CALL SUBOPT_0x59
	LPM  R17,Z+
	CALL SUBOPT_0x59
	LPM  R18,Z+
	CALL SUBOPT_0x59
	LPM  R19,Z+
	STD  Y+5,R30
	STD  Y+5+1,R31
	LDD  R30,Y+8
	ST   -Y,R30
	LDD  R30,Y+8
	ST   -Y,R30
	ST   -Y,R16
	ST   -Y,R18
	LDI  R30,LOW(1)
	ST   -Y,R30
	LDD  R30,Y+10
	LDD  R31,Y+10+1
	ST   -Y,R31
	ST   -Y,R30
	LDD  R26,Y+11
	RCALL _glcd_block
	ST   -Y,R16
	MOV  R26,R18
	RCALL _glcd_imagesize
	RJMP _0x2180006
_0x20A003D:
	__GETD1N 0x0
_0x2180006:
	CALL __LOADLOCR4
	ADIW R28,9
	RET
; .FEND
_glcd_moveto:
; .FSTART _glcd_moveto
	ST   -Y,R26
	LDD  R26,Y+1
	CLR  R27
	RCALL _glcd_clipx
	__PUTB1MN _glcd_state,2
	LD   R26,Y
	CLR  R27
	RCALL _glcd_clipy
	__PUTB1MN _glcd_state,3
	JMP  _0x2180003
; .FEND

	.CSEG

	.CSEG
_ftrunc:
; .FSTART _ftrunc
	CALL __PUTPARD2
   ldd  r23,y+3
   ldd  r22,y+2
   ldd  r31,y+1
   ld   r30,y
   bst  r23,7
   lsl  r23
   sbrc r22,7
   sbr  r23,1
   mov  r25,r23
   subi r25,0x7e
   breq __ftrunc0
   brcs __ftrunc0
   cpi  r25,24
   brsh __ftrunc1
   clr  r26
   clr  r27
   clr  r24
__ftrunc2:
   sec
   ror  r24
   ror  r27
   ror  r26
   dec  r25
   brne __ftrunc2
   and  r30,r26
   and  r31,r27
   and  r22,r24
   rjmp __ftrunc1
__ftrunc0:
   clt
   clr  r23
   clr  r30
   clr  r31
   clr  r22
__ftrunc1:
   cbr  r22,0x80
   lsr  r23
   brcc __ftrunc3
   sbr  r22,0x80
__ftrunc3:
   bld  r23,7
   ld   r26,y+
   ld   r27,y+
   ld   r24,y+
   ld   r25,y+
   cp   r30,r26
   cpc  r31,r27
   cpc  r22,r24
   cpc  r23,r25
   bst  r25,7
   ret
; .FEND
_floor:
; .FSTART _floor
	CALL __PUTPARD2
	CALL __GETD2S0
	CALL _ftrunc
	CALL __PUTD1S0
    brne __floor1
__floor0:
	CALL __GETD1S0
	JMP  _0x2180001
__floor1:
    brtc __floor0
	CALL __GETD1S0
	__GETD2N 0x3F800000
	CALL __SUBF12
	JMP  _0x2180001
; .FEND

	.CSEG
_ftoa:
; .FSTART _ftoa
	CALL SUBOPT_0x29
	LDI  R30,LOW(0)
	STD  Y+2,R30
	LDI  R30,LOW(63)
	STD  Y+3,R30
	ST   -Y,R17
	ST   -Y,R16
	LDD  R30,Y+11
	LDD  R31,Y+11+1
	CPI  R30,LOW(0xFFFF)
	LDI  R26,HIGH(0xFFFF)
	CPC  R31,R26
	BRNE _0x212000D
	CALL SUBOPT_0x5A
	__POINTW2FN _0x2120000,0
	CALL _strcpyf
	RJMP _0x2180005
_0x212000D:
	CPI  R30,LOW(0x7FFF)
	LDI  R26,HIGH(0x7FFF)
	CPC  R31,R26
	BRNE _0x212000C
	CALL SUBOPT_0x5A
	__POINTW2FN _0x2120000,1
	CALL _strcpyf
	RJMP _0x2180005
_0x212000C:
	LDD  R26,Y+12
	TST  R26
	BRPL _0x212000F
	__GETD1S 9
	CALL __ANEGF1
	CALL SUBOPT_0x5B
	CALL SUBOPT_0x5C
	LDI  R30,LOW(45)
	ST   X,R30
_0x212000F:
	LDD  R26,Y+8
	CPI  R26,LOW(0x7)
	BRLO _0x2120010
	LDI  R30,LOW(6)
	STD  Y+8,R30
_0x2120010:
	LDD  R17,Y+8
_0x2120011:
	MOV  R30,R17
	SUBI R17,1
	CPI  R30,0
	BREQ _0x2120013
	CALL SUBOPT_0x5D
	CALL SUBOPT_0x31
	CALL SUBOPT_0x5E
	RJMP _0x2120011
_0x2120013:
	CALL SUBOPT_0x5F
	CALL __ADDF12
	CALL SUBOPT_0x5B
	LDI  R17,LOW(0)
	__GETD1N 0x3F800000
	CALL SUBOPT_0x5E
_0x2120014:
	CALL SUBOPT_0x5F
	CALL __CMPF12
	BRLO _0x2120016
	CALL SUBOPT_0x5D
	CALL SUBOPT_0x2E
	CALL SUBOPT_0x5E
	SUBI R17,-LOW(1)
	CPI  R17,39
	BRLO _0x2120017
	CALL SUBOPT_0x5A
	__POINTW2FN _0x2120000,5
	CALL _strcpyf
	RJMP _0x2180005
_0x2120017:
	RJMP _0x2120014
_0x2120016:
	CPI  R17,0
	BRNE _0x2120018
	CALL SUBOPT_0x5C
	LDI  R30,LOW(48)
	ST   X,R30
	RJMP _0x2120019
_0x2120018:
_0x212001A:
	MOV  R30,R17
	SUBI R17,1
	CPI  R30,0
	BREQ _0x212001C
	CALL SUBOPT_0x5D
	CALL SUBOPT_0x31
	CALL SUBOPT_0x30
	MOVW R26,R30
	MOVW R24,R22
	CALL _floor
	CALL SUBOPT_0x5E
	CALL SUBOPT_0x5F
	CALL __DIVF21
	CALL __CFD1U
	MOV  R16,R30
	CALL SUBOPT_0x5C
	CALL SUBOPT_0x33
	LDI  R31,0
	CALL SUBOPT_0x5D
	CALL SUBOPT_0x4E
	CALL __MULF12
	CALL SUBOPT_0x60
	CALL SUBOPT_0x34
	CALL SUBOPT_0x5B
	RJMP _0x212001A
_0x212001C:
_0x2120019:
	LDD  R30,Y+8
	CPI  R30,0
	BREQ _0x2180004
	CALL SUBOPT_0x5C
	LDI  R30,LOW(46)
	ST   X,R30
_0x212001E:
	LDD  R30,Y+8
	SUBI R30,LOW(1)
	STD  Y+8,R30
	SUBI R30,-LOW(1)
	BREQ _0x2120020
	CALL SUBOPT_0x60
	CALL SUBOPT_0x2E
	CALL SUBOPT_0x5B
	__GETD1S 9
	CALL __CFD1U
	MOV  R16,R30
	CALL SUBOPT_0x5C
	CALL SUBOPT_0x33
	LDI  R31,0
	CALL SUBOPT_0x60
	CALL SUBOPT_0x4E
	CALL SUBOPT_0x34
	CALL SUBOPT_0x5B
	RJMP _0x212001E
_0x2120020:
_0x2180004:
	LDD  R26,Y+6
	LDD  R27,Y+6+1
	LDI  R30,LOW(0)
	ST   X,R30
_0x2180005:
	LDD  R17,Y+1
	LDD  R16,Y+0
	ADIW R28,13
	RET
; .FEND

	.DSEG

	.CSEG

	.CSEG
_bcd2bin:
; .FSTART _bcd2bin
	ST   -Y,R26
    ld   r30,y
    swap r30
    andi r30,0xf
    mov  r26,r30
    lsl  r26
    lsl  r26
    add  r30,r26
    lsl  r30
    ld   r26,y+
    andi r26,0xf
    add  r30,r26
    ret
; .FEND
_bin2bcd:
; .FSTART _bin2bcd
	ST   -Y,R26
    ld   r26,y+
    clr  r30
bin2bcd0:
    subi r26,10
    brmi bin2bcd1
    subi r30,-16
    rjmp bin2bcd0
bin2bcd1:
    subi r26,-10
    add  r30,r26
    ret
; .FEND

	.CSEG
_glcd_getmask:
; .FSTART _glcd_getmask
	ST   -Y,R26
	LD   R30,Y
	LDI  R31,0
	SUBI R30,LOW(-__glcd_mask*2)
	SBCI R31,HIGH(-__glcd_mask*2)
	LPM  R26,Z
	LDD  R30,Y+1
	CALL __LSLB12
_0x2180003:
	ADIW R28,2
	RET
; .FEND
_glcd_mappixcolor1bit:
; .FSTART _glcd_mappixcolor1bit
	ST   -Y,R26
	ST   -Y,R17
	LDD  R30,Y+1
	CPI  R30,LOW(0x7)
	BREQ _0x2160007
	CPI  R30,LOW(0xA)
	BRNE _0x2160008
_0x2160007:
	LDS  R17,_glcd_state
	RJMP _0x2160009
_0x2160008:
	CPI  R30,LOW(0x9)
	BRNE _0x216000B
	__GETBRMN 17,_glcd_state,1
	RJMP _0x2160009
_0x216000B:
	CPI  R30,LOW(0x8)
	BRNE _0x2160005
	__GETBRMN 17,_glcd_state,16
_0x2160009:
	__GETB1MN _glcd_state,1
	CPI  R30,0
	BREQ _0x216000E
	CPI  R17,0
	BREQ _0x216000F
	LDI  R30,LOW(255)
	LDD  R17,Y+0
	RJMP _0x2180002
_0x216000F:
	LDD  R30,Y+2
	COM  R30
	LDD  R17,Y+0
	RJMP _0x2180002
_0x216000E:
	CPI  R17,0
	BRNE _0x2160011
	LDI  R30,LOW(0)
	LDD  R17,Y+0
	RJMP _0x2180002
_0x2160011:
_0x2160005:
	LDD  R30,Y+2
	LDD  R17,Y+0
	RJMP _0x2180002
; .FEND
_glcd_readmem:
; .FSTART _glcd_readmem
	ST   -Y,R27
	ST   -Y,R26
	LDD  R30,Y+2
	CPI  R30,LOW(0x1)
	BRNE _0x2160015
	LD   R30,Y
	LDD  R31,Y+1
	LPM  R30,Z
	RJMP _0x2180002
_0x2160015:
	CPI  R30,LOW(0x2)
	BRNE _0x2160016
	LD   R26,Y
	LDD  R27,Y+1
	CALL __EEPROMRDB
	RJMP _0x2180002
_0x2160016:
	CPI  R30,LOW(0x3)
	BRNE _0x2160018
	LD   R26,Y
	LDD  R27,Y+1
	__CALL1MN _glcd_state,25
	RJMP _0x2180002
_0x2160018:
	LD   R26,Y
	LDD  R27,Y+1
	LD   R30,X
_0x2180002:
	ADIW R28,3
	RET
; .FEND
_glcd_writemem:
; .FSTART _glcd_writemem
	ST   -Y,R26
	LDD  R30,Y+3
	CPI  R30,0
	BRNE _0x216001C
	LD   R30,Y
	LDD  R26,Y+1
	LDD  R27,Y+1+1
	ST   X,R30
	RJMP _0x216001B
_0x216001C:
	CPI  R30,LOW(0x2)
	BRNE _0x216001D
	LD   R30,Y
	LDD  R26,Y+1
	LDD  R27,Y+1+1
	CALL __EEPROMWRB
	RJMP _0x216001B
_0x216001D:
	CPI  R30,LOW(0x3)
	BRNE _0x216001B
	LDD  R30,Y+1
	LDD  R31,Y+1+1
	ST   -Y,R31
	ST   -Y,R30
	LDD  R26,Y+2
	__CALL1MN _glcd_state,27
_0x216001B:
_0x2180001:
	ADIW R28,4
	RET
; .FEND
_glcd_revbits:
; .FSTART _glcd_revbits
	ST   -Y,R26
    ld  r26,y+
    bst r26,0
    bld r30,7

    bst r26,1
    bld r30,6

    bst r26,2
    bld r30,5

    bst r26,3
    bld r30,4

    bst r26,4
    bld r30,3

    bst r26,5
    bld r30,2

    bst r26,6
    bld r30,1

    bst r26,7
    bld r30,0
    ret
; .FEND

	.DSEG
___ds18b20_scratch_pad:
	.BYTE 0x9
_ds1820_rom_codes:
	.BYTE 0x48
_glcd_state:
	.BYTE 0x1D
_sh_year:
	.BYTE 0x2
__weekday:
	.BYTE 0x1C
_strsec:
	.BYTE 0xC
_selection:
	.BYTE 0x1
_j:
	.BYTE 0x1
_lsec:
	.BYTE 0x1
_str:
	.BYTE 0xA
_state:
	.BYTE 0x7
_temp:
	.BYTE 0x4
_st7920_graphics_on_G104:
	.BYTE 0x1
_st7920_bits8_15_G104:
	.BYTE 0x1
_xt_G104:
	.BYTE 0x1
_yt_G104:
	.BYTE 0x1
__seed_G109:
	.BYTE 0x4

	.CSEG
;OPTIMIZER ADDED SUBROUTINE, CALLED 2 TIMES, CODE SIZE REDUCTION:2 WORDS
SUBOPT_0x0:
	LDI  R30,LOW(240)
	ST   -Y,R30
	LDI  R26,LOW(_ds1820_rom_codes)
	LDI  R27,HIGH(_ds1820_rom_codes)
	CALL _w1_search
	MOV  R5,R30
	RET

;OPTIMIZER ADDED SUBROUTINE, CALLED 3 TIMES, CODE SIZE REDUCTION:1 WORDS
SUBOPT_0x1:
	LDI  R26,LOW(50)
	LDI  R27,0
	JMP  _delay_ms

;OPTIMIZER ADDED SUBROUTINE, CALLED 4 TIMES, CODE SIZE REDUCTION:12 WORDS
SUBOPT_0x2:
	LDS  R30,_j
	SUBI R30,-LOW(1)
	STS  _j,R30
	LDS  R26,_j
	RET

;OPTIMIZER ADDED SUBROUTINE, CALLED 11 TIMES, CODE SIZE REDUCTION:17 WORDS
SUBOPT_0x3:
	LDI  R30,LOW(_str)
	LDI  R31,HIGH(_str)
	ST   -Y,R31
	ST   -Y,R30
	RET

;OPTIMIZER ADDED SUBROUTINE, CALLED 2 TIMES, CODE SIZE REDUCTION:3 WORDS
SUBOPT_0x4:
	MOV  R30,R10
	LDI  R31,0
	SUBI R30,LOW(-1400)
	SBCI R31,HIGH(-1400)
	STS  _sh_year,R30
	STS  _sh_year+1,R31
	RET

;OPTIMIZER ADDED SUBROUTINE, CALLED 2 TIMES, CODE SIZE REDUCTION:4 WORDS
SUBOPT_0x5:
	LDS  R26,_selection
	LDI  R30,LOW(1)
	CALL __EQB12
	MOV  R0,R30
	LDI  R26,0
	SBRC R2,1
	LDI  R26,1
	RET

;OPTIMIZER ADDED SUBROUTINE, CALLED 7 TIMES, CODE SIZE REDUCTION:9 WORDS
SUBOPT_0x6:
	LDI  R30,LOW(0)
	CALL __EQB12
	AND  R30,R0
	RET

;OPTIMIZER ADDED SUBROUTINE, CALLED 7 TIMES, CODE SIZE REDUCTION:9 WORDS
SUBOPT_0x7:
	LDI  R30,LOW(1)
	CALL __EQB12
	AND  R30,R0
	RET

;OPTIMIZER ADDED SUBROUTINE, CALLED 2 TIMES, CODE SIZE REDUCTION:5 WORDS
SUBOPT_0x8:
	ST   -Y,R31
	ST   -Y,R30
	LDS  R30,_sh_year
	LDS  R31,_sh_year+1
	CALL __CWD1
	CALL __PUTPARD1
	RET

;OPTIMIZER ADDED SUBROUTINE, CALLED 9 TIMES, CODE SIZE REDUCTION:13 WORDS
SUBOPT_0x9:
	LDI  R24,4
	CALL _sprintf
	ADIW R28,8
	RET

;OPTIMIZER ADDED SUBROUTINE, CALLED 3 TIMES, CODE SIZE REDUCTION:3 WORDS
SUBOPT_0xA:
	LDI  R30,LOW(0)
	ST   -Y,R30
	LDI  R26,LOW(0)
	JMP  _lcd_gotoxy

;OPTIMIZER ADDED SUBROUTINE, CALLED 6 TIMES, CODE SIZE REDUCTION:17 WORDS
SUBOPT_0xB:
	LDI  R26,LOW(_str)
	LDI  R27,HIGH(_str)
	CALL _lcd_puts
	LDS  R26,_selection
	RET

;OPTIMIZER ADDED SUBROUTINE, CALLED 2 TIMES, CODE SIZE REDUCTION:2 WORDS
SUBOPT_0xC:
	LDI  R30,LOW(2)
	CALL __EQB12
	MOV  R0,R30
	LDI  R26,0
	SBRC R2,1
	LDI  R26,1
	RET

;OPTIMIZER ADDED SUBROUTINE, CALLED 5 TIMES, CODE SIZE REDUCTION:5 WORDS
SUBOPT_0xD:
	__POINTW2FN _0x0,8
	JMP  _strcpyf

;OPTIMIZER ADDED SUBROUTINE, CALLED 2 TIMES, CODE SIZE REDUCTION:1 WORDS
SUBOPT_0xE:
	MOV  R30,R13
	CLR  R31
	CLR  R22
	CLR  R23
	CALL __PUTPARD1
	RET

;OPTIMIZER ADDED SUBROUTINE, CALLED 3 TIMES, CODE SIZE REDUCTION:5 WORDS
SUBOPT_0xF:
	ST   -Y,R30
	LDI  R26,LOW(0)
	CALL _lcd_gotoxy
	RJMP SUBOPT_0xB

;OPTIMIZER ADDED SUBROUTINE, CALLED 2 TIMES, CODE SIZE REDUCTION:2 WORDS
SUBOPT_0x10:
	LDI  R30,LOW(3)
	CALL __EQB12
	MOV  R0,R30
	LDI  R26,0
	SBRC R2,1
	LDI  R26,1
	RET

;OPTIMIZER ADDED SUBROUTINE, CALLED 2 TIMES, CODE SIZE REDUCTION:1 WORDS
SUBOPT_0x11:
	ST   -Y,R31
	ST   -Y,R30
	__POINTW1FN _0x0,23
	ST   -Y,R31
	ST   -Y,R30
	RET

;OPTIMIZER ADDED SUBROUTINE, CALLED 2 TIMES, CODE SIZE REDUCTION:1 WORDS
SUBOPT_0x12:
	MOV  R30,R12
	CLR  R31
	CLR  R22
	CLR  R23
	CALL __PUTPARD1
	RET

;OPTIMIZER ADDED SUBROUTINE, CALLED 2 TIMES, CODE SIZE REDUCTION:2 WORDS
SUBOPT_0x13:
	LDI  R30,LOW(4)
	CALL __EQB12
	MOV  R0,R30
	LDI  R26,0
	SBRC R2,1
	LDI  R26,1
	RET

;OPTIMIZER ADDED SUBROUTINE, CALLED 2 TIMES, CODE SIZE REDUCTION:7 WORDS
SUBOPT_0x14:
	ST   -Y,R31
	ST   -Y,R30
	MOV  R30,R11
	LDI  R26,LOW(__weekday)
	LDI  R27,HIGH(__weekday)
	LDI  R31,0
	CALL __LSLW2
	ADD  R26,R30
	ADC  R27,R31
	JMP  _strcpy

;OPTIMIZER ADDED SUBROUTINE, CALLED 2 TIMES, CODE SIZE REDUCTION:2 WORDS
SUBOPT_0x15:
	LDI  R30,LOW(5)
	CALL __EQB12
	MOV  R0,R30
	LDI  R26,0
	SBRC R2,1
	LDI  R26,1
	RET

;OPTIMIZER ADDED SUBROUTINE, CALLED 2 TIMES, CODE SIZE REDUCTION:1 WORDS
SUBOPT_0x16:
	ST   -Y,R31
	ST   -Y,R30
	__POINTW1FN _0x0,28
	ST   -Y,R31
	ST   -Y,R30
	RET

;OPTIMIZER ADDED SUBROUTINE, CALLED 2 TIMES, CODE SIZE REDUCTION:1 WORDS
SUBOPT_0x17:
	MOV  R30,R6
	CLR  R31
	CLR  R22
	CLR  R23
	CALL __PUTPARD1
	RET

;OPTIMIZER ADDED SUBROUTINE, CALLED 2 TIMES, CODE SIZE REDUCTION:1 WORDS
SUBOPT_0x18:
	ST   -Y,R30
	LDI  R26,LOW(1)
	CALL _lcd_gotoxy
	RJMP SUBOPT_0xB

;OPTIMIZER ADDED SUBROUTINE, CALLED 2 TIMES, CODE SIZE REDUCTION:2 WORDS
SUBOPT_0x19:
	LDI  R30,LOW(6)
	CALL __EQB12
	MOV  R0,R30
	LDI  R26,0
	SBRC R2,1
	LDI  R26,1
	RET

;OPTIMIZER ADDED SUBROUTINE, CALLED 2 TIMES, CODE SIZE REDUCTION:1 WORDS
SUBOPT_0x1A:
	MOV  R30,R9
	CLR  R31
	CLR  R22
	CLR  R23
	CALL __PUTPARD1
	RET

;OPTIMIZER ADDED SUBROUTINE, CALLED 2 TIMES, CODE SIZE REDUCTION:2 WORDS
SUBOPT_0x1B:
	LDI  R30,LOW(7)
	CALL __EQB12
	MOV  R0,R30
	LDI  R26,0
	SBRC R2,1
	LDI  R26,1
	RET

;OPTIMIZER ADDED SUBROUTINE, CALLED 2 TIMES, CODE SIZE REDUCTION:1 WORDS
SUBOPT_0x1C:
	MOV  R30,R8
	CLR  R31
	CLR  R22
	CLR  R23
	CALL __PUTPARD1
	RET

;OPTIMIZER ADDED SUBROUTINE, CALLED 3 TIMES, CODE SIZE REDUCTION:1 WORDS
SUBOPT_0x1D:
	ST   -Y,R30
	LDI  R26,LOW(1)
	JMP  _lcd_gotoxy

;OPTIMIZER ADDED SUBROUTINE, CALLED 4 TIMES, CODE SIZE REDUCTION:3 WORDS
SUBOPT_0x1E:
	LDI  R26,LOW(_str)
	LDI  R27,HIGH(_str)
	JMP  _lcd_puts

;OPTIMIZER ADDED SUBROUTINE, CALLED 2 TIMES, CODE SIZE REDUCTION:3 WORDS
SUBOPT_0x1F:
	CLT
	BLD  R2,1
	LDI  R30,LOW(0)
	STS  _j,R30
	LDS  R26,_selection
	CPI  R26,LOW(0x1)
	RET

;OPTIMIZER ADDED SUBROUTINE, CALLED 4 TIMES, CODE SIZE REDUCTION:3 WORDS
SUBOPT_0x20:
	LDI  R26,LOW(25)
	LDI  R27,0
	JMP  _delay_ms

;OPTIMIZER ADDED SUBROUTINE, CALLED 2 TIMES, CODE SIZE REDUCTION:1 WORDS
SUBOPT_0x21:
	LDI  R26,LOW(3000)
	LDI  R27,HIGH(3000)
	CALL _delay_ms
	JMP  _glcd_clear

;OPTIMIZER ADDED SUBROUTINE, CALLED 7 TIMES, CODE SIZE REDUCTION:9 WORDS
SUBOPT_0x22:
	LDI  R30,LOW(0)
	ST   -Y,R30
	ST   -Y,R30
	RET

;OPTIMIZER ADDED SUBROUTINE, CALLED 3 TIMES, CODE SIZE REDUCTION:1 WORDS
SUBOPT_0x23:
	LDI  R26,LOW(_strsec)
	LDI  R27,HIGH(_strsec)
	JMP  _lcd_puts

;OPTIMIZER ADDED SUBROUTINE, CALLED 5 TIMES, CODE SIZE REDUCTION:9 WORDS
SUBOPT_0x24:
	ST   -Y,R31
	ST   -Y,R30
	LDI  R26,LOW(1)
	JMP  _glcd_putimagef

;OPTIMIZER ADDED SUBROUTINE, CALLED 3 TIMES, CODE SIZE REDUCTION:1 WORDS
SUBOPT_0x25:
	LDI  R26,LOW(1000)
	LDI  R27,HIGH(1000)
	JMP  _delay_ms

;OPTIMIZER ADDED SUBROUTINE, CALLED 2 TIMES, CODE SIZE REDUCTION:2 WORDS
SUBOPT_0x26:
	CLR  R31
	CLR  R22
	CLR  R23
	CALL __PUTPARD1
	RJMP SUBOPT_0x9

;OPTIMIZER ADDED SUBROUTINE, CALLED 2 TIMES, CODE SIZE REDUCTION:1 WORDS
SUBOPT_0x27:
	CALL _glcd_clear
	LDI  R30,LOW(_state)
	LDI  R31,HIGH(_state)
	ST   -Y,R31
	ST   -Y,R30
	RET

;OPTIMIZER ADDED SUBROUTINE, CALLED 3 TIMES, CODE SIZE REDUCTION:3 WORDS
SUBOPT_0x28:
	LD   R30,X+
	LD   R31,X+
	ADIW R30,1
	ST   -X,R31
	ST   -X,R30
	RET

;OPTIMIZER ADDED SUBROUTINE, CALLED 2 TIMES, CODE SIZE REDUCTION:2 WORDS
SUBOPT_0x29:
	ST   -Y,R27
	ST   -Y,R26
	SBIW R28,4
	LDI  R30,LOW(0)
	ST   Y,R30
	STD  Y+1,R30
	RET

;OPTIMIZER ADDED SUBROUTINE, CALLED 4 TIMES, CODE SIZE REDUCTION:33 WORDS
SUBOPT_0x2A:
	__GETD2S 4
	__GETD1N 0x41200000
	CALL __MULF12
	__PUTD1S 4
	RET

;OPTIMIZER ADDED SUBROUTINE, CALLED 4 TIMES, CODE SIZE REDUCTION:21 WORDS
SUBOPT_0x2B:
	__GETD1S 4
	__GETD2S 12
	CALL __CMPF12
	RET

;OPTIMIZER ADDED SUBROUTINE, CALLED 5 TIMES, CODE SIZE REDUCTION:5 WORDS
SUBOPT_0x2C:
	__GETD2S 12
	RET

;OPTIMIZER ADDED SUBROUTINE, CALLED 2 TIMES, CODE SIZE REDUCTION:6 WORDS
SUBOPT_0x2D:
	__GETD1N 0x3DCCCCCD
	CALL __MULF12
	__PUTD1S 12
	SUBI R19,-LOW(1)
	RET

;OPTIMIZER ADDED SUBROUTINE, CALLED 3 TIMES, CODE SIZE REDUCTION:5 WORDS
SUBOPT_0x2E:
	__GETD1N 0x41200000
	CALL __MULF12
	RET

;OPTIMIZER ADDED SUBROUTINE, CALLED 3 TIMES, CODE SIZE REDUCTION:1 WORDS
SUBOPT_0x2F:
	__PUTD1S 12
	RET

;OPTIMIZER ADDED SUBROUTINE, CALLED 3 TIMES, CODE SIZE REDUCTION:5 WORDS
SUBOPT_0x30:
	__GETD2N 0x3F000000
	CALL __ADDF12
	RET

;OPTIMIZER ADDED SUBROUTINE, CALLED 3 TIMES, CODE SIZE REDUCTION:5 WORDS
SUBOPT_0x31:
	__GETD1N 0x3DCCCCCD
	CALL __MULF12
	RET

;OPTIMIZER ADDED SUBROUTINE, CALLED 2 TIMES, CODE SIZE REDUCTION:1 WORDS
SUBOPT_0x32:
	LDD  R26,Y+8
	LDD  R27,Y+8+1
	ADIW R26,1
	STD  Y+8,R26
	STD  Y+8+1,R27
	SBIW R26,1
	RET

;OPTIMIZER ADDED SUBROUTINE, CALLED 3 TIMES, CODE SIZE REDUCTION:1 WORDS
SUBOPT_0x33:
	MOV  R30,R16
	SUBI R30,-LOW(48)
	ST   X,R30
	MOV  R30,R16
	RET

;OPTIMIZER ADDED SUBROUTINE, CALLED 3 TIMES, CODE SIZE REDUCTION:1 WORDS
SUBOPT_0x34:
	CALL __SWAPD12
	CALL __SUBF12
	RET

;OPTIMIZER ADDED SUBROUTINE, CALLED 4 TIMES, CODE SIZE REDUCTION:6 WORDS
SUBOPT_0x35:
	LDD  R30,Y+8
	LDD  R31,Y+8+1
	ADIW R30,1
	STD  Y+8,R30
	STD  Y+8+1,R31
	RET

;OPTIMIZER ADDED SUBROUTINE, CALLED 5 TIMES, CODE SIZE REDUCTION:13 WORDS
SUBOPT_0x36:
	ST   -Y,R18
	LDD  R26,Y+7
	LDD  R27,Y+7+1
	LDD  R30,Y+9
	LDD  R31,Y+9+1
	ICALL
	RET

;OPTIMIZER ADDED SUBROUTINE, CALLED 8 TIMES, CODE SIZE REDUCTION:25 WORDS
SUBOPT_0x37:
	__GETW1SX 90
	RET

;OPTIMIZER ADDED SUBROUTINE, CALLED 7 TIMES, CODE SIZE REDUCTION:21 WORDS
SUBOPT_0x38:
	SBIW R30,4
	__PUTW1SX 90
	RET

;OPTIMIZER ADDED SUBROUTINE, CALLED 4 TIMES, CODE SIZE REDUCTION:6 WORDS
SUBOPT_0x39:
	LDD  R26,Y+7
	LDD  R27,Y+7+1
	LDD  R30,Y+9
	LDD  R31,Y+9+1
	ICALL
	RET

;OPTIMIZER ADDED SUBROUTINE, CALLED 6 TIMES, CODE SIZE REDUCTION:17 WORDS
SUBOPT_0x3A:
	__GETW2SX 90
	RET

;OPTIMIZER ADDED SUBROUTINE, CALLED 4 TIMES, CODE SIZE REDUCTION:3 WORDS
SUBOPT_0x3B:
	__PUTD1S 10
	RET

;OPTIMIZER ADDED SUBROUTINE, CALLED 6 TIMES, CODE SIZE REDUCTION:7 WORDS
SUBOPT_0x3C:
	RCALL SUBOPT_0x37
	RJMP SUBOPT_0x38

;OPTIMIZER ADDED SUBROUTINE, CALLED 4 TIMES, CODE SIZE REDUCTION:3 WORDS
SUBOPT_0x3D:
	__GETD1S 10
	RET

;OPTIMIZER ADDED SUBROUTINE, CALLED 2 TIMES, CODE SIZE REDUCTION:2 WORDS
SUBOPT_0x3E:
	STD  Y+14,R30
	STD  Y+14+1,R31
	LDD  R26,Y+14
	LDD  R27,Y+14+1
	CALL _strlen
	MOV  R17,R30
	RET

;OPTIMIZER ADDED SUBROUTINE, CALLED 4 TIMES, CODE SIZE REDUCTION:6 WORDS
SUBOPT_0x3F:
	RCALL SUBOPT_0x3A
	ADIW R26,4
	CALL __GETW1P
	RET

;OPTIMIZER ADDED SUBROUTINE, CALLED 5 TIMES, CODE SIZE REDUCTION:5 WORDS
SUBOPT_0x40:
	__PUTD1S 16
	RET

;OPTIMIZER ADDED SUBROUTINE, CALLED 2 TIMES, CODE SIZE REDUCTION:12 WORDS
SUBOPT_0x41:
	ANDI R16,LOW(251)
	LDD  R30,Y+21
	ST   -Y,R30
	__GETW2SX 87
	__GETW1SX 89
	ICALL
	CPI  R21,0
	RET

;OPTIMIZER ADDED SUBROUTINE, CALLED 2 TIMES, CODE SIZE REDUCTION:3 WORDS
SUBOPT_0x42:
	__GETD1S 16
	__GETD2S 10
	RET

;OPTIMIZER ADDED SUBROUTINE, CALLED 2 TIMES, CODE SIZE REDUCTION:1 WORDS
SUBOPT_0x43:
	MOVW R26,R28
	ADIW R26,12
	CALL __ADDW2R15
	CALL __GETW1P
	RET

;OPTIMIZER ADDED SUBROUTINE, CALLED 5 TIMES, CODE SIZE REDUCTION:9 WORDS
SUBOPT_0x44:
	CALL _i2c_start
	LDI  R26,LOW(208)
	JMP  _i2c_write

;OPTIMIZER ADDED SUBROUTINE, CALLED 5 TIMES, CODE SIZE REDUCTION:5 WORDS
SUBOPT_0x45:
	CALL _i2c_write
	JMP  _i2c_stop

;OPTIMIZER ADDED SUBROUTINE, CALLED 2 TIMES, CODE SIZE REDUCTION:3 WORDS
SUBOPT_0x46:
	CALL _i2c_start
	LDI  R26,LOW(209)
	CALL _i2c_write
	LDI  R26,LOW(1)
	JMP  _i2c_read

;OPTIMIZER ADDED SUBROUTINE, CALLED 2 TIMES, CODE SIZE REDUCTION:1 WORDS
SUBOPT_0x47:
	MOV  R26,R30
	CALL _bcd2bin
	LD   R26,Y
	LDD  R27,Y+1
	ST   X,R30
	RET

;OPTIMIZER ADDED SUBROUTINE, CALLED 3 TIMES, CODE SIZE REDUCTION:5 WORDS
SUBOPT_0x48:
	LDI  R26,LOW(1)
	CALL _i2c_read
	MOV  R26,R30
	JMP  _bcd2bin

;OPTIMIZER ADDED SUBROUTINE, CALLED 2 TIMES, CODE SIZE REDUCTION:1 WORDS
SUBOPT_0x49:
	LDD  R26,Y+2
	LDD  R27,Y+2+1
	ST   X,R30
	LDI  R26,LOW(0)
	JMP  _i2c_read

;OPTIMIZER ADDED SUBROUTINE, CALLED 2 TIMES, CODE SIZE REDUCTION:1 WORDS
SUBOPT_0x4A:
	CALL _i2c_write
	LD   R26,Y
	CALL _bin2bcd
	MOV  R26,R30
	RET

;OPTIMIZER ADDED SUBROUTINE, CALLED 2 TIMES, CODE SIZE REDUCTION:1 WORDS
SUBOPT_0x4B:
	CALL _i2c_write
	LDD  R26,Y+1
	CALL _bin2bcd
	MOV  R26,R30
	RET

;OPTIMIZER ADDED SUBROUTINE, CALLED 2 TIMES, CODE SIZE REDUCTION:1 WORDS
SUBOPT_0x4C:
	CALL _i2c_write
	LDD  R26,Y+2
	CALL _bin2bcd
	MOV  R26,R30
	RET

;OPTIMIZER ADDED SUBROUTINE, CALLED 3 TIMES, CODE SIZE REDUCTION:1 WORDS
SUBOPT_0x4D:
	__GETD1N 0xC61C3C00
	RET

;OPTIMIZER ADDED SUBROUTINE, CALLED 3 TIMES, CODE SIZE REDUCTION:1 WORDS
SUBOPT_0x4E:
	CALL __CWD1
	CALL __CDF1
	RET

;OPTIMIZER ADDED SUBROUTINE, CALLED 3 TIMES, CODE SIZE REDUCTION:3 WORDS
SUBOPT_0x4F:
	CALL _st7920_delay_G104
	SBI  0x1B,5
	JMP  _st7920_delay_G104

;OPTIMIZER ADDED SUBROUTINE, CALLED 5 TIMES, CODE SIZE REDUCTION:13 WORDS
SUBOPT_0x50:
	LDS  R30,_st7920_graphics_on_G104
	ORI  R30,0x20
	MOV  R26,R30
	JMP  _st7920_wrcmd

;OPTIMIZER ADDED SUBROUTINE, CALLED 4 TIMES, CODE SIZE REDUCTION:9 WORDS
SUBOPT_0x51:
	LDS  R30,_st7920_graphics_on_G104
	ORI  R30,LOW(0x24)
	MOV  R26,R30
	JMP  _st7920_wrcmd

;OPTIMIZER ADDED SUBROUTINE, CALLED 4 TIMES, CODE SIZE REDUCTION:6 WORDS
SUBOPT_0x52:
	CALL _st7920_rdbyte_G104
	MOV  R26,R30
	JMP  _glcd_revbits

;OPTIMIZER ADDED SUBROUTINE, CALLED 3 TIMES, CODE SIZE REDUCTION:1 WORDS
SUBOPT_0x53:
	ADD  R30,R26
	ADC  R31,R27
	STD  Y+6,R30
	STD  Y+6+1,R31
	RET

;OPTIMIZER ADDED SUBROUTINE, CALLED 2 TIMES, CODE SIZE REDUCTION:8 WORDS
SUBOPT_0x54:
	LDD  R30,Y+16
	ST   -Y,R30
	LDD  R30,Y+7
	LDD  R31,Y+7+1
	ADIW R30,1
	STD  Y+7,R30
	STD  Y+7+1,R31
	SBIW R30,1
	ST   -Y,R31
	ST   -Y,R30
	LDI  R26,LOW(0)
	JMP  _glcd_writemem

;OPTIMIZER ADDED SUBROUTINE, CALLED 2 TIMES, CODE SIZE REDUCTION:3 WORDS
SUBOPT_0x55:
	LDD  R30,Y+16
	ST   -Y,R30
	LDD  R26,Y+7
	LDD  R27,Y+7+1
	CLR  R24
	CLR  R25
	JMP  _glcd_readmem

;OPTIMIZER ADDED SUBROUTINE, CALLED 4 TIMES, CODE SIZE REDUCTION:3 WORDS
SUBOPT_0x56:
	LDD  R30,Y+16
	ST   -Y,R30
	LDD  R30,Y+7
	LDD  R31,Y+7+1
	RET

;OPTIMIZER ADDED SUBROUTINE, CALLED 2 TIMES, CODE SIZE REDUCTION:1 WORDS
SUBOPT_0x57:
	ST   -Y,R30
	LDD  R30,Y+14
	ST   -Y,R30
	LDD  R26,Y+17
	JMP  _st7920_wrmasked_G104

;OPTIMIZER ADDED SUBROUTINE, CALLED 2 TIMES, CODE SIZE REDUCTION:1 WORDS
SUBOPT_0x58:
	ST   -Y,R27
	ST   -Y,R26
	LD   R26,Y
	LDD  R27,Y+1
	CALL __CPW02
	RET

;OPTIMIZER ADDED SUBROUTINE, CALLED 3 TIMES, CODE SIZE REDUCTION:1 WORDS
SUBOPT_0x59:
	STD  Y+5,R30
	STD  Y+5+1,R31
	RET

;OPTIMIZER ADDED SUBROUTINE, CALLED 3 TIMES, CODE SIZE REDUCTION:1 WORDS
SUBOPT_0x5A:
	LDD  R30,Y+6
	LDD  R31,Y+6+1
	ST   -Y,R31
	ST   -Y,R30
	RET

;OPTIMIZER ADDED SUBROUTINE, CALLED 5 TIMES, CODE SIZE REDUCTION:5 WORDS
SUBOPT_0x5B:
	__PUTD1S 9
	RET

;OPTIMIZER ADDED SUBROUTINE, CALLED 5 TIMES, CODE SIZE REDUCTION:13 WORDS
SUBOPT_0x5C:
	LDD  R26,Y+6
	LDD  R27,Y+6+1
	ADIW R26,1
	STD  Y+6,R26
	STD  Y+6+1,R27
	SBIW R26,1
	RET

;OPTIMIZER ADDED SUBROUTINE, CALLED 4 TIMES, CODE SIZE REDUCTION:3 WORDS
SUBOPT_0x5D:
	__GETD2S 2
	RET

;OPTIMIZER ADDED SUBROUTINE, CALLED 4 TIMES, CODE SIZE REDUCTION:3 WORDS
SUBOPT_0x5E:
	__PUTD1S 2
	RET

;OPTIMIZER ADDED SUBROUTINE, CALLED 3 TIMES, CODE SIZE REDUCTION:9 WORDS
SUBOPT_0x5F:
	__GETD1S 2
	__GETD2S 9
	RET

;OPTIMIZER ADDED SUBROUTINE, CALLED 3 TIMES, CODE SIZE REDUCTION:1 WORDS
SUBOPT_0x60:
	__GETD2S 9
	RET


	.CSEG
	.equ __sda_bit=1
	.equ __scl_bit=0
	.equ __i2c_port=0x15 ;PORTC
	.equ __i2c_dir=__i2c_port-1
	.equ __i2c_pin=__i2c_port-2

_i2c_init:
	cbi  __i2c_port,__scl_bit
	cbi  __i2c_port,__sda_bit
	sbi  __i2c_dir,__scl_bit
	cbi  __i2c_dir,__sda_bit
	rjmp __i2c_delay2
_i2c_start:
	cbi  __i2c_dir,__sda_bit
	cbi  __i2c_dir,__scl_bit
	clr  r30
	nop
	sbis __i2c_pin,__sda_bit
	ret
	sbis __i2c_pin,__scl_bit
	ret
	rcall __i2c_delay1
	sbi  __i2c_dir,__sda_bit
	rcall __i2c_delay1
	sbi  __i2c_dir,__scl_bit
	ldi  r30,1
__i2c_delay1:
	ldi  r22,18
	rjmp __i2c_delay2l
_i2c_stop:
	sbi  __i2c_dir,__sda_bit
	sbi  __i2c_dir,__scl_bit
	rcall __i2c_delay2
	cbi  __i2c_dir,__scl_bit
	rcall __i2c_delay1
	cbi  __i2c_dir,__sda_bit
__i2c_delay2:
	ldi  r22,37
__i2c_delay2l:
	dec  r22
	brne __i2c_delay2l
	ret
_i2c_read:
	ldi  r23,8
__i2c_read0:
	cbi  __i2c_dir,__scl_bit
	rcall __i2c_delay1
__i2c_read3:
	sbis __i2c_pin,__scl_bit
	rjmp __i2c_read3
	rcall __i2c_delay1
	clc
	sbic __i2c_pin,__sda_bit
	sec
	sbi  __i2c_dir,__scl_bit
	rcall __i2c_delay2
	rol  r30
	dec  r23
	brne __i2c_read0
	mov  r23,r26
	tst  r23
	brne __i2c_read1
	cbi  __i2c_dir,__sda_bit
	rjmp __i2c_read2
__i2c_read1:
	sbi  __i2c_dir,__sda_bit
__i2c_read2:
	rcall __i2c_delay1
	cbi  __i2c_dir,__scl_bit
	rcall __i2c_delay2
	sbi  __i2c_dir,__scl_bit
	rcall __i2c_delay1
	cbi  __i2c_dir,__sda_bit
	rjmp __i2c_delay1

_i2c_write:
	ldi  r23,8
__i2c_write0:
	lsl  r26
	brcc __i2c_write1
	cbi  __i2c_dir,__sda_bit
	rjmp __i2c_write2
__i2c_write1:
	sbi  __i2c_dir,__sda_bit
__i2c_write2:
	rcall __i2c_delay2
	cbi  __i2c_dir,__scl_bit
	rcall __i2c_delay1
__i2c_write3:
	sbis __i2c_pin,__scl_bit
	rjmp __i2c_write3
	rcall __i2c_delay1
	sbi  __i2c_dir,__scl_bit
	dec  r23
	brne __i2c_write0
	cbi  __i2c_dir,__sda_bit
	rcall __i2c_delay1
	cbi  __i2c_dir,__scl_bit
	rcall __i2c_delay2
	ldi  r30,1
	sbic __i2c_pin,__sda_bit
	clr  r30
	sbi  __i2c_dir,__scl_bit
	rjmp __i2c_delay1

_delay_ms:
	adiw r26,0
	breq __delay_ms1
__delay_ms0:
	__DELAY_USW 0xACD
	wdr
	sbiw r26,1
	brne __delay_ms0
__delay_ms1:
	ret

	.equ __w1_port=0x12
	.equ __w1_bit=0x07

_w1_init:
	clr  r30
	cbi  __w1_port,__w1_bit
	sbi  __w1_port-1,__w1_bit
	__DELAY_USW 0x52F
	cbi  __w1_port-1,__w1_bit
	__DELAY_USB 0x34
	sbis __w1_port-2,__w1_bit
	ret
	__DELAY_USW 0xD2
	sbis __w1_port-2,__w1_bit
	ldi  r30,1
	__DELAY_USW 0x436
	ret

__w1_read_bit:
	sbi  __w1_port-1,__w1_bit
	__DELAY_USB 0x7
	cbi  __w1_port-1,__w1_bit
	__DELAY_USB 0x29
	clc
	sbic __w1_port-2,__w1_bit
	sec
	ror  r30
	__DELAY_USW 0xDD
	ret

__w1_write_bit:
	clt
	sbi  __w1_port-1,__w1_bit
	__DELAY_USB 0x7
	sbrc r23,0
	cbi  __w1_port-1,__w1_bit
	__DELAY_USB 0x30
	sbic __w1_port-2,__w1_bit
	rjmp __w1_write_bit0
	sbrs r23,0
	rjmp __w1_write_bit1
	ret
__w1_write_bit0:
	sbrs r23,0
	ret
__w1_write_bit1:
	__DELAY_USW 0xCF
	cbi  __w1_port-1,__w1_bit
	__DELAY_USB 0x12
	set
	ret

_w1_read:
	ldi  r22,8
	__w1_read0:
	rcall __w1_read_bit
	dec  r22
	brne __w1_read0
	ret

_w1_write:
	mov  r23,r26
	ldi  r22,8
	clr  r30
__w1_write0:
	rcall __w1_write_bit
	brtc __w1_write1
	ror  r23
	dec  r22
	brne __w1_write0
	inc  r30
__w1_write1:
	ret

_w1_search:
	push r20
	push r21
	clr  r1
	clr  r20
__w1_search0:
	mov  r0,r1
	clr  r1
	rcall _w1_init
	tst  r30
	breq __w1_search7
	push r26
	ld   r26,y
	rcall _w1_write
	pop  r26
	ldi  r21,1
__w1_search1:
	cp   r21,r0
	brsh __w1_search6
	rcall __w1_read_bit
	sbrc r30,7
	rjmp __w1_search2
	rcall __w1_read_bit
	sbrc r30,7
	rjmp __w1_search3
	rcall __sel_bit
	and  r24,r25
	brne __w1_search3
	mov  r1,r21
	rjmp __w1_search3
__w1_search2:
	rcall __w1_read_bit
__w1_search3:
	rcall __sel_bit
	and  r24,r25
	ldi  r23,0
	breq __w1_search5
__w1_search4:
	ldi  r23,1
__w1_search5:
	rcall __w1_write_bit
	rjmp __w1_search13
__w1_search6:
	rcall __w1_read_bit
	sbrs r30,7
	rjmp __w1_search9
	rcall __w1_read_bit
	sbrs r30,7
	rjmp __w1_search8
__w1_search7:
	mov  r30,r20
	pop  r21
	pop  r20
	adiw r28,1
	ret
__w1_search8:
	set
	rcall __set_bit
	rjmp __w1_search4
__w1_search9:
	rcall __w1_read_bit
	sbrs r30,7
	rjmp __w1_search10
	rjmp __w1_search11
__w1_search10:
	cp   r21,r0
	breq __w1_search12
	mov  r1,r21
__w1_search11:
	clt
	rcall __set_bit
	clr  r23
	rcall __w1_write_bit
	rjmp __w1_search13
__w1_search12:
	set
	rcall __set_bit
	ldi  r23,1
	rcall __w1_write_bit
__w1_search13:
	inc  r21
	cpi  r21,65
	brlt __w1_search1
	rcall __w1_read_bit
	rol  r30
	rol  r30
	andi r30,1
	adiw r26,8
	st   x,r30
	sbiw r26,8
	inc  r20
	tst  r1
	breq __w1_search7
	ldi  r21,9
__w1_search14:
	ld   r30,x
	adiw r26,9
	st   x,r30
	sbiw r26,8
	dec  r21
	brne __w1_search14
	rjmp __w1_search0

__sel_bit:
	mov  r30,r21
	dec  r30
	mov  r22,r30
	lsr  r30
	lsr  r30
	lsr  r30
	clr  r31
	add  r30,r26
	adc  r31,r27
	ld   r24,z
	ldi  r25,1
	andi r22,7
__sel_bit0:
	breq __sel_bit1
	lsl  r25
	dec  r22
	rjmp __sel_bit0
__sel_bit1:
	ret

__set_bit:
	rcall __sel_bit
	brts __set_bit2
	com  r25
	and  r24,r25
	rjmp __set_bit3
__set_bit2:
	or   r24,r25
__set_bit3:
	st   z,r24
	ret

_w1_dow_crc8:
	clr  r30
	tst  r26
	breq __w1_dow_crc83
	mov  r24,r26
	ldi  r22,0x18
	ld   r26,y
	ldd  r27,y+1
__w1_dow_crc80:
	ldi  r25,8
	ld   r31,x+
__w1_dow_crc81:
	mov  r23,r31
	eor  r23,r30
	ror  r23
	brcc __w1_dow_crc82
	eor  r30,r22
__w1_dow_crc82:
	ror  r30
	lsr  r31
	dec  r25
	brne __w1_dow_crc81
	dec  r24
	brne __w1_dow_crc80
__w1_dow_crc83:
	adiw r28,2
	ret

__ANEGF1:
	SBIW R30,0
	SBCI R22,0
	SBCI R23,0
	BREQ __ANEGF10
	SUBI R23,0x80
__ANEGF10:
	RET

__ROUND_REPACK:
	TST  R21
	BRPL __REPACK
	CPI  R21,0x80
	BRNE __ROUND_REPACK0
	SBRS R30,0
	RJMP __REPACK
__ROUND_REPACK0:
	ADIW R30,1
	ADC  R22,R25
	ADC  R23,R25
	BRVS __REPACK1

__REPACK:
	LDI  R21,0x80
	EOR  R21,R23
	BRNE __REPACK0
	PUSH R21
	RJMP __ZERORES
__REPACK0:
	CPI  R21,0xFF
	BREQ __REPACK1
	LSL  R22
	LSL  R0
	ROR  R21
	ROR  R22
	MOV  R23,R21
	RET
__REPACK1:
	PUSH R21
	TST  R0
	BRMI __REPACK2
	RJMP __MAXRES
__REPACK2:
	RJMP __MINRES

__UNPACK:
	LDI  R21,0x80
	MOV  R1,R25
	AND  R1,R21
	LSL  R24
	ROL  R25
	EOR  R25,R21
	LSL  R21
	ROR  R24

__UNPACK1:
	LDI  R21,0x80
	MOV  R0,R23
	AND  R0,R21
	LSL  R22
	ROL  R23
	EOR  R23,R21
	LSL  R21
	ROR  R22
	RET

__CFD1U:
	SET
	RJMP __CFD1U0
__CFD1:
	CLT
__CFD1U0:
	PUSH R21
	RCALL __UNPACK1
	CPI  R23,0x80
	BRLO __CFD10
	CPI  R23,0xFF
	BRCC __CFD10
	RJMP __ZERORES
__CFD10:
	LDI  R21,22
	SUB  R21,R23
	BRPL __CFD11
	NEG  R21
	CPI  R21,8
	BRTC __CFD19
	CPI  R21,9
__CFD19:
	BRLO __CFD17
	SER  R30
	SER  R31
	SER  R22
	LDI  R23,0x7F
	BLD  R23,7
	RJMP __CFD15
__CFD17:
	CLR  R23
	TST  R21
	BREQ __CFD15
__CFD18:
	LSL  R30
	ROL  R31
	ROL  R22
	ROL  R23
	DEC  R21
	BRNE __CFD18
	RJMP __CFD15
__CFD11:
	CLR  R23
__CFD12:
	CPI  R21,8
	BRLO __CFD13
	MOV  R30,R31
	MOV  R31,R22
	MOV  R22,R23
	SUBI R21,8
	RJMP __CFD12
__CFD13:
	TST  R21
	BREQ __CFD15
__CFD14:
	LSR  R23
	ROR  R22
	ROR  R31
	ROR  R30
	DEC  R21
	BRNE __CFD14
__CFD15:
	TST  R0
	BRPL __CFD16
	RCALL __ANEGD1
__CFD16:
	POP  R21
	RET

__CDF1U:
	SET
	RJMP __CDF1U0
__CDF1:
	CLT
__CDF1U0:
	SBIW R30,0
	SBCI R22,0
	SBCI R23,0
	BREQ __CDF10
	CLR  R0
	BRTS __CDF11
	TST  R23
	BRPL __CDF11
	COM  R0
	RCALL __ANEGD1
__CDF11:
	MOV  R1,R23
	LDI  R23,30
	TST  R1
__CDF12:
	BRMI __CDF13
	DEC  R23
	LSL  R30
	ROL  R31
	ROL  R22
	ROL  R1
	RJMP __CDF12
__CDF13:
	MOV  R30,R31
	MOV  R31,R22
	MOV  R22,R1
	PUSH R21
	RCALL __REPACK
	POP  R21
__CDF10:
	RET

__SWAPACC:
	PUSH R20
	MOVW R20,R30
	MOVW R30,R26
	MOVW R26,R20
	MOVW R20,R22
	MOVW R22,R24
	MOVW R24,R20
	MOV  R20,R0
	MOV  R0,R1
	MOV  R1,R20
	POP  R20
	RET

__UADD12:
	ADD  R30,R26
	ADC  R31,R27
	ADC  R22,R24
	RET

__NEGMAN1:
	COM  R30
	COM  R31
	COM  R22
	SUBI R30,-1
	SBCI R31,-1
	SBCI R22,-1
	RET

__SUBF12:
	PUSH R21
	RCALL __UNPACK
	CPI  R25,0x80
	BREQ __ADDF129
	LDI  R21,0x80
	EOR  R1,R21

	RJMP __ADDF120

__ADDF12:
	PUSH R21
	RCALL __UNPACK
	CPI  R25,0x80
	BREQ __ADDF129

__ADDF120:
	CPI  R23,0x80
	BREQ __ADDF128
__ADDF121:
	MOV  R21,R23
	SUB  R21,R25
	BRVS __ADDF1211
	BRPL __ADDF122
	RCALL __SWAPACC
	RJMP __ADDF121
__ADDF122:
	CPI  R21,24
	BRLO __ADDF123
	CLR  R26
	CLR  R27
	CLR  R24
__ADDF123:
	CPI  R21,8
	BRLO __ADDF124
	MOV  R26,R27
	MOV  R27,R24
	CLR  R24
	SUBI R21,8
	RJMP __ADDF123
__ADDF124:
	TST  R21
	BREQ __ADDF126
__ADDF125:
	LSR  R24
	ROR  R27
	ROR  R26
	DEC  R21
	BRNE __ADDF125
__ADDF126:
	MOV  R21,R0
	EOR  R21,R1
	BRMI __ADDF127
	RCALL __UADD12
	BRCC __ADDF129
	ROR  R22
	ROR  R31
	ROR  R30
	INC  R23
	BRVC __ADDF129
	RJMP __MAXRES
__ADDF128:
	RCALL __SWAPACC
__ADDF129:
	RCALL __REPACK
	POP  R21
	RET
__ADDF1211:
	BRCC __ADDF128
	RJMP __ADDF129
__ADDF127:
	SUB  R30,R26
	SBC  R31,R27
	SBC  R22,R24
	BREQ __ZERORES
	BRCC __ADDF1210
	COM  R0
	RCALL __NEGMAN1
__ADDF1210:
	TST  R22
	BRMI __ADDF129
	LSL  R30
	ROL  R31
	ROL  R22
	DEC  R23
	BRVC __ADDF1210

__ZERORES:
	CLR  R30
	CLR  R31
	CLR  R22
	CLR  R23
	POP  R21
	RET

__MINRES:
	SER  R30
	SER  R31
	LDI  R22,0x7F
	SER  R23
	POP  R21
	RET

__MAXRES:
	SER  R30
	SER  R31
	LDI  R22,0x7F
	LDI  R23,0x7F
	POP  R21
	RET

__MULF12:
	PUSH R21
	RCALL __UNPACK
	CPI  R23,0x80
	BREQ __ZERORES
	CPI  R25,0x80
	BREQ __ZERORES
	EOR  R0,R1
	SEC
	ADC  R23,R25
	BRVC __MULF124
	BRLT __ZERORES
__MULF125:
	TST  R0
	BRMI __MINRES
	RJMP __MAXRES
__MULF124:
	PUSH R0
	PUSH R17
	PUSH R18
	PUSH R19
	PUSH R20
	CLR  R17
	CLR  R18
	CLR  R25
	MUL  R22,R24
	MOVW R20,R0
	MUL  R24,R31
	MOV  R19,R0
	ADD  R20,R1
	ADC  R21,R25
	MUL  R22,R27
	ADD  R19,R0
	ADC  R20,R1
	ADC  R21,R25
	MUL  R24,R30
	RCALL __MULF126
	MUL  R27,R31
	RCALL __MULF126
	MUL  R22,R26
	RCALL __MULF126
	MUL  R27,R30
	RCALL __MULF127
	MUL  R26,R31
	RCALL __MULF127
	MUL  R26,R30
	ADD  R17,R1
	ADC  R18,R25
	ADC  R19,R25
	ADC  R20,R25
	ADC  R21,R25
	MOV  R30,R19
	MOV  R31,R20
	MOV  R22,R21
	MOV  R21,R18
	POP  R20
	POP  R19
	POP  R18
	POP  R17
	POP  R0
	TST  R22
	BRMI __MULF122
	LSL  R21
	ROL  R30
	ROL  R31
	ROL  R22
	RJMP __MULF123
__MULF122:
	INC  R23
	BRVS __MULF125
__MULF123:
	RCALL __ROUND_REPACK
	POP  R21
	RET

__MULF127:
	ADD  R17,R0
	ADC  R18,R1
	ADC  R19,R25
	RJMP __MULF128
__MULF126:
	ADD  R18,R0
	ADC  R19,R1
__MULF128:
	ADC  R20,R25
	ADC  R21,R25
	RET

__DIVF21:
	PUSH R21
	RCALL __UNPACK
	CPI  R23,0x80
	BRNE __DIVF210
	TST  R1
__DIVF211:
	BRPL __DIVF219
	RJMP __MINRES
__DIVF219:
	RJMP __MAXRES
__DIVF210:
	CPI  R25,0x80
	BRNE __DIVF218
__DIVF217:
	RJMP __ZERORES
__DIVF218:
	EOR  R0,R1
	SEC
	SBC  R25,R23
	BRVC __DIVF216
	BRLT __DIVF217
	TST  R0
	RJMP __DIVF211
__DIVF216:
	MOV  R23,R25
	PUSH R17
	PUSH R18
	PUSH R19
	PUSH R20
	CLR  R1
	CLR  R17
	CLR  R18
	CLR  R19
	CLR  R20
	CLR  R21
	LDI  R25,32
__DIVF212:
	CP   R26,R30
	CPC  R27,R31
	CPC  R24,R22
	CPC  R20,R17
	BRLO __DIVF213
	SUB  R26,R30
	SBC  R27,R31
	SBC  R24,R22
	SBC  R20,R17
	SEC
	RJMP __DIVF214
__DIVF213:
	CLC
__DIVF214:
	ROL  R21
	ROL  R18
	ROL  R19
	ROL  R1
	ROL  R26
	ROL  R27
	ROL  R24
	ROL  R20
	DEC  R25
	BRNE __DIVF212
	MOVW R30,R18
	MOV  R22,R1
	POP  R20
	POP  R19
	POP  R18
	POP  R17
	TST  R22
	BRMI __DIVF215
	LSL  R21
	ROL  R30
	ROL  R31
	ROL  R22
	DEC  R23
	BRVS __DIVF217
__DIVF215:
	RCALL __ROUND_REPACK
	POP  R21
	RET

__CMPF12:
	TST  R25
	BRMI __CMPF120
	TST  R23
	BRMI __CMPF121
	CP   R25,R23
	BRLO __CMPF122
	BRNE __CMPF121
	CP   R26,R30
	CPC  R27,R31
	CPC  R24,R22
	BRLO __CMPF122
	BREQ __CMPF123
__CMPF121:
	CLZ
	CLC
	RET
__CMPF122:
	CLZ
	SEC
	RET
__CMPF123:
	SEZ
	CLC
	RET
__CMPF120:
	TST  R23
	BRPL __CMPF122
	CP   R25,R23
	BRLO __CMPF121
	BRNE __CMPF122
	CP   R30,R26
	CPC  R31,R27
	CPC  R22,R24
	BRLO __CMPF122
	BREQ __CMPF123
	RJMP __CMPF121

__ADDW2R15:
	CLR  R0
	ADD  R26,R15
	ADC  R27,R0
	RET

__ANEGW1:
	NEG  R31
	NEG  R30
	SBCI R31,0
	RET

__ANEGD1:
	COM  R31
	COM  R22
	COM  R23
	NEG  R30
	SBCI R31,-1
	SBCI R22,-1
	SBCI R23,-1
	RET

__LSLB12:
	TST  R30
	MOV  R0,R30
	MOV  R30,R26
	BREQ __LSLB12R
__LSLB12L:
	LSL  R30
	DEC  R0
	BRNE __LSLB12L
__LSLB12R:
	RET

__LSRB12:
	TST  R30
	MOV  R0,R30
	MOV  R30,R26
	BREQ __LSRB12R
__LSRB12L:
	LSR  R30
	DEC  R0
	BRNE __LSRB12L
__LSRB12R:
	RET

__LSLW2:
	LSL  R30
	ROL  R31
	LSL  R30
	ROL  R31
	RET

__CBD1:
	MOV  R31,R30
	ADD  R31,R31
	SBC  R31,R31
	MOV  R22,R31
	MOV  R23,R31
	RET

__CWD1:
	MOV  R22,R31
	ADD  R22,R22
	SBC  R22,R22
	MOV  R23,R22
	RET

__EQB12:
	CP   R30,R26
	LDI  R30,1
	BREQ __EQB12T
	CLR  R30
__EQB12T:
	RET

__NEB12:
	CP   R30,R26
	LDI  R30,1
	BRNE __NEB12T
	CLR  R30
__NEB12T:
	RET

__LTB12U:
	CP   R26,R30
	LDI  R30,1
	BRLO __LTB12U1
	CLR  R30
__LTB12U1:
	RET

__GTB12U:
	CP   R30,R26
	LDI  R30,1
	BRLO __GTB12U1
	CLR  R30
__GTB12U1:
	RET

__LNEGB1:
	TST  R30
	LDI  R30,1
	BREQ __LNEGB1F
	CLR  R30
__LNEGB1F:
	RET

__MULW12U:
	MUL  R31,R26
	MOV  R31,R0
	MUL  R30,R27
	ADD  R31,R0
	MUL  R30,R26
	MOV  R30,R0
	ADD  R31,R1
	RET

__MULD12U:
	MUL  R23,R26
	MOV  R23,R0
	MUL  R22,R27
	ADD  R23,R0
	MUL  R31,R24
	ADD  R23,R0
	MUL  R30,R25
	ADD  R23,R0
	MUL  R22,R26
	MOV  R22,R0
	ADD  R23,R1
	MUL  R31,R27
	ADD  R22,R0
	ADC  R23,R1
	MUL  R30,R24
	ADD  R22,R0
	ADC  R23,R1
	CLR  R24
	MUL  R31,R26
	MOV  R31,R0
	ADD  R22,R1
	ADC  R23,R24
	MUL  R30,R27
	ADD  R31,R0
	ADC  R22,R1
	ADC  R23,R24
	MUL  R30,R26
	MOV  R30,R0
	ADD  R31,R1
	ADC  R22,R24
	ADC  R23,R24
	RET

__DIVB21U:
	CLR  R0
	LDI  R25,8
__DIVB21U1:
	LSL  R26
	ROL  R0
	SUB  R0,R30
	BRCC __DIVB21U2
	ADD  R0,R30
	RJMP __DIVB21U3
__DIVB21U2:
	SBR  R26,1
__DIVB21U3:
	DEC  R25
	BRNE __DIVB21U1
	MOV  R30,R26
	MOV  R26,R0
	RET

__DIVB21:
	RCALL __CHKSIGNB
	RCALL __DIVB21U
	BRTC __DIVB211
	NEG  R30
__DIVB211:
	RET

__DIVW21U:
	CLR  R0
	CLR  R1
	LDI  R25,16
__DIVW21U1:
	LSL  R26
	ROL  R27
	ROL  R0
	ROL  R1
	SUB  R0,R30
	SBC  R1,R31
	BRCC __DIVW21U2
	ADD  R0,R30
	ADC  R1,R31
	RJMP __DIVW21U3
__DIVW21U2:
	SBR  R26,1
__DIVW21U3:
	DEC  R25
	BRNE __DIVW21U1
	MOVW R30,R26
	MOVW R26,R0
	RET

__DIVD21U:
	PUSH R19
	PUSH R20
	PUSH R21
	CLR  R0
	CLR  R1
	CLR  R20
	CLR  R21
	LDI  R19,32
__DIVD21U1:
	LSL  R26
	ROL  R27
	ROL  R24
	ROL  R25
	ROL  R0
	ROL  R1
	ROL  R20
	ROL  R21
	SUB  R0,R30
	SBC  R1,R31
	SBC  R20,R22
	SBC  R21,R23
	BRCC __DIVD21U2
	ADD  R0,R30
	ADC  R1,R31
	ADC  R20,R22
	ADC  R21,R23
	RJMP __DIVD21U3
__DIVD21U2:
	SBR  R26,1
__DIVD21U3:
	DEC  R19
	BRNE __DIVD21U1
	MOVW R30,R26
	MOVW R22,R24
	MOVW R26,R0
	MOVW R24,R20
	POP  R21
	POP  R20
	POP  R19
	RET

__MODB21:
	CLT
	SBRS R26,7
	RJMP __MODB211
	NEG  R26
	SET
__MODB211:
	SBRC R30,7
	NEG  R30
	RCALL __DIVB21U
	MOV  R30,R26
	BRTC __MODB212
	NEG  R30
__MODB212:
	RET

__MODW21:
	CLT
	SBRS R27,7
	RJMP __MODW211
	COM  R26
	COM  R27
	ADIW R26,1
	SET
__MODW211:
	SBRC R31,7
	RCALL __ANEGW1
	RCALL __DIVW21U
	MOVW R30,R26
	BRTC __MODW212
	RCALL __ANEGW1
__MODW212:
	RET

__MODD21U:
	RCALL __DIVD21U
	MOVW R30,R26
	MOVW R22,R24
	RET

__CHKSIGNB:
	CLT
	SBRS R30,7
	RJMP __CHKSB1
	NEG  R30
	SET
__CHKSB1:
	SBRS R26,7
	RJMP __CHKSB2
	NEG  R26
	BLD  R0,0
	INC  R0
	BST  R0,0
__CHKSB2:
	RET

__GETW1P:
	LD   R30,X+
	LD   R31,X
	SBIW R26,1
	RET

__GETD1P:
	LD   R30,X+
	LD   R31,X+
	LD   R22,X+
	LD   R23,X
	SBIW R26,3
	RET

__GETW1PF:
	LPM  R0,Z+
	LPM  R31,Z
	MOV  R30,R0
	RET

__GETW2PF:
	LPM  R26,Z+
	LPM  R27,Z
	RET

__GETD1S0:
	LD   R30,Y
	LDD  R31,Y+1
	LDD  R22,Y+2
	LDD  R23,Y+3
	RET

__GETD2S0:
	LD   R26,Y
	LDD  R27,Y+1
	LDD  R24,Y+2
	LDD  R25,Y+3
	RET

__PUTD1S0:
	ST   Y,R30
	STD  Y+1,R31
	STD  Y+2,R22
	STD  Y+3,R23
	RET

__PUTPARD1:
	ST   -Y,R23
	ST   -Y,R22
	ST   -Y,R31
	ST   -Y,R30
	RET

__PUTPARD2:
	ST   -Y,R25
	ST   -Y,R24
	ST   -Y,R27
	ST   -Y,R26
	RET

__SWAPD12:
	MOV  R1,R24
	MOV  R24,R22
	MOV  R22,R1
	MOV  R1,R25
	MOV  R25,R23
	MOV  R23,R1

__SWAPW12:
	MOV  R1,R27
	MOV  R27,R31
	MOV  R31,R1

__SWAPB12:
	MOV  R1,R26
	MOV  R26,R30
	MOV  R30,R1
	RET

__EEPROMRDB:
	SBIC EECR,EEWE
	RJMP __EEPROMRDB
	PUSH R31
	IN   R31,SREG
	CLI
	OUT  EEARL,R26
	OUT  EEARH,R27
	SBI  EECR,EERE
	IN   R30,EEDR
	OUT  SREG,R31
	POP  R31
	RET

__EEPROMWRB:
	SBIS EECR,EEWE
	RJMP __EEPROMWRB1
	WDR
	RJMP __EEPROMWRB
__EEPROMWRB1:
	IN   R25,SREG
	CLI
	OUT  EEARL,R26
	OUT  EEARH,R27
	SBI  EECR,EERE
	IN   R24,EEDR
	CP   R30,R24
	BREQ __EEPROMWRB0
	OUT  EEDR,R30
	SBI  EECR,EEMWE
	SBI  EECR,EEWE
__EEPROMWRB0:
	OUT  SREG,R25
	RET

__CPD10:
	SBIW R30,0
	SBCI R22,0
	SBCI R23,0
	RET

__CPW02:
	CLR  R0
	CP   R0,R26
	CPC  R0,R27
	RET

__BSTB1:
	CLT
	TST  R30
	BREQ PC+2
	SET
	RET

__SAVELOCR6:
	ST   -Y,R21
__SAVELOCR5:
	ST   -Y,R20
__SAVELOCR4:
	ST   -Y,R19
__SAVELOCR3:
	ST   -Y,R18
__SAVELOCR2:
	ST   -Y,R17
	ST   -Y,R16
	RET

__LOADLOCR6:
	LDD  R21,Y+5
__LOADLOCR5:
	LDD  R20,Y+4
__LOADLOCR4:
	LDD  R19,Y+3
__LOADLOCR3:
	LDD  R18,Y+2
__LOADLOCR2:
	LDD  R17,Y+1
	LD   R16,Y
	RET

;END OF CODE MARKER
__END_OF_CODE:
