
;CodeVisionAVR C Compiler V3.14 Advanced
;(C) Copyright 1998-2014 Pavel Haiduc, HP InfoTech s.r.l.
;http://www.hpinfotech.com

;Build configuration    : Debug
;Chip type              : ATmega16
;Program type           : Application
;Clock frequency        : 8.000000 MHz
;Memory model           : Small
;Optimize for           : Size
;(s)printf features     : int, width
;(s)scanf features      : int, width
;External RAM size      : 0
;Data Stack size        : 256 byte(s)
;Heap size              : 0 byte(s)
;Promote 'char' to 'int': Yes
;'char' is unsigned     : Yes
;8 bit enums            : Yes
;Global 'const' stored in FLASH: Yes
;Enhanced function parameter passing: Yes
;Enhanced core instructions: On
;Automatic register allocation for global variables: On
;Smart register allocation: On

	#define _MODEL_SMALL_

	#pragma AVRPART ADMIN PART_NAME ATmega16
	#pragma AVRPART MEMORY PROG_FLASH 16384
	#pragma AVRPART MEMORY EEPROM 512
	#pragma AVRPART MEMORY INT_SRAM SIZE 1024
	#pragma AVRPART MEMORY INT_SRAM START_ADDR 0x60

	#define CALL_SUPPORTED 1

	.LISTMAC
	.EQU UDRE=0x5
	.EQU RXC=0x7
	.EQU USR=0xB
	.EQU UDR=0xC
	.EQU SPSR=0xE
	.EQU SPDR=0xF
	.EQU EERE=0x0
	.EQU EEWE=0x1
	.EQU EEMWE=0x2
	.EQU EECR=0x1C
	.EQU EEDR=0x1D
	.EQU EEARL=0x1E
	.EQU EEARH=0x1F
	.EQU WDTCR=0x21
	.EQU MCUCR=0x35
	.EQU GICR=0x3B
	.EQU SPL=0x3D
	.EQU SPH=0x3E
	.EQU SREG=0x3F

	.DEF R0X0=R0
	.DEF R0X1=R1
	.DEF R0X2=R2
	.DEF R0X3=R3
	.DEF R0X4=R4
	.DEF R0X5=R5
	.DEF R0X6=R6
	.DEF R0X7=R7
	.DEF R0X8=R8
	.DEF R0X9=R9
	.DEF R0XA=R10
	.DEF R0XB=R11
	.DEF R0XC=R12
	.DEF R0XD=R13
	.DEF R0XE=R14
	.DEF R0XF=R15
	.DEF R0X10=R16
	.DEF R0X11=R17
	.DEF R0X12=R18
	.DEF R0X13=R19
	.DEF R0X14=R20
	.DEF R0X15=R21
	.DEF R0X16=R22
	.DEF R0X17=R23
	.DEF R0X18=R24
	.DEF R0X19=R25
	.DEF R0X1A=R26
	.DEF R0X1B=R27
	.DEF R0X1C=R28
	.DEF R0X1D=R29
	.DEF R0X1E=R30
	.DEF R0X1F=R31

	.EQU __SRAM_START=0x0060
	.EQU __SRAM_END=0x045F
	.EQU __DSTACK_SIZE=0x0100
	.EQU __HEAP_SIZE=0x0000
	.EQU __CLEAR_SRAM_SIZE=__SRAM_END-__SRAM_START+1

	.MACRO __CPD1N
	CPI  R30,LOW(@0)
	LDI  R26,HIGH(@0)
	CPC  R31,R26
	LDI  R26,BYTE3(@0)
	CPC  R22,R26
	LDI  R26,BYTE4(@0)
	CPC  R23,R26
	.ENDM

	.MACRO __CPD2N
	CPI  R26,LOW(@0)
	LDI  R30,HIGH(@0)
	CPC  R27,R30
	LDI  R30,BYTE3(@0)
	CPC  R24,R30
	LDI  R30,BYTE4(@0)
	CPC  R25,R30
	.ENDM

	.MACRO __CPWRR
	CP   R@0,R@2
	CPC  R@1,R@3
	.ENDM

	.MACRO __CPWRN
	CPI  R@0,LOW(@2)
	LDI  R30,HIGH(@2)
	CPC  R@1,R30
	.ENDM

	.MACRO __ADDB1MN
	SUBI R30,LOW(-@0-(@1))
	.ENDM

	.MACRO __ADDB2MN
	SUBI R26,LOW(-@0-(@1))
	.ENDM

	.MACRO __ADDW1MN
	SUBI R30,LOW(-@0-(@1))
	SBCI R31,HIGH(-@0-(@1))
	.ENDM

	.MACRO __ADDW2MN
	SUBI R26,LOW(-@0-(@1))
	SBCI R27,HIGH(-@0-(@1))
	.ENDM

	.MACRO __ADDW1FN
	SUBI R30,LOW(-2*@0-(@1))
	SBCI R31,HIGH(-2*@0-(@1))
	.ENDM

	.MACRO __ADDD1FN
	SUBI R30,LOW(-2*@0-(@1))
	SBCI R31,HIGH(-2*@0-(@1))
	SBCI R22,BYTE3(-2*@0-(@1))
	.ENDM

	.MACRO __ADDD1N
	SUBI R30,LOW(-@0)
	SBCI R31,HIGH(-@0)
	SBCI R22,BYTE3(-@0)
	SBCI R23,BYTE4(-@0)
	.ENDM

	.MACRO __ADDD2N
	SUBI R26,LOW(-@0)
	SBCI R27,HIGH(-@0)
	SBCI R24,BYTE3(-@0)
	SBCI R25,BYTE4(-@0)
	.ENDM

	.MACRO __SUBD1N
	SUBI R30,LOW(@0)
	SBCI R31,HIGH(@0)
	SBCI R22,BYTE3(@0)
	SBCI R23,BYTE4(@0)
	.ENDM

	.MACRO __SUBD2N
	SUBI R26,LOW(@0)
	SBCI R27,HIGH(@0)
	SBCI R24,BYTE3(@0)
	SBCI R25,BYTE4(@0)
	.ENDM

	.MACRO __ANDBMNN
	LDS  R30,@0+(@1)
	ANDI R30,LOW(@2)
	STS  @0+(@1),R30
	.ENDM

	.MACRO __ANDWMNN
	LDS  R30,@0+(@1)
	ANDI R30,LOW(@2)
	STS  @0+(@1),R30
	LDS  R30,@0+(@1)+1
	ANDI R30,HIGH(@2)
	STS  @0+(@1)+1,R30
	.ENDM

	.MACRO __ANDD1N
	ANDI R30,LOW(@0)
	ANDI R31,HIGH(@0)
	ANDI R22,BYTE3(@0)
	ANDI R23,BYTE4(@0)
	.ENDM

	.MACRO __ANDD2N
	ANDI R26,LOW(@0)
	ANDI R27,HIGH(@0)
	ANDI R24,BYTE3(@0)
	ANDI R25,BYTE4(@0)
	.ENDM

	.MACRO __ORBMNN
	LDS  R30,@0+(@1)
	ORI  R30,LOW(@2)
	STS  @0+(@1),R30
	.ENDM

	.MACRO __ORWMNN
	LDS  R30,@0+(@1)
	ORI  R30,LOW(@2)
	STS  @0+(@1),R30
	LDS  R30,@0+(@1)+1
	ORI  R30,HIGH(@2)
	STS  @0+(@1)+1,R30
	.ENDM

	.MACRO __ORD1N
	ORI  R30,LOW(@0)
	ORI  R31,HIGH(@0)
	ORI  R22,BYTE3(@0)
	ORI  R23,BYTE4(@0)
	.ENDM

	.MACRO __ORD2N
	ORI  R26,LOW(@0)
	ORI  R27,HIGH(@0)
	ORI  R24,BYTE3(@0)
	ORI  R25,BYTE4(@0)
	.ENDM

	.MACRO __DELAY_USB
	LDI  R24,LOW(@0)
__DELAY_USB_LOOP:
	DEC  R24
	BRNE __DELAY_USB_LOOP
	.ENDM

	.MACRO __DELAY_USW
	LDI  R24,LOW(@0)
	LDI  R25,HIGH(@0)
__DELAY_USW_LOOP:
	SBIW R24,1
	BRNE __DELAY_USW_LOOP
	.ENDM

	.MACRO __GETD1S
	LDD  R30,Y+@0
	LDD  R31,Y+@0+1
	LDD  R22,Y+@0+2
	LDD  R23,Y+@0+3
	.ENDM

	.MACRO __GETD2S
	LDD  R26,Y+@0
	LDD  R27,Y+@0+1
	LDD  R24,Y+@0+2
	LDD  R25,Y+@0+3
	.ENDM

	.MACRO __PUTD1S
	STD  Y+@0,R30
	STD  Y+@0+1,R31
	STD  Y+@0+2,R22
	STD  Y+@0+3,R23
	.ENDM

	.MACRO __PUTD2S
	STD  Y+@0,R26
	STD  Y+@0+1,R27
	STD  Y+@0+2,R24
	STD  Y+@0+3,R25
	.ENDM

	.MACRO __PUTDZ2
	STD  Z+@0,R26
	STD  Z+@0+1,R27
	STD  Z+@0+2,R24
	STD  Z+@0+3,R25
	.ENDM

	.MACRO __CLRD1S
	STD  Y+@0,R30
	STD  Y+@0+1,R30
	STD  Y+@0+2,R30
	STD  Y+@0+3,R30
	.ENDM

	.MACRO __POINTB1MN
	LDI  R30,LOW(@0+(@1))
	.ENDM

	.MACRO __POINTW1MN
	LDI  R30,LOW(@0+(@1))
	LDI  R31,HIGH(@0+(@1))
	.ENDM

	.MACRO __POINTD1M
	LDI  R30,LOW(@0)
	LDI  R31,HIGH(@0)
	LDI  R22,BYTE3(@0)
	LDI  R23,BYTE4(@0)
	.ENDM

	.MACRO __POINTW1FN
	LDI  R30,LOW(2*@0+(@1))
	LDI  R31,HIGH(2*@0+(@1))
	.ENDM

	.MACRO __POINTD1FN
	LDI  R30,LOW(2*@0+(@1))
	LDI  R31,HIGH(2*@0+(@1))
	LDI  R22,BYTE3(2*@0+(@1))
	LDI  R23,BYTE4(2*@0+(@1))
	.ENDM

	.MACRO __POINTB2MN
	LDI  R26,LOW(@0+(@1))
	.ENDM

	.MACRO __POINTW2MN
	LDI  R26,LOW(@0+(@1))
	LDI  R27,HIGH(@0+(@1))
	.ENDM

	.MACRO __POINTW2FN
	LDI  R26,LOW(2*@0+(@1))
	LDI  R27,HIGH(2*@0+(@1))
	.ENDM

	.MACRO __POINTD2FN
	LDI  R26,LOW(2*@0+(@1))
	LDI  R27,HIGH(2*@0+(@1))
	LDI  R24,BYTE3(2*@0+(@1))
	LDI  R25,BYTE4(2*@0+(@1))
	.ENDM

	.MACRO __POINTBRM
	LDI  R@0,LOW(@1)
	.ENDM

	.MACRO __POINTWRM
	LDI  R@0,LOW(@2)
	LDI  R@1,HIGH(@2)
	.ENDM

	.MACRO __POINTBRMN
	LDI  R@0,LOW(@1+(@2))
	.ENDM

	.MACRO __POINTWRMN
	LDI  R@0,LOW(@2+(@3))
	LDI  R@1,HIGH(@2+(@3))
	.ENDM

	.MACRO __POINTWRFN
	LDI  R@0,LOW(@2*2+(@3))
	LDI  R@1,HIGH(@2*2+(@3))
	.ENDM

	.MACRO __GETD1N
	LDI  R30,LOW(@0)
	LDI  R31,HIGH(@0)
	LDI  R22,BYTE3(@0)
	LDI  R23,BYTE4(@0)
	.ENDM

	.MACRO __GETD2N
	LDI  R26,LOW(@0)
	LDI  R27,HIGH(@0)
	LDI  R24,BYTE3(@0)
	LDI  R25,BYTE4(@0)
	.ENDM

	.MACRO __GETB1MN
	LDS  R30,@0+(@1)
	.ENDM

	.MACRO __GETB1HMN
	LDS  R31,@0+(@1)
	.ENDM

	.MACRO __GETW1MN
	LDS  R30,@0+(@1)
	LDS  R31,@0+(@1)+1
	.ENDM

	.MACRO __GETD1MN
	LDS  R30,@0+(@1)
	LDS  R31,@0+(@1)+1
	LDS  R22,@0+(@1)+2
	LDS  R23,@0+(@1)+3
	.ENDM

	.MACRO __GETBRMN
	LDS  R@0,@1+(@2)
	.ENDM

	.MACRO __GETWRMN
	LDS  R@0,@2+(@3)
	LDS  R@1,@2+(@3)+1
	.ENDM

	.MACRO __GETWRZ
	LDD  R@0,Z+@2
	LDD  R@1,Z+@2+1
	.ENDM

	.MACRO __GETD2Z
	LDD  R26,Z+@0
	LDD  R27,Z+@0+1
	LDD  R24,Z+@0+2
	LDD  R25,Z+@0+3
	.ENDM

	.MACRO __GETB2MN
	LDS  R26,@0+(@1)
	.ENDM

	.MACRO __GETW2MN
	LDS  R26,@0+(@1)
	LDS  R27,@0+(@1)+1
	.ENDM

	.MACRO __GETD2MN
	LDS  R26,@0+(@1)
	LDS  R27,@0+(@1)+1
	LDS  R24,@0+(@1)+2
	LDS  R25,@0+(@1)+3
	.ENDM

	.MACRO __PUTB1MN
	STS  @0+(@1),R30
	.ENDM

	.MACRO __PUTW1MN
	STS  @0+(@1),R30
	STS  @0+(@1)+1,R31
	.ENDM

	.MACRO __PUTD1MN
	STS  @0+(@1),R30
	STS  @0+(@1)+1,R31
	STS  @0+(@1)+2,R22
	STS  @0+(@1)+3,R23
	.ENDM

	.MACRO __PUTB1EN
	LDI  R26,LOW(@0+(@1))
	LDI  R27,HIGH(@0+(@1))
	CALL __EEPROMWRB
	.ENDM

	.MACRO __PUTW1EN
	LDI  R26,LOW(@0+(@1))
	LDI  R27,HIGH(@0+(@1))
	CALL __EEPROMWRW
	.ENDM

	.MACRO __PUTD1EN
	LDI  R26,LOW(@0+(@1))
	LDI  R27,HIGH(@0+(@1))
	CALL __EEPROMWRD
	.ENDM

	.MACRO __PUTBR0MN
	STS  @0+(@1),R0
	.ENDM

	.MACRO __PUTBMRN
	STS  @0+(@1),R@2
	.ENDM

	.MACRO __PUTWMRN
	STS  @0+(@1),R@2
	STS  @0+(@1)+1,R@3
	.ENDM

	.MACRO __PUTBZR
	STD  Z+@1,R@0
	.ENDM

	.MACRO __PUTWZR
	STD  Z+@2,R@0
	STD  Z+@2+1,R@1
	.ENDM

	.MACRO __GETW1R
	MOV  R30,R@0
	MOV  R31,R@1
	.ENDM

	.MACRO __GETW2R
	MOV  R26,R@0
	MOV  R27,R@1
	.ENDM

	.MACRO __GETWRN
	LDI  R@0,LOW(@2)
	LDI  R@1,HIGH(@2)
	.ENDM

	.MACRO __PUTW1R
	MOV  R@0,R30
	MOV  R@1,R31
	.ENDM

	.MACRO __PUTW2R
	MOV  R@0,R26
	MOV  R@1,R27
	.ENDM

	.MACRO __ADDWRN
	SUBI R@0,LOW(-@2)
	SBCI R@1,HIGH(-@2)
	.ENDM

	.MACRO __ADDWRR
	ADD  R@0,R@2
	ADC  R@1,R@3
	.ENDM

	.MACRO __SUBWRN
	SUBI R@0,LOW(@2)
	SBCI R@1,HIGH(@2)
	.ENDM

	.MACRO __SUBWRR
	SUB  R@0,R@2
	SBC  R@1,R@3
	.ENDM

	.MACRO __ANDWRN
	ANDI R@0,LOW(@2)
	ANDI R@1,HIGH(@2)
	.ENDM

	.MACRO __ANDWRR
	AND  R@0,R@2
	AND  R@1,R@3
	.ENDM

	.MACRO __ORWRN
	ORI  R@0,LOW(@2)
	ORI  R@1,HIGH(@2)
	.ENDM

	.MACRO __ORWRR
	OR   R@0,R@2
	OR   R@1,R@3
	.ENDM

	.MACRO __EORWRR
	EOR  R@0,R@2
	EOR  R@1,R@3
	.ENDM

	.MACRO __GETWRS
	LDD  R@0,Y+@2
	LDD  R@1,Y+@2+1
	.ENDM

	.MACRO __PUTBSR
	STD  Y+@1,R@0
	.ENDM

	.MACRO __PUTWSR
	STD  Y+@2,R@0
	STD  Y+@2+1,R@1
	.ENDM

	.MACRO __MOVEWRR
	MOV  R@0,R@2
	MOV  R@1,R@3
	.ENDM

	.MACRO __INWR
	IN   R@0,@2
	IN   R@1,@2+1
	.ENDM

	.MACRO __OUTWR
	OUT  @2+1,R@1
	OUT  @2,R@0
	.ENDM

	.MACRO __CALL1MN
	LDS  R30,@0+(@1)
	LDS  R31,@0+(@1)+1
	ICALL
	.ENDM

	.MACRO __CALL1FN
	LDI  R30,LOW(2*@0+(@1))
	LDI  R31,HIGH(2*@0+(@1))
	CALL __GETW1PF
	ICALL
	.ENDM

	.MACRO __CALL2EN
	PUSH R26
	PUSH R27
	LDI  R26,LOW(@0+(@1))
	LDI  R27,HIGH(@0+(@1))
	CALL __EEPROMRDW
	POP  R27
	POP  R26
	ICALL
	.ENDM

	.MACRO __CALL2EX
	SUBI R26,LOW(-@0)
	SBCI R27,HIGH(-@0)
	CALL __EEPROMRDD
	ICALL
	.ENDM

	.MACRO __GETW1STACK
	IN   R30,SPL
	IN   R31,SPH
	ADIW R30,@0+1
	LD   R0,Z+
	LD   R31,Z
	MOV  R30,R0
	.ENDM

	.MACRO __GETD1STACK
	IN   R30,SPL
	IN   R31,SPH
	ADIW R30,@0+1
	LD   R0,Z+
	LD   R1,Z+
	LD   R22,Z
	MOVW R30,R0
	.ENDM

	.MACRO __NBST
	BST  R@0,@1
	IN   R30,SREG
	LDI  R31,0x40
	EOR  R30,R31
	OUT  SREG,R30
	.ENDM


	.MACRO __PUTB1SN
	LDD  R26,Y+@0
	LDD  R27,Y+@0+1
	SUBI R26,LOW(-@1)
	SBCI R27,HIGH(-@1)
	ST   X,R30
	.ENDM

	.MACRO __PUTW1SN
	LDD  R26,Y+@0
	LDD  R27,Y+@0+1
	SUBI R26,LOW(-@1)
	SBCI R27,HIGH(-@1)
	ST   X+,R30
	ST   X,R31
	.ENDM

	.MACRO __PUTD1SN
	LDD  R26,Y+@0
	LDD  R27,Y+@0+1
	SUBI R26,LOW(-@1)
	SBCI R27,HIGH(-@1)
	CALL __PUTDP1
	.ENDM

	.MACRO __PUTB1SNS
	LDD  R26,Y+@0
	LDD  R27,Y+@0+1
	ADIW R26,@1
	ST   X,R30
	.ENDM

	.MACRO __PUTW1SNS
	LDD  R26,Y+@0
	LDD  R27,Y+@0+1
	ADIW R26,@1
	ST   X+,R30
	ST   X,R31
	.ENDM

	.MACRO __PUTD1SNS
	LDD  R26,Y+@0
	LDD  R27,Y+@0+1
	ADIW R26,@1
	CALL __PUTDP1
	.ENDM

	.MACRO __PUTB1PMN
	LDS  R26,@0
	LDS  R27,@0+1
	SUBI R26,LOW(-@1)
	SBCI R27,HIGH(-@1)
	ST   X,R30
	.ENDM

	.MACRO __PUTW1PMN
	LDS  R26,@0
	LDS  R27,@0+1
	SUBI R26,LOW(-@1)
	SBCI R27,HIGH(-@1)
	ST   X+,R30
	ST   X,R31
	.ENDM

	.MACRO __PUTD1PMN
	LDS  R26,@0
	LDS  R27,@0+1
	SUBI R26,LOW(-@1)
	SBCI R27,HIGH(-@1)
	CALL __PUTDP1
	.ENDM

	.MACRO __PUTB1PMNS
	LDS  R26,@0
	LDS  R27,@0+1
	ADIW R26,@1
	ST   X,R30
	.ENDM

	.MACRO __PUTW1PMNS
	LDS  R26,@0
	LDS  R27,@0+1
	ADIW R26,@1
	ST   X+,R30
	ST   X,R31
	.ENDM

	.MACRO __PUTD1PMNS
	LDS  R26,@0
	LDS  R27,@0+1
	ADIW R26,@1
	CALL __PUTDP1
	.ENDM

	.MACRO __PUTB1RN
	MOVW R26,R@0
	SUBI R26,LOW(-@1)
	SBCI R27,HIGH(-@1)
	ST   X,R30
	.ENDM

	.MACRO __PUTW1RN
	MOVW R26,R@0
	SUBI R26,LOW(-@1)
	SBCI R27,HIGH(-@1)
	ST   X+,R30
	ST   X,R31
	.ENDM

	.MACRO __PUTD1RN
	MOVW R26,R@0
	SUBI R26,LOW(-@1)
	SBCI R27,HIGH(-@1)
	CALL __PUTDP1
	.ENDM

	.MACRO __PUTB1RNS
	MOVW R26,R@0
	ADIW R26,@1
	ST   X,R30
	.ENDM

	.MACRO __PUTW1RNS
	MOVW R26,R@0
	ADIW R26,@1
	ST   X+,R30
	ST   X,R31
	.ENDM

	.MACRO __PUTD1RNS
	MOVW R26,R@0
	ADIW R26,@1
	CALL __PUTDP1
	.ENDM

	.MACRO __PUTB1RON
	MOV  R26,R@0
	MOV  R27,R@1
	SUBI R26,LOW(-@2)
	SBCI R27,HIGH(-@2)
	ST   X,R30
	.ENDM

	.MACRO __PUTW1RON
	MOV  R26,R@0
	MOV  R27,R@1
	SUBI R26,LOW(-@2)
	SBCI R27,HIGH(-@2)
	ST   X+,R30
	ST   X,R31
	.ENDM

	.MACRO __PUTD1RON
	MOV  R26,R@0
	MOV  R27,R@1
	SUBI R26,LOW(-@2)
	SBCI R27,HIGH(-@2)
	CALL __PUTDP1
	.ENDM

	.MACRO __PUTB1RONS
	MOV  R26,R@0
	MOV  R27,R@1
	ADIW R26,@2
	ST   X,R30
	.ENDM

	.MACRO __PUTW1RONS
	MOV  R26,R@0
	MOV  R27,R@1
	ADIW R26,@2
	ST   X+,R30
	ST   X,R31
	.ENDM

	.MACRO __PUTD1RONS
	MOV  R26,R@0
	MOV  R27,R@1
	ADIW R26,@2
	CALL __PUTDP1
	.ENDM


	.MACRO __GETB1SX
	MOVW R30,R28
	SUBI R30,LOW(-@0)
	SBCI R31,HIGH(-@0)
	LD   R30,Z
	.ENDM

	.MACRO __GETB1HSX
	MOVW R30,R28
	SUBI R30,LOW(-@0)
	SBCI R31,HIGH(-@0)
	LD   R31,Z
	.ENDM

	.MACRO __GETW1SX
	MOVW R30,R28
	SUBI R30,LOW(-@0)
	SBCI R31,HIGH(-@0)
	LD   R0,Z+
	LD   R31,Z
	MOV  R30,R0
	.ENDM

	.MACRO __GETD1SX
	MOVW R30,R28
	SUBI R30,LOW(-@0)
	SBCI R31,HIGH(-@0)
	LD   R0,Z+
	LD   R1,Z+
	LD   R22,Z+
	LD   R23,Z
	MOVW R30,R0
	.ENDM

	.MACRO __GETB2SX
	MOVW R26,R28
	SUBI R26,LOW(-@0)
	SBCI R27,HIGH(-@0)
	LD   R26,X
	.ENDM

	.MACRO __GETW2SX
	MOVW R26,R28
	SUBI R26,LOW(-@0)
	SBCI R27,HIGH(-@0)
	LD   R0,X+
	LD   R27,X
	MOV  R26,R0
	.ENDM

	.MACRO __GETD2SX
	MOVW R26,R28
	SUBI R26,LOW(-@0)
	SBCI R27,HIGH(-@0)
	LD   R0,X+
	LD   R1,X+
	LD   R24,X+
	LD   R25,X
	MOVW R26,R0
	.ENDM

	.MACRO __GETBRSX
	MOVW R30,R28
	SUBI R30,LOW(-@1)
	SBCI R31,HIGH(-@1)
	LD   R@0,Z
	.ENDM

	.MACRO __GETWRSX
	MOVW R30,R28
	SUBI R30,LOW(-@2)
	SBCI R31,HIGH(-@2)
	LD   R@0,Z+
	LD   R@1,Z
	.ENDM

	.MACRO __GETBRSX2
	MOVW R26,R28
	SUBI R26,LOW(-@1)
	SBCI R27,HIGH(-@1)
	LD   R@0,X
	.ENDM

	.MACRO __GETWRSX2
	MOVW R26,R28
	SUBI R26,LOW(-@2)
	SBCI R27,HIGH(-@2)
	LD   R@0,X+
	LD   R@1,X
	.ENDM

	.MACRO __LSLW8SX
	MOVW R30,R28
	SUBI R30,LOW(-@0)
	SBCI R31,HIGH(-@0)
	LD   R31,Z
	CLR  R30
	.ENDM

	.MACRO __PUTB1SX
	MOVW R26,R28
	SUBI R26,LOW(-@0)
	SBCI R27,HIGH(-@0)
	ST   X,R30
	.ENDM

	.MACRO __PUTW1SX
	MOVW R26,R28
	SUBI R26,LOW(-@0)
	SBCI R27,HIGH(-@0)
	ST   X+,R30
	ST   X,R31
	.ENDM

	.MACRO __PUTD1SX
	MOVW R26,R28
	SUBI R26,LOW(-@0)
	SBCI R27,HIGH(-@0)
	ST   X+,R30
	ST   X+,R31
	ST   X+,R22
	ST   X,R23
	.ENDM

	.MACRO __CLRW1SX
	MOVW R26,R28
	SUBI R26,LOW(-@0)
	SBCI R27,HIGH(-@0)
	ST   X+,R30
	ST   X,R30
	.ENDM

	.MACRO __CLRD1SX
	MOVW R26,R28
	SUBI R26,LOW(-@0)
	SBCI R27,HIGH(-@0)
	ST   X+,R30
	ST   X+,R30
	ST   X+,R30
	ST   X,R30
	.ENDM

	.MACRO __PUTB2SX
	MOVW R30,R28
	SUBI R30,LOW(-@0)
	SBCI R31,HIGH(-@0)
	ST   Z,R26
	.ENDM

	.MACRO __PUTW2SX
	MOVW R30,R28
	SUBI R30,LOW(-@0)
	SBCI R31,HIGH(-@0)
	ST   Z+,R26
	ST   Z,R27
	.ENDM

	.MACRO __PUTD2SX
	MOVW R30,R28
	SUBI R30,LOW(-@0)
	SBCI R31,HIGH(-@0)
	ST   Z+,R26
	ST   Z+,R27
	ST   Z+,R24
	ST   Z,R25
	.ENDM

	.MACRO __PUTBSRX
	MOVW R30,R28
	SUBI R30,LOW(-@1)
	SBCI R31,HIGH(-@1)
	ST   Z,R@0
	.ENDM

	.MACRO __PUTWSRX
	MOVW R30,R28
	SUBI R30,LOW(-@2)
	SBCI R31,HIGH(-@2)
	ST   Z+,R@0
	ST   Z,R@1
	.ENDM

	.MACRO __PUTB1SNX
	MOVW R26,R28
	SUBI R26,LOW(-@0)
	SBCI R27,HIGH(-@0)
	LD   R0,X+
	LD   R27,X
	MOV  R26,R0
	SUBI R26,LOW(-@1)
	SBCI R27,HIGH(-@1)
	ST   X,R30
	.ENDM

	.MACRO __PUTW1SNX
	MOVW R26,R28
	SUBI R26,LOW(-@0)
	SBCI R27,HIGH(-@0)
	LD   R0,X+
	LD   R27,X
	MOV  R26,R0
	SUBI R26,LOW(-@1)
	SBCI R27,HIGH(-@1)
	ST   X+,R30
	ST   X,R31
	.ENDM

	.MACRO __PUTD1SNX
	MOVW R26,R28
	SUBI R26,LOW(-@0)
	SBCI R27,HIGH(-@0)
	LD   R0,X+
	LD   R27,X
	MOV  R26,R0
	SUBI R26,LOW(-@1)
	SBCI R27,HIGH(-@1)
	ST   X+,R30
	ST   X+,R31
	ST   X+,R22
	ST   X,R23
	.ENDM

	.MACRO __MULBRR
	MULS R@0,R@1
	MOVW R30,R0
	.ENDM

	.MACRO __MULBRRU
	MUL  R@0,R@1
	MOVW R30,R0
	.ENDM

	.MACRO __MULBRR0
	MULS R@0,R@1
	.ENDM

	.MACRO __MULBRRU0
	MUL  R@0,R@1
	.ENDM

	.MACRO __MULBNWRU
	LDI  R26,@2
	MUL  R26,R@0
	MOVW R30,R0
	MUL  R26,R@1
	ADD  R31,R0
	.ENDM

	.CSEG
	.ORG 0x00

;START OF CODE MARKER
__START_OF_CODE:

;INTERRUPT VECTORS
	JMP  __RESET
	JMP  0x00
	JMP  0x00
	JMP  0x00
	JMP  0x00
	JMP  0x00
	JMP  0x00
	JMP  0x00
	JMP  0x00
	JMP  0x00
	JMP  0x00
	JMP  0x00
	JMP  0x00
	JMP  0x00
	JMP  0x00
	JMP  0x00
	JMP  0x00
	JMP  0x00
	JMP  0x00
	JMP  0x00
	JMP  0x00

_Table_7s:
	.DB  0x3F,0x6,0x5B,0x4F,0x66,0x6D,0x7D,0x7
	.DB  0x7F,0x6F,0x77,0x7C,0x39,0x5E,0x79,0x71
	.DB  0x3D,0x76,0x30,0xE,0x38,0x54,0x5C,0x73
	.DB  0x50,0x1C,0x78,0x3E,0x0,0x40,0x8,0xF
	.DB  0x39,0x7B,0x5F,0x67,0x58,0x6E,0x63,0x30
	.DB  0x74,0x10
_tbl10_G100:
	.DB  0x10,0x27,0xE8,0x3,0x64,0x0,0xA,0x0
	.DB  0x1,0x0
_tbl16_G100:
	.DB  0x0,0x10,0x0,0x1,0x10,0x0,0x1,0x0

_0x34:
	.DB  0x20,0x20,0x20,0x20,0x2D,0x2D,0x2D,0x2D
	.DB  0x48,0x45,0x4C,0x4C,0x4F,0x2D,0x2D,0x2D
	.DB  0x2D,0x2D,0x20,0x20,0x20,0x20
_0x0:
	.DB  0x20,0x20,0x20,0x20,0x45,0x72,0x72,0x6F
	.DB  0x72,0x20,0x20,0x64,0x68,0x74,0x32,0x32
	.DB  0x20,0x20,0x20,0x20,0x0
_0x2040003:
	.DB  0x2C,0x1
_0x2040004:
	.DB  0x7
_0x2060060:
	.DB  0x1
_0x2060000:
	.DB  0x2D,0x4E,0x41,0x4E,0x0,0x49,0x4E,0x46
	.DB  0x0

__GLOBAL_INI_TBL:
	.DW  0x16
	.DW  _str
	.DW  _0x34*2

	.DW  0x15
	.DW  _0x39
	.DW  _0x0*2

	.DW  0x02
	.DW  __scrolldelay
	.DW  _0x2040003*2

	.DW  0x01
	.DW  __brightness
	.DW  _0x2040004*2

	.DW  0x01
	.DW  __seed_G103
	.DW  _0x2060060*2

_0xFFFFFFFF:
	.DW  0

#define __GLOBAL_INI_TBL_PRESENT 1

__RESET:
	CLI
	CLR  R30
	OUT  EECR,R30

;INTERRUPT VECTORS ARE PLACED
;AT THE START OF FLASH
	LDI  R31,1
	OUT  GICR,R31
	OUT  GICR,R30
	OUT  MCUCR,R30

;CLEAR R2-R14
	LDI  R24,(14-2)+1
	LDI  R26,2
	CLR  R27
__CLEAR_REG:
	ST   X+,R30
	DEC  R24
	BRNE __CLEAR_REG

;CLEAR SRAM
	LDI  R24,LOW(__CLEAR_SRAM_SIZE)
	LDI  R25,HIGH(__CLEAR_SRAM_SIZE)
	LDI  R26,__SRAM_START
__CLEAR_SRAM:
	ST   X+,R30
	SBIW R24,1
	BRNE __CLEAR_SRAM

;GLOBAL VARIABLES INITIALIZATION
	LDI  R30,LOW(__GLOBAL_INI_TBL*2)
	LDI  R31,HIGH(__GLOBAL_INI_TBL*2)
__GLOBAL_INI_NEXT:
	LPM  R24,Z+
	LPM  R25,Z+
	SBIW R24,0
	BREQ __GLOBAL_INI_END
	LPM  R26,Z+
	LPM  R27,Z+
	LPM  R0,Z+
	LPM  R1,Z+
	MOVW R22,R30
	MOVW R30,R0
__GLOBAL_INI_LOOP:
	LPM  R0,Z+
	ST   X+,R0
	SBIW R24,1
	BRNE __GLOBAL_INI_LOOP
	MOVW R30,R22
	RJMP __GLOBAL_INI_NEXT
__GLOBAL_INI_END:

;HARDWARE STACK POINTER INITIALIZATION
	LDI  R30,LOW(__SRAM_END-__HEAP_SIZE)
	OUT  SPL,R30
	LDI  R30,HIGH(__SRAM_END-__HEAP_SIZE)
	OUT  SPH,R30

;DATA STACK POINTER INITIALIZATION
	LDI  R28,LOW(__SRAM_START+__DSTACK_SIZE)
	LDI  R29,HIGH(__SRAM_START+__DSTACK_SIZE)

	JMP  _main

	.ESEG
	.ORG 0

	.DSEG
	.ORG 0x160

	.CSEG
;#include <mega16.h>
	#ifndef __SLEEP_DEFINED__
	#define __SLEEP_DEFINED__
	.EQU __se_bit=0x40
	.EQU __sm_mask=0xB0
	.EQU __sm_powerdown=0x20
	.EQU __sm_powersave=0x30
	.EQU __sm_standby=0xA0
	.EQU __sm_ext_standby=0xB0
	.EQU __sm_adc_noise_red=0x10
	.SET power_ctrl_reg=mcucr
	#endif
;#include <stdio.h>
;#include <math.h>
;#include <tm1637.h>
;#include "DHT22.h"

	.CSEG
_dht22_read:
; .FSTART _dht22_read
	ST   -Y,R27
	ST   -Y,R26
	SBIW R28,48
	CALL __SAVELOCR6
;	*temperature -> Y+56
;	*humidity -> Y+54
;	Count -> R16,R17
;	i -> R18,R19
;	bitTimes -> Y+13
;	Humidity -> R20,R21
;	Temperature -> Y+11
;	checkSum -> Y+10
;	csPart1 -> Y+9
;	csPart2 -> Y+8
;	csPart3 -> Y+7
;	csPart4 -> Y+6
	__GETWRN 20,21,0
	LDI  R30,LOW(0)
	STD  Y+11,R30
	STD  Y+11+1,R30
	STD  Y+10,R30
	__GETWRN 18,19,0
_0x4:
	__CPWRN 18,19,41
	BRGE _0x5
	MOVW R26,R28
	ADIW R26,13
	ADD  R26,R18
	ADC  R27,R19
	LDI  R30,LOW(0)
	ST   X,R30
	__ADDWRN 18,19,1
	RJMP _0x4
_0x5:
	CBI  0x17,0
	__GETWRN 16,17,0
_0x9:
	__CPWRN 16,17,126
	BRLT _0xB
	RJMP _0x20C0004
_0xB:
	CALL SUBOPT_0x0
	SBIS 0x16,0
	RJMP _0x9
	CBI  0x18,0
	SBI  0x17,0
	__DELAY_USW 2200
	CBI  0x17,0
	__GETWRN 16,17,0
_0x13:
	__CPWRN 16,17,26
	BRLT _0x15
	RJMP _0x20C0004
_0x15:
	CALL SUBOPT_0x0
	SBIS 0x16,0
	RJMP _0x13
	__GETWRN 16,17,0
_0x17:
	__CPWRN 16,17,51
	BRLT _0x19
	RJMP _0x20C0004
_0x19:
	CALL SUBOPT_0x0
	SBIC 0x16,0
	RJMP _0x17
	__GETWRN 18,19,0
_0x1B:
	__CPWRN 18,19,41
	BRGE _0x1C
	__GETWRN 16,17,0
_0x1E:
	__CPWRN 16,17,36
	BRLT _0x20
	RJMP _0x20C0004
_0x20:
	CALL SUBOPT_0x0
	SBIS 0x16,0
	RJMP _0x1E
	__GETWRN 16,17,0
_0x22:
	__CPWRN 16,17,51
	BRLT _0x24
	RJMP _0x20C0004
_0x24:
	CALL SUBOPT_0x0
	SBIC 0x16,0
	RJMP _0x22
	MOVW R30,R18
	MOVW R26,R28
	ADIW R26,13
	ADD  R30,R26
	ADC  R31,R27
	ST   Z,R16
	__ADDWRN 18,19,1
	RJMP _0x1B
_0x1C:
	__GETWRN 18,19,0
_0x26:
	__CPWRN 18,19,16
	BRGE _0x27
	MOVW R30,R18
	ADIW R30,1
	CALL SUBOPT_0x1
	BRLO _0x28
	CALL SUBOPT_0x2
	__ORWRR 20,21,30,31
_0x28:
	__ADDWRN 18,19,1
	RJMP _0x26
_0x27:
	__GETWRN 18,19,0
_0x2A:
	__CPWRN 18,19,16
	BRGE _0x2B
	MOVW R30,R18
	ADIW R30,17
	CALL SUBOPT_0x1
	BRLO _0x2C
	CALL SUBOPT_0x2
	LDD  R26,Y+11
	LDD  R27,Y+11+1
	OR   R30,R26
	OR   R31,R27
	STD  Y+11,R30
	STD  Y+11+1,R31
_0x2C:
	__ADDWRN 18,19,1
	RJMP _0x2A
_0x2B:
	__GETWRN 18,19,0
_0x2E:
	__CPWRN 18,19,8
	BRGE _0x2F
	MOVW R30,R18
	ADIW R30,33
	CALL SUBOPT_0x1
	BRLO _0x30
	LDI  R30,LOW(7)
	SUB  R30,R18
	LDI  R26,LOW(1)
	CALL __LSLB12
	LDD  R26,Y+10
	OR   R30,R26
	STD  Y+10,R30
_0x30:
	__ADDWRN 18,19,1
	RJMP _0x2E
_0x2F:
	MOVW R30,R20
	ANDI R31,HIGH(0x7FFF)
	CALL SUBOPT_0x3
	LDD  R26,Y+54
	LDD  R27,Y+54+1
	CALL __PUTDP1
	LDD  R30,Y+12
	ANDI R30,LOW(0x80)
	BREQ _0x31
	LDD  R30,Y+12
	ANDI R30,0x7F
	STD  Y+12,R30
	LDD  R30,Y+11
	LDD  R31,Y+11+1
	CALL SUBOPT_0x3
	__GETD2N 0xBF800000
	CALL __MULF12
	RJMP _0x3C
_0x31:
	LDD  R30,Y+11
	LDD  R31,Y+11+1
	CALL SUBOPT_0x3
_0x3C:
	LDD  R26,Y+56
	LDD  R27,Y+56+1
	CALL __PUTDP1
	MOVW R30,R20
	CALL __ASRW8
	STD  Y+9,R30
	MOV  R30,R20
	STD  Y+8,R30
	LDD  R30,Y+11
	LDD  R31,Y+11+1
	CALL __ASRW8
	STD  Y+7,R30
	LDD  R30,Y+11
	STD  Y+6,R30
	LDD  R26,Y+9
	CLR  R27
	LDD  R30,Y+8
	LDI  R31,0
	ADD  R26,R30
	ADC  R27,R31
	LDD  R30,Y+7
	LDI  R31,0
	ADD  R26,R30
	ADC  R27,R31
	LDD  R30,Y+6
	LDI  R31,0
	ADD  R26,R30
	ADC  R27,R31
	LDI  R30,LOW(255)
	LDI  R31,HIGH(255)
	AND  R30,R26
	AND  R31,R27
	LDD  R26,Y+10
	LDI  R27,0
	CP   R30,R26
	CPC  R31,R27
	BRNE _0x33
	LDI  R30,LOW(1)
	LDI  R31,HIGH(1)
	RJMP _0x20C0003
_0x33:
_0x20C0004:
	LDI  R30,LOW(0)
	LDI  R31,HIGH(0)
_0x20C0003:
	CALL __LOADLOCR6
	ADIW R28,58
	RET
; .FEND
;
;//PORTD=0x12;
;//PORTC=0x15;
;//PORTB=0x18;
;//PORTA=0x1b;
;
;#asm
 .equ __tm1637_port=0X1b;
 .equ __clk_bit=0;
 .equ __dio_bit=1;
; 0000 0010 #endasm
;
;unsigned char str[]={"    ----HELLO-----    "};

	.DSEG
;
;void main(void)
; 0000 0015 {

	.CSEG
_main:
; .FSTART _main
; 0000 0016 float temperature,humidity;
; 0000 0017 char t,h;
; 0000 0018 char dig1T,dig2T,dig1H,dig2H;
; 0000 0019 tm1637_init();
	SBIW R28,8
;	temperature -> Y+4
;	humidity -> Y+0
;	t -> R17
;	h -> R16
;	dig1T -> R19
;	dig2T -> R18
;	dig1H -> R21
;	dig2H -> R20
	CALL _tm1637_init
; 0000 001A tm1637_scroll(str);
	LDI  R26,LOW(_str)
	LDI  R27,HIGH(_str)
	CALL _tm1637_scroll
; 0000 001B while (1)
_0x35:
; 0000 001C       {
; 0000 001D       if(dht22_read(&temperature,&humidity) == 0)
	MOVW R30,R28
	ADIW R30,4
	ST   -Y,R31
	ST   -Y,R30
	MOVW R26,R28
	ADIW R26,2
	RCALL _dht22_read
	SBIW R30,0
	BRNE _0x38
; 0000 001E         {
; 0000 001F            tm1637_scroll("    Error  dht22    ");
	__POINTW2MN _0x39,0
	CALL _tm1637_scroll
; 0000 0020         }
; 0000 0021       else
	RJMP _0x3A
_0x38:
; 0000 0022         {
; 0000 0023         t=ceil(temperature);
	__GETD2S 4
	CALL _ceil
	CALL __CFD1U
	MOV  R17,R30
; 0000 0024         h=ceil(humidity);
	CALL __GETD2S0
	CALL _ceil
	CALL __CFD1U
	MOV  R16,R30
; 0000 0025         dig1T = t / 10;
	MOV  R26,R17
	LDI  R27,0
	LDI  R30,LOW(10)
	LDI  R31,HIGH(10)
	CALL __DIVW21
	MOV  R19,R30
; 0000 0026         dig2T = t % 10;
	MOV  R26,R17
	CLR  R27
	LDI  R30,LOW(10)
	LDI  R31,HIGH(10)
	CALL __MODW21
	MOV  R18,R30
; 0000 0027         dig1H = h / 10;
	MOV  R26,R16
	LDI  R27,0
	LDI  R30,LOW(10)
	LDI  R31,HIGH(10)
	CALL __DIVW21
	MOV  R21,R30
; 0000 0028         dig2H = h % 10;
	MOV  R26,R16
	CLR  R27
	LDI  R30,LOW(10)
	LDI  R31,HIGH(10)
	CALL __MODW21
	MOV  R20,R30
; 0000 0029         tm1637_display_all(dig1T,dig2T,38,36); // (degree = 38)  -  ("c" = 36) - ( ":" = colon)
	ST   -Y,R19
	ST   -Y,R18
	LDI  R30,LOW(38)
	ST   -Y,R30
	LDI  R26,LOW(36)
	CALL SUBOPT_0x4
; 0000 002A         delay_ms(2500);
; 0000 002B         tm1637_display_all(dig1H,dig2H,24,40); // ("r" = 24)  -  ("h" = 40) - ( ":" = colon)
	ST   -Y,R21
	ST   -Y,R20
	LDI  R30,LOW(24)
	ST   -Y,R30
	LDI  R26,LOW(40)
	CALL SUBOPT_0x4
; 0000 002C         delay_ms(2500);
; 0000 002D         }
_0x3A:
; 0000 002E       }
	RJMP _0x35
; 0000 002F }
_0x3B:
	RJMP _0x3B
; .FEND

	.DSEG
_0x39:
	.BYTE 0x15
	#ifndef __SLEEP_DEFINED__
	#define __SLEEP_DEFINED__
	.EQU __se_bit=0x40
	.EQU __sm_mask=0xB0
	.EQU __sm_powerdown=0x20
	.EQU __sm_powersave=0x30
	.EQU __sm_standby=0xA0
	.EQU __sm_ext_standby=0xB0
	.EQU __sm_adc_noise_red=0x10
	.SET power_ctrl_reg=mcucr
	#endif

	.CSEG

	.CSEG
_ftrunc:
; .FSTART _ftrunc
	CALL __PUTPARD2
   ldd  r23,y+3
   ldd  r22,y+2
   ldd  r31,y+1
   ld   r30,y
   bst  r23,7
   lsl  r23
   sbrc r22,7
   sbr  r23,1
   mov  r25,r23
   subi r25,0x7e
   breq __ftrunc0
   brcs __ftrunc0
   cpi  r25,24
   brsh __ftrunc1
   clr  r26
   clr  r27
   clr  r24
__ftrunc2:
   sec
   ror  r24
   ror  r27
   ror  r26
   dec  r25
   brne __ftrunc2
   and  r30,r26
   and  r31,r27
   and  r22,r24
   rjmp __ftrunc1
__ftrunc0:
   clt
   clr  r23
   clr  r30
   clr  r31
   clr  r22
__ftrunc1:
   cbr  r22,0x80
   lsr  r23
   brcc __ftrunc3
   sbr  r22,0x80
__ftrunc3:
   bld  r23,7
   ld   r26,y+
   ld   r27,y+
   ld   r24,y+
   ld   r25,y+
   cp   r30,r26
   cpc  r31,r27
   cpc  r22,r24
   cpc  r23,r25
   bst  r25,7
   ret
; .FEND
_ceil:
; .FSTART _ceil
	CALL __PUTPARD2
	CALL __GETD2S0
	CALL _ftrunc
	CALL __PUTD1S0
    brne __ceil1
__ceil0:
	CALL __GETD1S0
	RJMP _0x20C0002
__ceil1:
    brts __ceil0
	CALL __GETD1S0
	__GETD2N 0x3F800000
	CALL __ADDF12
	RJMP _0x20C0002
; .FEND

	.DSEG

	.CSEG
_Tm1637_table_str:
; .FSTART _Tm1637_table_str
	ST   -Y,R26
	ST   -Y,R17
	LDD  R30,Y+1
	LDI  R31,0
	CPI  R30,LOW(0x30)
	LDI  R26,HIGH(0x30)
	CPC  R31,R26
	BRNE _0x2040008
	LDI  R17,LOW(0)
	RJMP _0x2040007
_0x2040008:
	CPI  R30,LOW(0x31)
	LDI  R26,HIGH(0x31)
	CPC  R31,R26
	BRNE _0x2040009
	LDI  R17,LOW(1)
	RJMP _0x2040007
_0x2040009:
	CPI  R30,LOW(0x32)
	LDI  R26,HIGH(0x32)
	CPC  R31,R26
	BRNE _0x204000A
	LDI  R17,LOW(2)
	RJMP _0x2040007
_0x204000A:
	CPI  R30,LOW(0x33)
	LDI  R26,HIGH(0x33)
	CPC  R31,R26
	BRNE _0x204000B
	LDI  R17,LOW(3)
	RJMP _0x2040007
_0x204000B:
	CPI  R30,LOW(0x34)
	LDI  R26,HIGH(0x34)
	CPC  R31,R26
	BRNE _0x204000C
	LDI  R17,LOW(4)
	RJMP _0x2040007
_0x204000C:
	CPI  R30,LOW(0x35)
	LDI  R26,HIGH(0x35)
	CPC  R31,R26
	BRNE _0x204000D
	LDI  R17,LOW(5)
	RJMP _0x2040007
_0x204000D:
	CPI  R30,LOW(0x36)
	LDI  R26,HIGH(0x36)
	CPC  R31,R26
	BRNE _0x204000E
	LDI  R17,LOW(6)
	RJMP _0x2040007
_0x204000E:
	CPI  R30,LOW(0x37)
	LDI  R26,HIGH(0x37)
	CPC  R31,R26
	BRNE _0x204000F
	LDI  R17,LOW(7)
	RJMP _0x2040007
_0x204000F:
	CPI  R30,LOW(0x38)
	LDI  R26,HIGH(0x38)
	CPC  R31,R26
	BRNE _0x2040010
	LDI  R17,LOW(8)
	RJMP _0x2040007
_0x2040010:
	CPI  R30,LOW(0x39)
	LDI  R26,HIGH(0x39)
	CPC  R31,R26
	BRNE _0x2040011
	LDI  R17,LOW(9)
	RJMP _0x2040007
_0x2040011:
	CPI  R30,LOW(0x41)
	LDI  R26,HIGH(0x41)
	CPC  R31,R26
	BRNE _0x2040012
	LDI  R17,LOW(10)
	RJMP _0x2040007
_0x2040012:
	CPI  R30,LOW(0x61)
	LDI  R26,HIGH(0x61)
	CPC  R31,R26
	BRNE _0x2040013
	LDI  R17,LOW(34)
	RJMP _0x2040007
_0x2040013:
	CPI  R30,LOW(0x42)
	LDI  R26,HIGH(0x42)
	CPC  R31,R26
	BRNE _0x2040014
	LDI  R17,LOW(11)
	RJMP _0x2040007
_0x2040014:
	CPI  R30,LOW(0x62)
	LDI  R26,HIGH(0x62)
	CPC  R31,R26
	BRNE _0x2040015
	LDI  R17,LOW(11)
	RJMP _0x2040007
_0x2040015:
	CPI  R30,LOW(0x43)
	LDI  R26,HIGH(0x43)
	CPC  R31,R26
	BRNE _0x2040016
	LDI  R17,LOW(12)
	RJMP _0x2040007
_0x2040016:
	CPI  R30,LOW(0x63)
	LDI  R26,HIGH(0x63)
	CPC  R31,R26
	BRNE _0x2040017
	LDI  R17,LOW(36)
	RJMP _0x2040007
_0x2040017:
	CPI  R30,LOW(0x44)
	LDI  R26,HIGH(0x44)
	CPC  R31,R26
	BRNE _0x2040018
	LDI  R17,LOW(13)
	RJMP _0x2040007
_0x2040018:
	CPI  R30,LOW(0x64)
	LDI  R26,HIGH(0x64)
	CPC  R31,R26
	BRNE _0x2040019
	LDI  R17,LOW(13)
	RJMP _0x2040007
_0x2040019:
	CPI  R30,LOW(0x45)
	LDI  R26,HIGH(0x45)
	CPC  R31,R26
	BRNE _0x204001A
	LDI  R17,LOW(14)
	RJMP _0x2040007
_0x204001A:
	CPI  R30,LOW(0x46)
	LDI  R26,HIGH(0x46)
	CPC  R31,R26
	BRNE _0x204001B
	LDI  R17,LOW(15)
	RJMP _0x2040007
_0x204001B:
	CPI  R30,LOW(0x47)
	LDI  R26,HIGH(0x47)
	CPC  R31,R26
	BRNE _0x204001C
	LDI  R17,LOW(16)
	RJMP _0x2040007
_0x204001C:
	CPI  R30,LOW(0x48)
	LDI  R26,HIGH(0x48)
	CPC  R31,R26
	BRNE _0x204001D
	LDI  R17,LOW(17)
	RJMP _0x2040007
_0x204001D:
	CPI  R30,LOW(0x49)
	LDI  R26,HIGH(0x49)
	CPC  R31,R26
	BRNE _0x204001E
	LDI  R17,LOW(18)
	RJMP _0x2040007
_0x204001E:
	CPI  R30,LOW(0x4A)
	LDI  R26,HIGH(0x4A)
	CPC  R31,R26
	BRNE _0x204001F
	LDI  R17,LOW(19)
	RJMP _0x2040007
_0x204001F:
	CPI  R30,LOW(0x4C)
	LDI  R26,HIGH(0x4C)
	CPC  R31,R26
	BRNE _0x2040020
	LDI  R17,LOW(20)
	RJMP _0x2040007
_0x2040020:
	CPI  R30,LOW(0x55)
	LDI  R26,HIGH(0x55)
	CPC  R31,R26
	BRNE _0x2040021
	LDI  R17,LOW(27)
	RJMP _0x2040007
_0x2040021:
	CPI  R30,LOW(0x53)
	LDI  R26,HIGH(0x53)
	CPC  R31,R26
	BRNE _0x2040022
	LDI  R17,LOW(5)
	RJMP _0x2040007
_0x2040022:
	CPI  R30,LOW(0x79)
	LDI  R26,HIGH(0x79)
	CPC  R31,R26
	BRNE _0x2040023
	LDI  R17,LOW(37)
	RJMP _0x2040007
_0x2040023:
	CPI  R30,LOW(0x59)
	LDI  R26,HIGH(0x59)
	CPC  R31,R26
	BRNE _0x2040024
	LDI  R17,LOW(37)
	RJMP _0x2040007
_0x2040024:
	CPI  R30,LOW(0x6E)
	LDI  R26,HIGH(0x6E)
	CPC  R31,R26
	BRNE _0x2040025
	LDI  R17,LOW(21)
	RJMP _0x2040007
_0x2040025:
	CPI  R30,LOW(0x4F)
	LDI  R26,HIGH(0x4F)
	CPC  R31,R26
	BRNE _0x2040026
	LDI  R17,LOW(0)
	RJMP _0x2040007
_0x2040026:
	CPI  R30,LOW(0x6F)
	LDI  R26,HIGH(0x6F)
	CPC  R31,R26
	BRNE _0x2040027
	LDI  R17,LOW(22)
	RJMP _0x2040007
_0x2040027:
	CPI  R30,LOW(0x70)
	LDI  R26,HIGH(0x70)
	CPC  R31,R26
	BRNE _0x2040028
	LDI  R17,LOW(23)
	RJMP _0x2040007
_0x2040028:
	CPI  R30,LOW(0x71)
	LDI  R26,HIGH(0x71)
	CPC  R31,R26
	BRNE _0x2040029
	LDI  R17,LOW(35)
	RJMP _0x2040007
_0x2040029:
	CPI  R30,LOW(0x72)
	LDI  R26,HIGH(0x72)
	CPC  R31,R26
	BRNE _0x204002A
	LDI  R17,LOW(24)
	RJMP _0x2040007
_0x204002A:
	CPI  R30,LOW(0x74)
	LDI  R26,HIGH(0x74)
	CPC  R31,R26
	BRNE _0x204002B
	LDI  R17,LOW(26)
	RJMP _0x2040007
_0x204002B:
	CPI  R30,LOW(0x75)
	LDI  R26,HIGH(0x75)
	CPC  R31,R26
	BRNE _0x204002C
	LDI  R17,LOW(25)
	RJMP _0x2040007
_0x204002C:
	CPI  R30,LOW(0x65)
	LDI  R26,HIGH(0x65)
	CPC  R31,R26
	BRNE _0x204002D
	LDI  R17,LOW(33)
	RJMP _0x2040007
_0x204002D:
	CPI  R30,LOW(0x20)
	LDI  R26,HIGH(0x20)
	CPC  R31,R26
	BREQ _0x2040050
	CPI  R30,LOW(0x2D)
	LDI  R26,HIGH(0x2D)
	CPC  R31,R26
	BRNE _0x204002F
	LDI  R17,LOW(29)
	RJMP _0x2040007
_0x204002F:
	CPI  R30,LOW(0x5F)
	LDI  R26,HIGH(0x5F)
	CPC  R31,R26
	BRNE _0x2040030
	LDI  R17,LOW(30)
	RJMP _0x2040007
_0x2040030:
	CPI  R30,LOW(0x5D)
	LDI  R26,HIGH(0x5D)
	CPC  R31,R26
	BRNE _0x2040031
	LDI  R17,LOW(31)
	RJMP _0x2040007
_0x2040031:
	CPI  R30,LOW(0x5B)
	LDI  R26,HIGH(0x5B)
	CPC  R31,R26
	BRNE _0x2040032
	LDI  R17,LOW(32)
	RJMP _0x2040007
_0x2040032:
	CPI  R30,LOW(0x2A)
	LDI  R26,HIGH(0x2A)
	CPC  R31,R26
	BRNE _0x2040033
	LDI  R17,LOW(38)
	RJMP _0x2040007
_0x2040033:
	CPI  R30,LOW(0x6C)
	LDI  R26,HIGH(0x6C)
	CPC  R31,R26
	BRNE _0x2040034
	LDI  R17,LOW(39)
	RJMP _0x2040007
_0x2040034:
	CPI  R30,LOW(0x68)
	LDI  R26,HIGH(0x68)
	CPC  R31,R26
	BRNE _0x2040035
	LDI  R17,LOW(40)
	RJMP _0x2040007
_0x2040035:
	CPI  R30,LOW(0x69)
	LDI  R26,HIGH(0x69)
	CPC  R31,R26
	BRNE _0x2040037
	LDI  R17,LOW(41)
	RJMP _0x2040007
_0x2040037:
_0x2040050:
	LDI  R17,LOW(28)
_0x2040007:
	MOV  R30,R17
	RJMP _0x20C0001
; .FEND
_tm1637_init:
; .FSTART _tm1637_init
	ST   -Y,R17
	LDS  R30,__brightness
	ANDI R30,LOW(0x7)
	MOV  R17,R30
	CPI  R17,0
	BREQ _0x2040038
	ORI  R17,LOW(8)
_0x2040038:
	SUBI R17,-LOW(128)
	 SBI __tm1637_port-1,__clk_bit 
	 SBI __tm1637_port-1,__dio_bit 
	LDI  R30,LOW(0)
	ST   -Y,R30
	ST   -Y,R30
	ST   -Y,R30
	LDI  R26,LOW(0)
	RCALL _tm1637_display_all
	RCALL _I2CStart
	MOV  R26,R17
	RCALL _I2CWrByte
	RCALL _I2CStop
	LD   R17,Y+
	RET
; .FEND
_tm1637_display_all:
; .FSTART _tm1637_display_all
	ST   -Y,R26
	LDD  R30,Y+3
	CALL SUBOPT_0x5
	STD  Y+3,R0
	LDD  R30,Y+2
	CALL SUBOPT_0x5
	STD  Y+2,R0
	LDD  R30,Y+1
	CALL SUBOPT_0x5
	STD  Y+1,R0
	LD   R30,Y
	CALL SUBOPT_0x5
	ST   Y,R0
	LDS  R30,__point
	CPI  R30,0
	BREQ _0x2040039
	LDD  R30,Y+2
	ORI  R30,0x80
	STD  Y+2,R30
_0x2040039:
	RCALL _I2CStart
	LDI  R26,LOW(64)
	CALL SUBOPT_0x6
	RCALL _I2CStop
	RCALL _I2CStart
	LDI  R26,LOW(192)
	CALL SUBOPT_0x6
	LDD  R26,Y+3
	CALL SUBOPT_0x6
	LDD  R26,Y+2
	CALL SUBOPT_0x6
	LDD  R26,Y+1
	CALL SUBOPT_0x6
	LD   R26,Y
	CALL SUBOPT_0x6
	RCALL _I2CStop
_0x20C0002:
	ADIW R28,4
	RET
; .FEND
_tm1637_scroll:
; .FSTART _tm1637_scroll
	ST   -Y,R27
	ST   -Y,R26
	SBIW R28,4
	ST   -Y,R17
	ST   -Y,R16
	LDI  R17,0
	LDI  R16,0
	LDI  R17,LOW(0)
_0x2040046:
	LDD  R26,Y+6
	LDD  R27,Y+6+1
	CALL _strlen
	MOV  R26,R17
	LDI  R27,0
	CP   R30,R26
	CPC  R31,R27
	BRLO _0x2040047
	LDI  R16,LOW(0)
_0x2040049:
	CPI  R16,4
	BRSH _0x204004A
	MOV  R30,R16
	LDI  R31,0
	MOVW R26,R28
	ADIW R26,2
	ADD  R30,R26
	ADC  R31,R27
	PUSH R31
	PUSH R30
	MOV  R26,R16
	CLR  R27
	MOV  R30,R17
	LDI  R31,0
	ADD  R30,R26
	ADC  R31,R27
	LDD  R26,Y+6
	LDD  R27,Y+6+1
	ADD  R26,R30
	ADC  R27,R31
	LD   R26,X
	RCALL _Tm1637_table_str
	POP  R26
	POP  R27
	ST   X,R30
	SUBI R16,-1
	RJMP _0x2040049
_0x204004A:
	LDD  R30,Y+2
	ST   -Y,R30
	LDD  R30,Y+4
	ST   -Y,R30
	LDD  R30,Y+6
	ST   -Y,R30
	LDD  R26,Y+8
	RCALL _tm1637_display_all
	LDS  R26,__scrolldelay
	LDS  R27,__scrolldelay+1
	CALL _delay_ms
	SUBI R17,-1
	RJMP _0x2040046
_0x2040047:
	LDD  R17,Y+1
	LDD  R16,Y+0
	ADIW R28,8
	RET
; .FEND
_I2CStart:
; .FSTART _I2CStart
	 SBI __tm1637_port,__clk_bit 
	 SBI __tm1637_port,__dio_bit 
	__DELAY_USB 5
	 CBI __tm1637_port,__dio_bit 
	RET
; .FEND
_I2Cack:
; .FSTART _I2Cack
	 CBI __tm1637_port,__clk_bit 
	 CBI __tm1637_port,__dio_bit 
	 SBI __tm1637_port,__clk_bit 
	__DELAY_USB 5
	 CBI __tm1637_port,__clk_bit 
	RET
; .FEND
_I2CStop:
; .FSTART _I2CStop
	 CBI __tm1637_port,__clk_bit 
	__DELAY_USB 5
	 CBI __tm1637_port,__dio_bit 
	__DELAY_USB 5
	 SBI __tm1637_port,__clk_bit 
	__DELAY_USB 5
	 SBI __tm1637_port,__dio_bit 
	RET
; .FEND
_I2CWrByte:
; .FSTART _I2CWrByte
	ST   -Y,R26
	ST   -Y,R17
	LDI  R17,LOW(0)
_0x204004C:
	CPI  R17,8
	BRSH _0x204004D
	 CBI __tm1637_port,__clk_bit 
	LDD  R30,Y+1
	ANDI R30,LOW(0x1)
	BREQ _0x204004E
	 SBI __tm1637_port,__dio_bit 
	RJMP _0x204004F
_0x204004E:
	 CBI __tm1637_port,__dio_bit 
_0x204004F:
	__DELAY_USB 8
	LDD  R30,Y+1
	LSR  R30
	STD  Y+1,R30
	 SBI __tm1637_port,__clk_bit 
	__DELAY_USB 8
	SUBI R17,-1
	RJMP _0x204004C
_0x204004D:
_0x20C0001:
	LDD  R17,Y+0
	ADIW R28,2
	RET
; .FEND

	.CSEG

	.DSEG

	.CSEG

	.CSEG

	.CSEG
_strlen:
; .FSTART _strlen
	ST   -Y,R27
	ST   -Y,R26
    ld   r26,y+
    ld   r27,y+
    clr  r30
    clr  r31
strlen0:
    ld   r22,x+
    tst  r22
    breq strlen1
    adiw r30,1
    rjmp strlen0
strlen1:
    ret
; .FEND

	.DSEG
__point:
	.BYTE 0x1
__scrolldelay:
	.BYTE 0x2
__brightness:
	.BYTE 0x1
_str:
	.BYTE 0x17
__seed_G103:
	.BYTE 0x4

	.CSEG
;OPTIMIZER ADDED SUBROUTINE, CALLED 5 TIMES, CODE SIZE REDUCTION:9 WORDS
SUBOPT_0x0:
	__ADDWRN 16,17,1
	__DELAY_USB 5
	RET

;OPTIMIZER ADDED SUBROUTINE, CALLED 3 TIMES, CODE SIZE REDUCTION:5 WORDS
SUBOPT_0x1:
	MOVW R26,R28
	ADIW R26,13
	ADD  R26,R30
	ADC  R27,R31
	LD   R26,X
	CPI  R26,LOW(0xC)
	RET

;OPTIMIZER ADDED SUBROUTINE, CALLED 2 TIMES, CODE SIZE REDUCTION:3 WORDS
SUBOPT_0x2:
	LDI  R30,LOW(15)
	LDI  R31,HIGH(15)
	SUB  R30,R18
	SBC  R31,R19
	LDI  R26,LOW(1)
	LDI  R27,HIGH(1)
	CALL __LSLW12
	RET

;OPTIMIZER ADDED SUBROUTINE, CALLED 3 TIMES, CODE SIZE REDUCTION:17 WORDS
SUBOPT_0x3:
	CALL __CWD1
	CALL __CDF1
	MOVW R26,R30
	MOVW R24,R22
	__GETD1N 0x41200000
	CALL __DIVF21
	RET

;OPTIMIZER ADDED SUBROUTINE, CALLED 2 TIMES, CODE SIZE REDUCTION:1 WORDS
SUBOPT_0x4:
	CALL _tm1637_display_all
	LDI  R26,LOW(2500)
	LDI  R27,HIGH(2500)
	JMP  _delay_ms

;OPTIMIZER ADDED SUBROUTINE, CALLED 4 TIMES, CODE SIZE REDUCTION:3 WORDS
SUBOPT_0x5:
	LDI  R31,0
	SUBI R30,LOW(-_Table_7s*2)
	SBCI R31,HIGH(-_Table_7s*2)
	LPM  R0,Z
	RET

;OPTIMIZER ADDED SUBROUTINE, CALLED 6 TIMES, CODE SIZE REDUCTION:7 WORDS
SUBOPT_0x6:
	CALL _I2CWrByte
	JMP  _I2Cack


	.CSEG
_delay_ms:
	adiw r26,0
	breq __delay_ms1
__delay_ms0:
	wdr
	__DELAY_USW 0x7D0
	sbiw r26,1
	brne __delay_ms0
__delay_ms1:
	ret

__ROUND_REPACK:
	TST  R21
	BRPL __REPACK
	CPI  R21,0x80
	BRNE __ROUND_REPACK0
	SBRS R30,0
	RJMP __REPACK
__ROUND_REPACK0:
	ADIW R30,1
	ADC  R22,R25
	ADC  R23,R25
	BRVS __REPACK1

__REPACK:
	LDI  R21,0x80
	EOR  R21,R23
	BRNE __REPACK0
	PUSH R21
	RJMP __ZERORES
__REPACK0:
	CPI  R21,0xFF
	BREQ __REPACK1
	LSL  R22
	LSL  R0
	ROR  R21
	ROR  R22
	MOV  R23,R21
	RET
__REPACK1:
	PUSH R21
	TST  R0
	BRMI __REPACK2
	RJMP __MAXRES
__REPACK2:
	RJMP __MINRES

__UNPACK:
	LDI  R21,0x80
	MOV  R1,R25
	AND  R1,R21
	LSL  R24
	ROL  R25
	EOR  R25,R21
	LSL  R21
	ROR  R24

__UNPACK1:
	LDI  R21,0x80
	MOV  R0,R23
	AND  R0,R21
	LSL  R22
	ROL  R23
	EOR  R23,R21
	LSL  R21
	ROR  R22
	RET

__CFD1U:
	SET
	RJMP __CFD1U0
__CFD1:
	CLT
__CFD1U0:
	PUSH R21
	RCALL __UNPACK1
	CPI  R23,0x80
	BRLO __CFD10
	CPI  R23,0xFF
	BRCC __CFD10
	RJMP __ZERORES
__CFD10:
	LDI  R21,22
	SUB  R21,R23
	BRPL __CFD11
	NEG  R21
	CPI  R21,8
	BRTC __CFD19
	CPI  R21,9
__CFD19:
	BRLO __CFD17
	SER  R30
	SER  R31
	SER  R22
	LDI  R23,0x7F
	BLD  R23,7
	RJMP __CFD15
__CFD17:
	CLR  R23
	TST  R21
	BREQ __CFD15
__CFD18:
	LSL  R30
	ROL  R31
	ROL  R22
	ROL  R23
	DEC  R21
	BRNE __CFD18
	RJMP __CFD15
__CFD11:
	CLR  R23
__CFD12:
	CPI  R21,8
	BRLO __CFD13
	MOV  R30,R31
	MOV  R31,R22
	MOV  R22,R23
	SUBI R21,8
	RJMP __CFD12
__CFD13:
	TST  R21
	BREQ __CFD15
__CFD14:
	LSR  R23
	ROR  R22
	ROR  R31
	ROR  R30
	DEC  R21
	BRNE __CFD14
__CFD15:
	TST  R0
	BRPL __CFD16
	RCALL __ANEGD1
__CFD16:
	POP  R21
	RET

__CDF1U:
	SET
	RJMP __CDF1U0
__CDF1:
	CLT
__CDF1U0:
	SBIW R30,0
	SBCI R22,0
	SBCI R23,0
	BREQ __CDF10
	CLR  R0
	BRTS __CDF11
	TST  R23
	BRPL __CDF11
	COM  R0
	RCALL __ANEGD1
__CDF11:
	MOV  R1,R23
	LDI  R23,30
	TST  R1
__CDF12:
	BRMI __CDF13
	DEC  R23
	LSL  R30
	ROL  R31
	ROL  R22
	ROL  R1
	RJMP __CDF12
__CDF13:
	MOV  R30,R31
	MOV  R31,R22
	MOV  R22,R1
	PUSH R21
	RCALL __REPACK
	POP  R21
__CDF10:
	RET

__SWAPACC:
	PUSH R20
	MOVW R20,R30
	MOVW R30,R26
	MOVW R26,R20
	MOVW R20,R22
	MOVW R22,R24
	MOVW R24,R20
	MOV  R20,R0
	MOV  R0,R1
	MOV  R1,R20
	POP  R20
	RET

__UADD12:
	ADD  R30,R26
	ADC  R31,R27
	ADC  R22,R24
	RET

__NEGMAN1:
	COM  R30
	COM  R31
	COM  R22
	SUBI R30,-1
	SBCI R31,-1
	SBCI R22,-1
	RET

__ADDF12:
	PUSH R21
	RCALL __UNPACK
	CPI  R25,0x80
	BREQ __ADDF129

__ADDF120:
	CPI  R23,0x80
	BREQ __ADDF128
__ADDF121:
	MOV  R21,R23
	SUB  R21,R25
	BRVS __ADDF1211
	BRPL __ADDF122
	RCALL __SWAPACC
	RJMP __ADDF121
__ADDF122:
	CPI  R21,24
	BRLO __ADDF123
	CLR  R26
	CLR  R27
	CLR  R24
__ADDF123:
	CPI  R21,8
	BRLO __ADDF124
	MOV  R26,R27
	MOV  R27,R24
	CLR  R24
	SUBI R21,8
	RJMP __ADDF123
__ADDF124:
	TST  R21
	BREQ __ADDF126
__ADDF125:
	LSR  R24
	ROR  R27
	ROR  R26
	DEC  R21
	BRNE __ADDF125
__ADDF126:
	MOV  R21,R0
	EOR  R21,R1
	BRMI __ADDF127
	RCALL __UADD12
	BRCC __ADDF129
	ROR  R22
	ROR  R31
	ROR  R30
	INC  R23
	BRVC __ADDF129
	RJMP __MAXRES
__ADDF128:
	RCALL __SWAPACC
__ADDF129:
	RCALL __REPACK
	POP  R21
	RET
__ADDF1211:
	BRCC __ADDF128
	RJMP __ADDF129
__ADDF127:
	SUB  R30,R26
	SBC  R31,R27
	SBC  R22,R24
	BREQ __ZERORES
	BRCC __ADDF1210
	COM  R0
	RCALL __NEGMAN1
__ADDF1210:
	TST  R22
	BRMI __ADDF129
	LSL  R30
	ROL  R31
	ROL  R22
	DEC  R23
	BRVC __ADDF1210

__ZERORES:
	CLR  R30
	CLR  R31
	CLR  R22
	CLR  R23
	POP  R21
	RET

__MINRES:
	SER  R30
	SER  R31
	LDI  R22,0x7F
	SER  R23
	POP  R21
	RET

__MAXRES:
	SER  R30
	SER  R31
	LDI  R22,0x7F
	LDI  R23,0x7F
	POP  R21
	RET

__MULF12:
	PUSH R21
	RCALL __UNPACK
	CPI  R23,0x80
	BREQ __ZERORES
	CPI  R25,0x80
	BREQ __ZERORES
	EOR  R0,R1
	SEC
	ADC  R23,R25
	BRVC __MULF124
	BRLT __ZERORES
__MULF125:
	TST  R0
	BRMI __MINRES
	RJMP __MAXRES
__MULF124:
	PUSH R0
	PUSH R17
	PUSH R18
	PUSH R19
	PUSH R20
	CLR  R17
	CLR  R18
	CLR  R25
	MUL  R22,R24
	MOVW R20,R0
	MUL  R24,R31
	MOV  R19,R0
	ADD  R20,R1
	ADC  R21,R25
	MUL  R22,R27
	ADD  R19,R0
	ADC  R20,R1
	ADC  R21,R25
	MUL  R24,R30
	RCALL __MULF126
	MUL  R27,R31
	RCALL __MULF126
	MUL  R22,R26
	RCALL __MULF126
	MUL  R27,R30
	RCALL __MULF127
	MUL  R26,R31
	RCALL __MULF127
	MUL  R26,R30
	ADD  R17,R1
	ADC  R18,R25
	ADC  R19,R25
	ADC  R20,R25
	ADC  R21,R25
	MOV  R30,R19
	MOV  R31,R20
	MOV  R22,R21
	MOV  R21,R18
	POP  R20
	POP  R19
	POP  R18
	POP  R17
	POP  R0
	TST  R22
	BRMI __MULF122
	LSL  R21
	ROL  R30
	ROL  R31
	ROL  R22
	RJMP __MULF123
__MULF122:
	INC  R23
	BRVS __MULF125
__MULF123:
	RCALL __ROUND_REPACK
	POP  R21
	RET

__MULF127:
	ADD  R17,R0
	ADC  R18,R1
	ADC  R19,R25
	RJMP __MULF128
__MULF126:
	ADD  R18,R0
	ADC  R19,R1
__MULF128:
	ADC  R20,R25
	ADC  R21,R25
	RET

__DIVF21:
	PUSH R21
	RCALL __UNPACK
	CPI  R23,0x80
	BRNE __DIVF210
	TST  R1
__DIVF211:
	BRPL __DIVF219
	RJMP __MINRES
__DIVF219:
	RJMP __MAXRES
__DIVF210:
	CPI  R25,0x80
	BRNE __DIVF218
__DIVF217:
	RJMP __ZERORES
__DIVF218:
	EOR  R0,R1
	SEC
	SBC  R25,R23
	BRVC __DIVF216
	BRLT __DIVF217
	TST  R0
	RJMP __DIVF211
__DIVF216:
	MOV  R23,R25
	PUSH R17
	PUSH R18
	PUSH R19
	PUSH R20
	CLR  R1
	CLR  R17
	CLR  R18
	CLR  R19
	CLR  R20
	CLR  R21
	LDI  R25,32
__DIVF212:
	CP   R26,R30
	CPC  R27,R31
	CPC  R24,R22
	CPC  R20,R17
	BRLO __DIVF213
	SUB  R26,R30
	SBC  R27,R31
	SBC  R24,R22
	SBC  R20,R17
	SEC
	RJMP __DIVF214
__DIVF213:
	CLC
__DIVF214:
	ROL  R21
	ROL  R18
	ROL  R19
	ROL  R1
	ROL  R26
	ROL  R27
	ROL  R24
	ROL  R20
	DEC  R25
	BRNE __DIVF212
	MOVW R30,R18
	MOV  R22,R1
	POP  R20
	POP  R19
	POP  R18
	POP  R17
	TST  R22
	BRMI __DIVF215
	LSL  R21
	ROL  R30
	ROL  R31
	ROL  R22
	DEC  R23
	BRVS __DIVF217
__DIVF215:
	RCALL __ROUND_REPACK
	POP  R21
	RET

__ANEGW1:
	NEG  R31
	NEG  R30
	SBCI R31,0
	RET

__ANEGD1:
	COM  R31
	COM  R22
	COM  R23
	NEG  R30
	SBCI R31,-1
	SBCI R22,-1
	SBCI R23,-1
	RET

__LSLB12:
	TST  R30
	MOV  R0,R30
	MOV  R30,R26
	BREQ __LSLB12R
__LSLB12L:
	LSL  R30
	DEC  R0
	BRNE __LSLB12L
__LSLB12R:
	RET

__LSLW12:
	TST  R30
	MOV  R0,R30
	MOVW R30,R26
	BREQ __LSLW12R
__LSLW12L:
	LSL  R30
	ROL  R31
	DEC  R0
	BRNE __LSLW12L
__LSLW12R:
	RET

__ASRW8:
	MOV  R30,R31
	CLR  R31
	SBRC R30,7
	SER  R31
	RET

__CWD1:
	MOV  R22,R31
	ADD  R22,R22
	SBC  R22,R22
	MOV  R23,R22
	RET

__DIVW21U:
	CLR  R0
	CLR  R1
	LDI  R25,16
__DIVW21U1:
	LSL  R26
	ROL  R27
	ROL  R0
	ROL  R1
	SUB  R0,R30
	SBC  R1,R31
	BRCC __DIVW21U2
	ADD  R0,R30
	ADC  R1,R31
	RJMP __DIVW21U3
__DIVW21U2:
	SBR  R26,1
__DIVW21U3:
	DEC  R25
	BRNE __DIVW21U1
	MOVW R30,R26
	MOVW R26,R0
	RET

__DIVW21:
	RCALL __CHKSIGNW
	RCALL __DIVW21U
	BRTC __DIVW211
	RCALL __ANEGW1
__DIVW211:
	RET

__MODW21:
	CLT
	SBRS R27,7
	RJMP __MODW211
	COM  R26
	COM  R27
	ADIW R26,1
	SET
__MODW211:
	SBRC R31,7
	RCALL __ANEGW1
	RCALL __DIVW21U
	MOVW R30,R26
	BRTC __MODW212
	RCALL __ANEGW1
__MODW212:
	RET

__CHKSIGNW:
	CLT
	SBRS R31,7
	RJMP __CHKSW1
	RCALL __ANEGW1
	SET
__CHKSW1:
	SBRS R27,7
	RJMP __CHKSW2
	COM  R26
	COM  R27
	ADIW R26,1
	BLD  R0,0
	INC  R0
	BST  R0,0
__CHKSW2:
	RET

__PUTDP1:
	ST   X+,R30
	ST   X+,R31
	ST   X+,R22
	ST   X,R23
	RET

__GETD1S0:
	LD   R30,Y
	LDD  R31,Y+1
	LDD  R22,Y+2
	LDD  R23,Y+3
	RET

__GETD2S0:
	LD   R26,Y
	LDD  R27,Y+1
	LDD  R24,Y+2
	LDD  R25,Y+3
	RET

__PUTD1S0:
	ST   Y,R30
	STD  Y+1,R31
	STD  Y+2,R22
	STD  Y+3,R23
	RET

__PUTPARD2:
	ST   -Y,R25
	ST   -Y,R24
	ST   -Y,R27
	ST   -Y,R26
	RET

__SAVELOCR6:
	ST   -Y,R21
__SAVELOCR5:
	ST   -Y,R20
__SAVELOCR4:
	ST   -Y,R19
__SAVELOCR3:
	ST   -Y,R18
__SAVELOCR2:
	ST   -Y,R17
	ST   -Y,R16
	RET

__LOADLOCR6:
	LDD  R21,Y+5
__LOADLOCR5:
	LDD  R20,Y+4
__LOADLOCR4:
	LDD  R19,Y+3
__LOADLOCR3:
	LDD  R18,Y+2
__LOADLOCR2:
	LDD  R17,Y+1
	LD   R16,Y
	RET

;END OF CODE MARKER
__END_OF_CODE:
