
;CodeVisionAVR C Compiler V3.12 Advanced
;(C) Copyright 1998-2014 Pavel Haiduc, HP InfoTech s.r.l.
;http://www.hpinfotech.com

;Build configuration    : Debug
;Chip type              : ATmega32A
;Program type           : Application
;Clock frequency        : 11.059200 MHz
;Memory model           : Small
;Optimize for           : Size
;(s)printf features     : int, width
;(s)scanf features      : int, width
;External RAM size      : 0
;Data Stack size        : 512 byte(s)
;Heap size              : 0 byte(s)
;Promote 'char' to 'int': Yes
;'char' is unsigned     : Yes
;8 bit enums            : Yes
;Global 'const' stored in FLASH: Yes
;Enhanced function parameter passing: Yes
;Enhanced core instructions: On
;Automatic register allocation for global variables: On
;Smart register allocation: On

	#define _MODEL_SMALL_

	#pragma AVRPART ADMIN PART_NAME ATmega32A
	#pragma AVRPART MEMORY PROG_FLASH 32768
	#pragma AVRPART MEMORY EEPROM 1024
	#pragma AVRPART MEMORY INT_SRAM SIZE 2048
	#pragma AVRPART MEMORY INT_SRAM START_ADDR 0x60

	#define CALL_SUPPORTED 1

	.LISTMAC
	.EQU UDRE=0x5
	.EQU RXC=0x7
	.EQU USR=0xB
	.EQU UDR=0xC
	.EQU SPSR=0xE
	.EQU SPDR=0xF
	.EQU EERE=0x0
	.EQU EEWE=0x1
	.EQU EEMWE=0x2
	.EQU EECR=0x1C
	.EQU EEDR=0x1D
	.EQU EEARL=0x1E
	.EQU EEARH=0x1F
	.EQU WDTCR=0x21
	.EQU MCUCR=0x35
	.EQU SPL=0x3D
	.EQU SPH=0x3E
	.EQU SREG=0x3F

	.DEF R0X0=R0
	.DEF R0X1=R1
	.DEF R0X2=R2
	.DEF R0X3=R3
	.DEF R0X4=R4
	.DEF R0X5=R5
	.DEF R0X6=R6
	.DEF R0X7=R7
	.DEF R0X8=R8
	.DEF R0X9=R9
	.DEF R0XA=R10
	.DEF R0XB=R11
	.DEF R0XC=R12
	.DEF R0XD=R13
	.DEF R0XE=R14
	.DEF R0XF=R15
	.DEF R0X10=R16
	.DEF R0X11=R17
	.DEF R0X12=R18
	.DEF R0X13=R19
	.DEF R0X14=R20
	.DEF R0X15=R21
	.DEF R0X16=R22
	.DEF R0X17=R23
	.DEF R0X18=R24
	.DEF R0X19=R25
	.DEF R0X1A=R26
	.DEF R0X1B=R27
	.DEF R0X1C=R28
	.DEF R0X1D=R29
	.DEF R0X1E=R30
	.DEF R0X1F=R31

	.EQU __SRAM_START=0x0060
	.EQU __SRAM_END=0x085F
	.EQU __DSTACK_SIZE=0x0200
	.EQU __HEAP_SIZE=0x0000
	.EQU __CLEAR_SRAM_SIZE=__SRAM_END-__SRAM_START+1

	.MACRO __CPD1N
	CPI  R30,LOW(@0)
	LDI  R26,HIGH(@0)
	CPC  R31,R26
	LDI  R26,BYTE3(@0)
	CPC  R22,R26
	LDI  R26,BYTE4(@0)
	CPC  R23,R26
	.ENDM

	.MACRO __CPD2N
	CPI  R26,LOW(@0)
	LDI  R30,HIGH(@0)
	CPC  R27,R30
	LDI  R30,BYTE3(@0)
	CPC  R24,R30
	LDI  R30,BYTE4(@0)
	CPC  R25,R30
	.ENDM

	.MACRO __CPWRR
	CP   R@0,R@2
	CPC  R@1,R@3
	.ENDM

	.MACRO __CPWRN
	CPI  R@0,LOW(@2)
	LDI  R30,HIGH(@2)
	CPC  R@1,R30
	.ENDM

	.MACRO __ADDB1MN
	SUBI R30,LOW(-@0-(@1))
	.ENDM

	.MACRO __ADDB2MN
	SUBI R26,LOW(-@0-(@1))
	.ENDM

	.MACRO __ADDW1MN
	SUBI R30,LOW(-@0-(@1))
	SBCI R31,HIGH(-@0-(@1))
	.ENDM

	.MACRO __ADDW2MN
	SUBI R26,LOW(-@0-(@1))
	SBCI R27,HIGH(-@0-(@1))
	.ENDM

	.MACRO __ADDW1FN
	SUBI R30,LOW(-2*@0-(@1))
	SBCI R31,HIGH(-2*@0-(@1))
	.ENDM

	.MACRO __ADDD1FN
	SUBI R30,LOW(-2*@0-(@1))
	SBCI R31,HIGH(-2*@0-(@1))
	SBCI R22,BYTE3(-2*@0-(@1))
	.ENDM

	.MACRO __ADDD1N
	SUBI R30,LOW(-@0)
	SBCI R31,HIGH(-@0)
	SBCI R22,BYTE3(-@0)
	SBCI R23,BYTE4(-@0)
	.ENDM

	.MACRO __ADDD2N
	SUBI R26,LOW(-@0)
	SBCI R27,HIGH(-@0)
	SBCI R24,BYTE3(-@0)
	SBCI R25,BYTE4(-@0)
	.ENDM

	.MACRO __SUBD1N
	SUBI R30,LOW(@0)
	SBCI R31,HIGH(@0)
	SBCI R22,BYTE3(@0)
	SBCI R23,BYTE4(@0)
	.ENDM

	.MACRO __SUBD2N
	SUBI R26,LOW(@0)
	SBCI R27,HIGH(@0)
	SBCI R24,BYTE3(@0)
	SBCI R25,BYTE4(@0)
	.ENDM

	.MACRO __ANDBMNN
	LDS  R30,@0+(@1)
	ANDI R30,LOW(@2)
	STS  @0+(@1),R30
	.ENDM

	.MACRO __ANDWMNN
	LDS  R30,@0+(@1)
	ANDI R30,LOW(@2)
	STS  @0+(@1),R30
	LDS  R30,@0+(@1)+1
	ANDI R30,HIGH(@2)
	STS  @0+(@1)+1,R30
	.ENDM

	.MACRO __ANDD1N
	ANDI R30,LOW(@0)
	ANDI R31,HIGH(@0)
	ANDI R22,BYTE3(@0)
	ANDI R23,BYTE4(@0)
	.ENDM

	.MACRO __ANDD2N
	ANDI R26,LOW(@0)
	ANDI R27,HIGH(@0)
	ANDI R24,BYTE3(@0)
	ANDI R25,BYTE4(@0)
	.ENDM

	.MACRO __ORBMNN
	LDS  R30,@0+(@1)
	ORI  R30,LOW(@2)
	STS  @0+(@1),R30
	.ENDM

	.MACRO __ORWMNN
	LDS  R30,@0+(@1)
	ORI  R30,LOW(@2)
	STS  @0+(@1),R30
	LDS  R30,@0+(@1)+1
	ORI  R30,HIGH(@2)
	STS  @0+(@1)+1,R30
	.ENDM

	.MACRO __ORD1N
	ORI  R30,LOW(@0)
	ORI  R31,HIGH(@0)
	ORI  R22,BYTE3(@0)
	ORI  R23,BYTE4(@0)
	.ENDM

	.MACRO __ORD2N
	ORI  R26,LOW(@0)
	ORI  R27,HIGH(@0)
	ORI  R24,BYTE3(@0)
	ORI  R25,BYTE4(@0)
	.ENDM

	.MACRO __DELAY_USB
	LDI  R24,LOW(@0)
__DELAY_USB_LOOP:
	DEC  R24
	BRNE __DELAY_USB_LOOP
	.ENDM

	.MACRO __DELAY_USW
	LDI  R24,LOW(@0)
	LDI  R25,HIGH(@0)
__DELAY_USW_LOOP:
	SBIW R24,1
	BRNE __DELAY_USW_LOOP
	.ENDM

	.MACRO __GETD1S
	LDD  R30,Y+@0
	LDD  R31,Y+@0+1
	LDD  R22,Y+@0+2
	LDD  R23,Y+@0+3
	.ENDM

	.MACRO __GETD2S
	LDD  R26,Y+@0
	LDD  R27,Y+@0+1
	LDD  R24,Y+@0+2
	LDD  R25,Y+@0+3
	.ENDM

	.MACRO __PUTD1S
	STD  Y+@0,R30
	STD  Y+@0+1,R31
	STD  Y+@0+2,R22
	STD  Y+@0+3,R23
	.ENDM

	.MACRO __PUTD2S
	STD  Y+@0,R26
	STD  Y+@0+1,R27
	STD  Y+@0+2,R24
	STD  Y+@0+3,R25
	.ENDM

	.MACRO __PUTDZ2
	STD  Z+@0,R26
	STD  Z+@0+1,R27
	STD  Z+@0+2,R24
	STD  Z+@0+3,R25
	.ENDM

	.MACRO __CLRD1S
	STD  Y+@0,R30
	STD  Y+@0+1,R30
	STD  Y+@0+2,R30
	STD  Y+@0+3,R30
	.ENDM

	.MACRO __POINTB1MN
	LDI  R30,LOW(@0+(@1))
	.ENDM

	.MACRO __POINTW1MN
	LDI  R30,LOW(@0+(@1))
	LDI  R31,HIGH(@0+(@1))
	.ENDM

	.MACRO __POINTD1M
	LDI  R30,LOW(@0)
	LDI  R31,HIGH(@0)
	LDI  R22,BYTE3(@0)
	LDI  R23,BYTE4(@0)
	.ENDM

	.MACRO __POINTW1FN
	LDI  R30,LOW(2*@0+(@1))
	LDI  R31,HIGH(2*@0+(@1))
	.ENDM

	.MACRO __POINTD1FN
	LDI  R30,LOW(2*@0+(@1))
	LDI  R31,HIGH(2*@0+(@1))
	LDI  R22,BYTE3(2*@0+(@1))
	LDI  R23,BYTE4(2*@0+(@1))
	.ENDM

	.MACRO __POINTB2MN
	LDI  R26,LOW(@0+(@1))
	.ENDM

	.MACRO __POINTW2MN
	LDI  R26,LOW(@0+(@1))
	LDI  R27,HIGH(@0+(@1))
	.ENDM

	.MACRO __POINTW2FN
	LDI  R26,LOW(2*@0+(@1))
	LDI  R27,HIGH(2*@0+(@1))
	.ENDM

	.MACRO __POINTD2FN
	LDI  R26,LOW(2*@0+(@1))
	LDI  R27,HIGH(2*@0+(@1))
	LDI  R24,BYTE3(2*@0+(@1))
	LDI  R25,BYTE4(2*@0+(@1))
	.ENDM

	.MACRO __POINTBRM
	LDI  R@0,LOW(@1)
	.ENDM

	.MACRO __POINTWRM
	LDI  R@0,LOW(@2)
	LDI  R@1,HIGH(@2)
	.ENDM

	.MACRO __POINTBRMN
	LDI  R@0,LOW(@1+(@2))
	.ENDM

	.MACRO __POINTWRMN
	LDI  R@0,LOW(@2+(@3))
	LDI  R@1,HIGH(@2+(@3))
	.ENDM

	.MACRO __POINTWRFN
	LDI  R@0,LOW(@2*2+(@3))
	LDI  R@1,HIGH(@2*2+(@3))
	.ENDM

	.MACRO __GETD1N
	LDI  R30,LOW(@0)
	LDI  R31,HIGH(@0)
	LDI  R22,BYTE3(@0)
	LDI  R23,BYTE4(@0)
	.ENDM

	.MACRO __GETD2N
	LDI  R26,LOW(@0)
	LDI  R27,HIGH(@0)
	LDI  R24,BYTE3(@0)
	LDI  R25,BYTE4(@0)
	.ENDM

	.MACRO __GETB1MN
	LDS  R30,@0+(@1)
	.ENDM

	.MACRO __GETB1HMN
	LDS  R31,@0+(@1)
	.ENDM

	.MACRO __GETW1MN
	LDS  R30,@0+(@1)
	LDS  R31,@0+(@1)+1
	.ENDM

	.MACRO __GETD1MN
	LDS  R30,@0+(@1)
	LDS  R31,@0+(@1)+1
	LDS  R22,@0+(@1)+2
	LDS  R23,@0+(@1)+3
	.ENDM

	.MACRO __GETBRMN
	LDS  R@0,@1+(@2)
	.ENDM

	.MACRO __GETWRMN
	LDS  R@0,@2+(@3)
	LDS  R@1,@2+(@3)+1
	.ENDM

	.MACRO __GETWRZ
	LDD  R@0,Z+@2
	LDD  R@1,Z+@2+1
	.ENDM

	.MACRO __GETD2Z
	LDD  R26,Z+@0
	LDD  R27,Z+@0+1
	LDD  R24,Z+@0+2
	LDD  R25,Z+@0+3
	.ENDM

	.MACRO __GETB2MN
	LDS  R26,@0+(@1)
	.ENDM

	.MACRO __GETW2MN
	LDS  R26,@0+(@1)
	LDS  R27,@0+(@1)+1
	.ENDM

	.MACRO __GETD2MN
	LDS  R26,@0+(@1)
	LDS  R27,@0+(@1)+1
	LDS  R24,@0+(@1)+2
	LDS  R25,@0+(@1)+3
	.ENDM

	.MACRO __PUTB1MN
	STS  @0+(@1),R30
	.ENDM

	.MACRO __PUTW1MN
	STS  @0+(@1),R30
	STS  @0+(@1)+1,R31
	.ENDM

	.MACRO __PUTD1MN
	STS  @0+(@1),R30
	STS  @0+(@1)+1,R31
	STS  @0+(@1)+2,R22
	STS  @0+(@1)+3,R23
	.ENDM

	.MACRO __PUTB1EN
	LDI  R26,LOW(@0+(@1))
	LDI  R27,HIGH(@0+(@1))
	CALL __EEPROMWRB
	.ENDM

	.MACRO __PUTW1EN
	LDI  R26,LOW(@0+(@1))
	LDI  R27,HIGH(@0+(@1))
	CALL __EEPROMWRW
	.ENDM

	.MACRO __PUTD1EN
	LDI  R26,LOW(@0+(@1))
	LDI  R27,HIGH(@0+(@1))
	CALL __EEPROMWRD
	.ENDM

	.MACRO __PUTBR0MN
	STS  @0+(@1),R0
	.ENDM

	.MACRO __PUTBMRN
	STS  @0+(@1),R@2
	.ENDM

	.MACRO __PUTWMRN
	STS  @0+(@1),R@2
	STS  @0+(@1)+1,R@3
	.ENDM

	.MACRO __PUTBZR
	STD  Z+@1,R@0
	.ENDM

	.MACRO __PUTWZR
	STD  Z+@2,R@0
	STD  Z+@2+1,R@1
	.ENDM

	.MACRO __GETW1R
	MOV  R30,R@0
	MOV  R31,R@1
	.ENDM

	.MACRO __GETW2R
	MOV  R26,R@0
	MOV  R27,R@1
	.ENDM

	.MACRO __GETWRN
	LDI  R@0,LOW(@2)
	LDI  R@1,HIGH(@2)
	.ENDM

	.MACRO __PUTW1R
	MOV  R@0,R30
	MOV  R@1,R31
	.ENDM

	.MACRO __PUTW2R
	MOV  R@0,R26
	MOV  R@1,R27
	.ENDM

	.MACRO __ADDWRN
	SUBI R@0,LOW(-@2)
	SBCI R@1,HIGH(-@2)
	.ENDM

	.MACRO __ADDWRR
	ADD  R@0,R@2
	ADC  R@1,R@3
	.ENDM

	.MACRO __SUBWRN
	SUBI R@0,LOW(@2)
	SBCI R@1,HIGH(@2)
	.ENDM

	.MACRO __SUBWRR
	SUB  R@0,R@2
	SBC  R@1,R@3
	.ENDM

	.MACRO __ANDWRN
	ANDI R@0,LOW(@2)
	ANDI R@1,HIGH(@2)
	.ENDM

	.MACRO __ANDWRR
	AND  R@0,R@2
	AND  R@1,R@3
	.ENDM

	.MACRO __ORWRN
	ORI  R@0,LOW(@2)
	ORI  R@1,HIGH(@2)
	.ENDM

	.MACRO __ORWRR
	OR   R@0,R@2
	OR   R@1,R@3
	.ENDM

	.MACRO __EORWRR
	EOR  R@0,R@2
	EOR  R@1,R@3
	.ENDM

	.MACRO __GETWRS
	LDD  R@0,Y+@2
	LDD  R@1,Y+@2+1
	.ENDM

	.MACRO __PUTBSR
	STD  Y+@1,R@0
	.ENDM

	.MACRO __PUTWSR
	STD  Y+@2,R@0
	STD  Y+@2+1,R@1
	.ENDM

	.MACRO __MOVEWRR
	MOV  R@0,R@2
	MOV  R@1,R@3
	.ENDM

	.MACRO __INWR
	IN   R@0,@2
	IN   R@1,@2+1
	.ENDM

	.MACRO __OUTWR
	OUT  @2+1,R@1
	OUT  @2,R@0
	.ENDM

	.MACRO __CALL1MN
	LDS  R30,@0+(@1)
	LDS  R31,@0+(@1)+1
	ICALL
	.ENDM

	.MACRO __CALL1FN
	LDI  R30,LOW(2*@0+(@1))
	LDI  R31,HIGH(2*@0+(@1))
	CALL __GETW1PF
	ICALL
	.ENDM

	.MACRO __CALL2EN
	PUSH R26
	PUSH R27
	LDI  R26,LOW(@0+(@1))
	LDI  R27,HIGH(@0+(@1))
	CALL __EEPROMRDW
	POP  R27
	POP  R26
	ICALL
	.ENDM

	.MACRO __CALL2EX
	SUBI R26,LOW(-@0)
	SBCI R27,HIGH(-@0)
	CALL __EEPROMRDD
	ICALL
	.ENDM

	.MACRO __GETW1STACK
	IN   R30,SPL
	IN   R31,SPH
	ADIW R30,@0+1
	LD   R0,Z+
	LD   R31,Z
	MOV  R30,R0
	.ENDM

	.MACRO __GETD1STACK
	IN   R30,SPL
	IN   R31,SPH
	ADIW R30,@0+1
	LD   R0,Z+
	LD   R1,Z+
	LD   R22,Z
	MOVW R30,R0
	.ENDM

	.MACRO __NBST
	BST  R@0,@1
	IN   R30,SREG
	LDI  R31,0x40
	EOR  R30,R31
	OUT  SREG,R30
	.ENDM


	.MACRO __PUTB1SN
	LDD  R26,Y+@0
	LDD  R27,Y+@0+1
	SUBI R26,LOW(-@1)
	SBCI R27,HIGH(-@1)
	ST   X,R30
	.ENDM

	.MACRO __PUTW1SN
	LDD  R26,Y+@0
	LDD  R27,Y+@0+1
	SUBI R26,LOW(-@1)
	SBCI R27,HIGH(-@1)
	ST   X+,R30
	ST   X,R31
	.ENDM

	.MACRO __PUTD1SN
	LDD  R26,Y+@0
	LDD  R27,Y+@0+1
	SUBI R26,LOW(-@1)
	SBCI R27,HIGH(-@1)
	CALL __PUTDP1
	.ENDM

	.MACRO __PUTB1SNS
	LDD  R26,Y+@0
	LDD  R27,Y+@0+1
	ADIW R26,@1
	ST   X,R30
	.ENDM

	.MACRO __PUTW1SNS
	LDD  R26,Y+@0
	LDD  R27,Y+@0+1
	ADIW R26,@1
	ST   X+,R30
	ST   X,R31
	.ENDM

	.MACRO __PUTD1SNS
	LDD  R26,Y+@0
	LDD  R27,Y+@0+1
	ADIW R26,@1
	CALL __PUTDP1
	.ENDM

	.MACRO __PUTB1PMN
	LDS  R26,@0
	LDS  R27,@0+1
	SUBI R26,LOW(-@1)
	SBCI R27,HIGH(-@1)
	ST   X,R30
	.ENDM

	.MACRO __PUTW1PMN
	LDS  R26,@0
	LDS  R27,@0+1
	SUBI R26,LOW(-@1)
	SBCI R27,HIGH(-@1)
	ST   X+,R30
	ST   X,R31
	.ENDM

	.MACRO __PUTD1PMN
	LDS  R26,@0
	LDS  R27,@0+1
	SUBI R26,LOW(-@1)
	SBCI R27,HIGH(-@1)
	CALL __PUTDP1
	.ENDM

	.MACRO __PUTB1PMNS
	LDS  R26,@0
	LDS  R27,@0+1
	ADIW R26,@1
	ST   X,R30
	.ENDM

	.MACRO __PUTW1PMNS
	LDS  R26,@0
	LDS  R27,@0+1
	ADIW R26,@1
	ST   X+,R30
	ST   X,R31
	.ENDM

	.MACRO __PUTD1PMNS
	LDS  R26,@0
	LDS  R27,@0+1
	ADIW R26,@1
	CALL __PUTDP1
	.ENDM

	.MACRO __PUTB1RN
	MOVW R26,R@0
	SUBI R26,LOW(-@1)
	SBCI R27,HIGH(-@1)
	ST   X,R30
	.ENDM

	.MACRO __PUTW1RN
	MOVW R26,R@0
	SUBI R26,LOW(-@1)
	SBCI R27,HIGH(-@1)
	ST   X+,R30
	ST   X,R31
	.ENDM

	.MACRO __PUTD1RN
	MOVW R26,R@0
	SUBI R26,LOW(-@1)
	SBCI R27,HIGH(-@1)
	CALL __PUTDP1
	.ENDM

	.MACRO __PUTB1RNS
	MOVW R26,R@0
	ADIW R26,@1
	ST   X,R30
	.ENDM

	.MACRO __PUTW1RNS
	MOVW R26,R@0
	ADIW R26,@1
	ST   X+,R30
	ST   X,R31
	.ENDM

	.MACRO __PUTD1RNS
	MOVW R26,R@0
	ADIW R26,@1
	CALL __PUTDP1
	.ENDM

	.MACRO __PUTB1RON
	MOV  R26,R@0
	MOV  R27,R@1
	SUBI R26,LOW(-@2)
	SBCI R27,HIGH(-@2)
	ST   X,R30
	.ENDM

	.MACRO __PUTW1RON
	MOV  R26,R@0
	MOV  R27,R@1
	SUBI R26,LOW(-@2)
	SBCI R27,HIGH(-@2)
	ST   X+,R30
	ST   X,R31
	.ENDM

	.MACRO __PUTD1RON
	MOV  R26,R@0
	MOV  R27,R@1
	SUBI R26,LOW(-@2)
	SBCI R27,HIGH(-@2)
	CALL __PUTDP1
	.ENDM

	.MACRO __PUTB1RONS
	MOV  R26,R@0
	MOV  R27,R@1
	ADIW R26,@2
	ST   X,R30
	.ENDM

	.MACRO __PUTW1RONS
	MOV  R26,R@0
	MOV  R27,R@1
	ADIW R26,@2
	ST   X+,R30
	ST   X,R31
	.ENDM

	.MACRO __PUTD1RONS
	MOV  R26,R@0
	MOV  R27,R@1
	ADIW R26,@2
	CALL __PUTDP1
	.ENDM


	.MACRO __GETB1SX
	MOVW R30,R28
	SUBI R30,LOW(-@0)
	SBCI R31,HIGH(-@0)
	LD   R30,Z
	.ENDM

	.MACRO __GETB1HSX
	MOVW R30,R28
	SUBI R30,LOW(-@0)
	SBCI R31,HIGH(-@0)
	LD   R31,Z
	.ENDM

	.MACRO __GETW1SX
	MOVW R30,R28
	SUBI R30,LOW(-@0)
	SBCI R31,HIGH(-@0)
	LD   R0,Z+
	LD   R31,Z
	MOV  R30,R0
	.ENDM

	.MACRO __GETD1SX
	MOVW R30,R28
	SUBI R30,LOW(-@0)
	SBCI R31,HIGH(-@0)
	LD   R0,Z+
	LD   R1,Z+
	LD   R22,Z+
	LD   R23,Z
	MOVW R30,R0
	.ENDM

	.MACRO __GETB2SX
	MOVW R26,R28
	SUBI R26,LOW(-@0)
	SBCI R27,HIGH(-@0)
	LD   R26,X
	.ENDM

	.MACRO __GETW2SX
	MOVW R26,R28
	SUBI R26,LOW(-@0)
	SBCI R27,HIGH(-@0)
	LD   R0,X+
	LD   R27,X
	MOV  R26,R0
	.ENDM

	.MACRO __GETD2SX
	MOVW R26,R28
	SUBI R26,LOW(-@0)
	SBCI R27,HIGH(-@0)
	LD   R0,X+
	LD   R1,X+
	LD   R24,X+
	LD   R25,X
	MOVW R26,R0
	.ENDM

	.MACRO __GETBRSX
	MOVW R30,R28
	SUBI R30,LOW(-@1)
	SBCI R31,HIGH(-@1)
	LD   R@0,Z
	.ENDM

	.MACRO __GETWRSX
	MOVW R30,R28
	SUBI R30,LOW(-@2)
	SBCI R31,HIGH(-@2)
	LD   R@0,Z+
	LD   R@1,Z
	.ENDM

	.MACRO __GETBRSX2
	MOVW R26,R28
	SUBI R26,LOW(-@1)
	SBCI R27,HIGH(-@1)
	LD   R@0,X
	.ENDM

	.MACRO __GETWRSX2
	MOVW R26,R28
	SUBI R26,LOW(-@2)
	SBCI R27,HIGH(-@2)
	LD   R@0,X+
	LD   R@1,X
	.ENDM

	.MACRO __LSLW8SX
	MOVW R30,R28
	SUBI R30,LOW(-@0)
	SBCI R31,HIGH(-@0)
	LD   R31,Z
	CLR  R30
	.ENDM

	.MACRO __PUTB1SX
	MOVW R26,R28
	SUBI R26,LOW(-@0)
	SBCI R27,HIGH(-@0)
	ST   X,R30
	.ENDM

	.MACRO __PUTW1SX
	MOVW R26,R28
	SUBI R26,LOW(-@0)
	SBCI R27,HIGH(-@0)
	ST   X+,R30
	ST   X,R31
	.ENDM

	.MACRO __PUTD1SX
	MOVW R26,R28
	SUBI R26,LOW(-@0)
	SBCI R27,HIGH(-@0)
	ST   X+,R30
	ST   X+,R31
	ST   X+,R22
	ST   X,R23
	.ENDM

	.MACRO __CLRW1SX
	MOVW R26,R28
	SUBI R26,LOW(-@0)
	SBCI R27,HIGH(-@0)
	ST   X+,R30
	ST   X,R30
	.ENDM

	.MACRO __CLRD1SX
	MOVW R26,R28
	SUBI R26,LOW(-@0)
	SBCI R27,HIGH(-@0)
	ST   X+,R30
	ST   X+,R30
	ST   X+,R30
	ST   X,R30
	.ENDM

	.MACRO __PUTB2SX
	MOVW R30,R28
	SUBI R30,LOW(-@0)
	SBCI R31,HIGH(-@0)
	ST   Z,R26
	.ENDM

	.MACRO __PUTW2SX
	MOVW R30,R28
	SUBI R30,LOW(-@0)
	SBCI R31,HIGH(-@0)
	ST   Z+,R26
	ST   Z,R27
	.ENDM

	.MACRO __PUTD2SX
	MOVW R30,R28
	SUBI R30,LOW(-@0)
	SBCI R31,HIGH(-@0)
	ST   Z+,R26
	ST   Z+,R27
	ST   Z+,R24
	ST   Z,R25
	.ENDM

	.MACRO __PUTBSRX
	MOVW R30,R28
	SUBI R30,LOW(-@1)
	SBCI R31,HIGH(-@1)
	ST   Z,R@0
	.ENDM

	.MACRO __PUTWSRX
	MOVW R30,R28
	SUBI R30,LOW(-@2)
	SBCI R31,HIGH(-@2)
	ST   Z+,R@0
	ST   Z,R@1
	.ENDM

	.MACRO __PUTB1SNX
	MOVW R26,R28
	SUBI R26,LOW(-@0)
	SBCI R27,HIGH(-@0)
	LD   R0,X+
	LD   R27,X
	MOV  R26,R0
	SUBI R26,LOW(-@1)
	SBCI R27,HIGH(-@1)
	ST   X,R30
	.ENDM

	.MACRO __PUTW1SNX
	MOVW R26,R28
	SUBI R26,LOW(-@0)
	SBCI R27,HIGH(-@0)
	LD   R0,X+
	LD   R27,X
	MOV  R26,R0
	SUBI R26,LOW(-@1)
	SBCI R27,HIGH(-@1)
	ST   X+,R30
	ST   X,R31
	.ENDM

	.MACRO __PUTD1SNX
	MOVW R26,R28
	SUBI R26,LOW(-@0)
	SBCI R27,HIGH(-@0)
	LD   R0,X+
	LD   R27,X
	MOV  R26,R0
	SUBI R26,LOW(-@1)
	SBCI R27,HIGH(-@1)
	ST   X+,R30
	ST   X+,R31
	ST   X+,R22
	ST   X,R23
	.ENDM

	.MACRO __MULBRR
	MULS R@0,R@1
	MOVW R30,R0
	.ENDM

	.MACRO __MULBRRU
	MUL  R@0,R@1
	MOVW R30,R0
	.ENDM

	.MACRO __MULBRR0
	MULS R@0,R@1
	.ENDM

	.MACRO __MULBRRU0
	MUL  R@0,R@1
	.ENDM

	.MACRO __MULBNWRU
	LDI  R26,@2
	MUL  R26,R@0
	MOVW R30,R0
	MUL  R26,R@1
	ADD  R31,R0
	.ENDM

	.CSEG
	.ORG 0x00

;START OF CODE MARKER
__START_OF_CODE:

;INTERRUPT VECTORS
	JMP  __RESET
	JMP  0x00
	JMP  0x00
	JMP  0x00
	JMP  0x00
	JMP  0x00
	JMP  0x00
	JMP  0x00
	JMP  0x00
	JMP  0x00
	JMP  0x00
	JMP  0x00
	JMP  0x00
	JMP  0x00
	JMP  0x00
	JMP  0x00
	JMP  0x00
	JMP  0x00
	JMP  0x00
	JMP  0x00
	JMP  0x00

_font5x7:
	.DB  0x5,0x7,0x20,0x60,0x0,0x0,0x0,0x0
	.DB  0x0,0x0,0x0,0x4,0x4,0x4,0x4,0x4
	.DB  0x0,0x4,0xA,0xA,0xA,0x0,0x0,0x0
	.DB  0x0,0xA,0xA,0x1F,0xA,0x1F,0xA,0xA
	.DB  0x4,0x1E,0x5,0xE,0x14,0xF,0x4,0x3
	.DB  0x13,0x8,0x4,0x2,0x19,0x18,0x6,0x9
	.DB  0x5,0x2,0x15,0x9,0x16,0x6,0x4,0x2
	.DB  0x0,0x0,0x0,0x0,0x8,0x4,0x2,0x2
	.DB  0x2,0x4,0x8,0x2,0x4,0x8,0x8,0x8
	.DB  0x4,0x2,0x0,0xA,0x4,0x1F,0x4,0xA
	.DB  0x0,0x0,0x4,0x4,0x1F,0x4,0x4,0x0
	.DB  0x0,0x0,0x0,0x0,0x6,0x4,0x2,0x0
	.DB  0x0,0x0,0x1F,0x0,0x0,0x0,0x0,0x0
	.DB  0x0,0x0,0x6,0x6,0x0,0x0,0x10,0x8
	.DB  0x4,0x2,0x1,0x0,0xE,0x11,0x19,0x15
	.DB  0x13,0x11,0xE,0x4,0x6,0x4,0x4,0x4
	.DB  0x4,0xE,0xE,0x11,0x10,0x8,0x4,0x2
	.DB  0x1F,0x1F,0x8,0x4,0x8,0x10,0x11,0xE
	.DB  0x8,0xC,0xA,0x9,0x1F,0x8,0x8,0x1F
	.DB  0x1,0xF,0x10,0x10,0x11,0xE,0xC,0x2
	.DB  0x1,0xF,0x11,0x11,0xE,0x1F,0x10,0x8
	.DB  0x4,0x2,0x2,0x2,0xE,0x11,0x11,0xE
	.DB  0x11,0x11,0xE,0xE,0x11,0x11,0x1E,0x10
	.DB  0x8,0x6,0x0,0x6,0x6,0x0,0x6,0x6
	.DB  0x0,0x0,0x6,0x6,0x0,0x6,0x4,0x2
	.DB  0x10,0x8,0x4,0x2,0x4,0x8,0x10,0x0
	.DB  0x0,0x1F,0x0,0x1F,0x0,0x0,0x1,0x2
	.DB  0x4,0x8,0x4,0x2,0x1,0xE,0x11,0x10
	.DB  0x8,0x4,0x0,0x4,0xE,0x11,0x10,0x16
	.DB  0x15,0x15,0xE,0xE,0x11,0x11,0x11,0x1F
	.DB  0x11,0x11,0xF,0x11,0x11,0xF,0x11,0x11
	.DB  0xF,0xE,0x11,0x1,0x1,0x1,0x11,0xE
	.DB  0x7,0x9,0x11,0x11,0x11,0x9,0x7,0x1F
	.DB  0x1,0x1,0xF,0x1,0x1,0x1F,0x1F,0x1
	.DB  0x1,0x7,0x1,0x1,0x1,0xE,0x11,0x1
	.DB  0x1,0x19,0x11,0xE,0x11,0x11,0x11,0x1F
	.DB  0x11,0x11,0x11,0xE,0x4,0x4,0x4,0x4
	.DB  0x4,0xE,0x1C,0x8,0x8,0x8,0x8,0x9
	.DB  0x6,0x11,0x9,0x5,0x3,0x5,0x9,0x11
	.DB  0x1,0x1,0x1,0x1,0x1,0x1,0x1F,0x11
	.DB  0x1B,0x15,0x11,0x11,0x11,0x11,0x11,0x11
	.DB  0x13,0x15,0x19,0x11,0x11,0xE,0x11,0x11
	.DB  0x11,0x11,0x11,0xE,0xF,0x11,0x11,0xF
	.DB  0x1,0x1,0x1,0xE,0x11,0x11,0x11,0x15
	.DB  0x9,0x16,0xF,0x11,0x11,0xF,0x5,0x9
	.DB  0x11,0x1E,0x1,0x1,0xE,0x10,0x10,0xF
	.DB  0x1F,0x4,0x4,0x4,0x4,0x4,0x4,0x11
	.DB  0x11,0x11,0x11,0x11,0x11,0xE,0x11,0x11
	.DB  0x11,0x11,0x11,0xA,0x4,0x11,0x11,0x11
	.DB  0x15,0x15,0x1B,0x11,0x11,0x11,0xA,0x4
	.DB  0xA,0x11,0x11,0x11,0x11,0xA,0x4,0x4
	.DB  0x4,0x4,0x1F,0x10,0x8,0x4,0x2,0x1
	.DB  0x1F,0x1C,0x4,0x4,0x4,0x4,0x4,0x1C
	.DB  0x0,0x1,0x2,0x4,0x8,0x10,0x0,0x7
	.DB  0x4,0x4,0x4,0x4,0x4,0x7,0x4,0xA
	.DB  0x11,0x0,0x0,0x0,0x0,0x0,0x0,0x0
	.DB  0x0,0x0,0x0,0x1F,0x2,0x4,0x8,0x0
	.DB  0x0,0x0,0x0,0x0,0x0,0xE,0x10,0x1E
	.DB  0x11,0x1E,0x1,0x1,0xD,0x13,0x11,0x11
	.DB  0xF,0x0,0x0,0xE,0x1,0x1,0x11,0xE
	.DB  0x10,0x10,0x16,0x19,0x11,0x11,0x1E,0x0
	.DB  0x0,0xE,0x11,0x1F,0x1,0xE,0xC,0x12
	.DB  0x2,0x7,0x2,0x2,0x2,0x0,0x0,0x1E
	.DB  0x11,0x1E,0x10,0xC,0x1,0x1,0xD,0x13
	.DB  0x11,0x11,0x11,0x4,0x0,0x6,0x4,0x4
	.DB  0x4,0xE,0x8,0x0,0xC,0x8,0x8,0x9
	.DB  0x6,0x2,0x2,0x12,0xA,0x6,0xA,0x12
	.DB  0x6,0x4,0x4,0x4,0x4,0x4,0xE,0x0
	.DB  0x0,0xB,0x15,0x15,0x11,0x11,0x0,0x0
	.DB  0xD,0x13,0x11,0x11,0x11,0x0,0x0,0xE
	.DB  0x11,0x11,0x11,0xE,0x0,0x0,0xF,0x11
	.DB  0xF,0x1,0x1,0x0,0x0,0x16,0x19,0x1E
	.DB  0x10,0x10,0x0,0x0,0xD,0x13,0x1,0x1
	.DB  0x1,0x0,0x0,0xE,0x1,0xE,0x10,0xF
	.DB  0x2,0x2,0x7,0x2,0x2,0x12,0xC,0x0
	.DB  0x0,0x11,0x11,0x11,0x19,0x16,0x0,0x0
	.DB  0x11,0x11,0x11,0xA,0x4,0x0,0x0,0x11
	.DB  0x11,0x15,0x15,0xA,0x0,0x0,0x11,0xA
	.DB  0x4,0xA,0x11,0x0,0x0,0x11,0x11,0x1E
	.DB  0x10,0xE,0x0,0x0,0x1F,0x8,0x4,0x2
	.DB  0x1F,0x8,0x4,0x4,0x2,0x4,0x4,0x8
	.DB  0x4,0x4,0x4,0x4,0x4,0x4,0x4,0x2
	.DB  0x4,0x4,0x8,0x4,0x4,0x2,0x2,0x15
	.DB  0x8,0x0,0x0,0x0,0x0,0x1F,0x11,0x11
	.DB  0x11,0x11,0x11,0x1F
__glcd_mask:
	.DB  0x0,0x1,0x3,0x7,0xF,0x1F,0x3F,0x7F
	.DB  0xFF
_st7920_init_4bit_G100:
	.DB  0x30,0x30,0x20,0x0,0x20,0x0
_st7920_base_y_G100:
	.DB  0x80,0x90,0x88,0x98

_0x0:
	.DB  0x48,0x69,0x20,0x45,0x68,0x73,0x61,0x6E
	.DB  0x0
_0x20C0060:
	.DB  0x1
_0x20C0000:
	.DB  0x2D,0x4E,0x41,0x4E,0x0,0x49,0x4E,0x46
	.DB  0x0

__GLOBAL_INI_TBL:
	.DW  0x09
	.DW  _0x6
	.DW  _0x0*2

	.DW  0x01
	.DW  __seed_G106
	.DW  _0x20C0060*2

_0xFFFFFFFF:
	.DW  0

#define __GLOBAL_INI_TBL_PRESENT 1

__RESET:
	CLI
	CLR  R30
	OUT  EECR,R30

;INTERRUPT VECTORS ARE PLACED
;AT THE START OF FLASH
	LDI  R31,1
	OUT  MCUCR,R31
	OUT  MCUCR,R30

;CLEAR R2-R14
	LDI  R24,(14-2)+1
	LDI  R26,2
	CLR  R27
__CLEAR_REG:
	ST   X+,R30
	DEC  R24
	BRNE __CLEAR_REG

;CLEAR SRAM
	LDI  R24,LOW(__CLEAR_SRAM_SIZE)
	LDI  R25,HIGH(__CLEAR_SRAM_SIZE)
	LDI  R26,__SRAM_START
__CLEAR_SRAM:
	ST   X+,R30
	SBIW R24,1
	BRNE __CLEAR_SRAM

;GLOBAL VARIABLES INITIALIZATION
	LDI  R30,LOW(__GLOBAL_INI_TBL*2)
	LDI  R31,HIGH(__GLOBAL_INI_TBL*2)
__GLOBAL_INI_NEXT:
	LPM  R24,Z+
	LPM  R25,Z+
	SBIW R24,0
	BREQ __GLOBAL_INI_END
	LPM  R26,Z+
	LPM  R27,Z+
	LPM  R0,Z+
	LPM  R1,Z+
	MOVW R22,R30
	MOVW R30,R0
__GLOBAL_INI_LOOP:
	LPM  R0,Z+
	ST   X+,R0
	SBIW R24,1
	BRNE __GLOBAL_INI_LOOP
	MOVW R30,R22
	RJMP __GLOBAL_INI_NEXT
__GLOBAL_INI_END:

;HARDWARE STACK POINTER INITIALIZATION
	LDI  R30,LOW(__SRAM_END-__HEAP_SIZE)
	OUT  SPL,R30
	LDI  R30,HIGH(__SRAM_END-__HEAP_SIZE)
	OUT  SPH,R30

;DATA STACK POINTER INITIALIZATION
	LDI  R28,LOW(__SRAM_START+__DSTACK_SIZE)
	LDI  R29,HIGH(__SRAM_START+__DSTACK_SIZE)

	JMP  _main

	.ESEG
	.ORG 0

	.DSEG
	.ORG 0x260

	.CSEG
;/*******************************************************
;This program was created by the
;CodeWizardAVR V3.12 Advanced
;Automatic Program Generator
;© Copyright 1998-2014 Pavel Haiduc, HP InfoTech s.r.l.
;http://www.hpinfotech.com
;
;Project :
;Version :
;Date    : 6/29/2021
;Author  :
;Company :
;Comments:
;
;
;Chip type               : ATmega32A
;Program type            : Application
;AVR Core Clock frequency: 11.059200 MHz
;Memory model            : Small
;External RAM size       : 0
;Data Stack size         : 512
;*******************************************************/
;
;#include <mega32a.h>
	#ifndef __SLEEP_DEFINED__
	#define __SLEEP_DEFINED__
	.EQU __se_bit=0x80
	.EQU __sm_mask=0x70
	.EQU __sm_powerdown=0x20
	.EQU __sm_powersave=0x30
	.EQU __sm_standby=0x60
	.EQU __sm_ext_standby=0x70
	.EQU __sm_adc_noise_red=0x10
	.SET power_ctrl_reg=mcucr
	#endif
;
;// Graphic Display functions
;#include <glcd.h>
;#include <delay.h>
;// Font used for displaying text
;// on the graphic display
;#include <font5x7.h>
;
;// Declare your global variables here
;
;void main(void)
; 0000 0024 {

	.CSEG
_main:
; .FSTART _main
; 0000 0025 // Declare your local variables here
; 0000 0026 // Variable used to store graphic display
; 0000 0027 // controller initialization data
; 0000 0028 GLCDINIT_t glcd_init_data;
; 0000 0029 
; 0000 002A // Input/Output Ports initialization
; 0000 002B // Port A initialization
; 0000 002C // Function: Bit7=In Bit6=In Bit5=In Bit4=In Bit3=In Bit2=In Bit1=In Bit0=In
; 0000 002D DDRA=(0<<DDA7) | (0<<DDA6) | (0<<DDA5) | (0<<DDA4) | (0<<DDA3) | (0<<DDA2) | (0<<DDA1) | (0<<DDA0);
	SBIW R28,6
;	glcd_init_data -> Y+0
	LDI  R30,LOW(0)
	OUT  0x1A,R30
; 0000 002E // State: Bit7=T Bit6=T Bit5=T Bit4=T Bit3=T Bit2=T Bit1=T Bit0=T
; 0000 002F PORTA=(0<<PORTA7) | (0<<PORTA6) | (0<<PORTA5) | (0<<PORTA4) | (0<<PORTA3) | (0<<PORTA2) | (0<<PORTA1) | (0<<PORTA0);
	OUT  0x1B,R30
; 0000 0030 
; 0000 0031 // Port B initialization
; 0000 0032 // Function: Bit7=In Bit6=In Bit5=In Bit4=In Bit3=In Bit2=In Bit1=In Bit0=In
; 0000 0033 DDRB=(0<<DDB7) | (0<<DDB6) | (0<<DDB5) | (0<<DDB4) | (0<<DDB3) | (0<<DDB2) | (0<<DDB1) | (0<<DDB0);
	OUT  0x17,R30
; 0000 0034 // State: Bit7=T Bit6=T Bit5=T Bit4=T Bit3=T Bit2=T Bit1=T Bit0=T
; 0000 0035 PORTB=(0<<PORTB7) | (0<<PORTB6) | (0<<PORTB5) | (0<<PORTB4) | (0<<PORTB3) | (0<<PORTB2) | (0<<PORTB1) | (0<<PORTB0);
	OUT  0x18,R30
; 0000 0036 
; 0000 0037 // Port C initialization
; 0000 0038 // Function: Bit7=In Bit6=In Bit5=In Bit4=In Bit3=In Bit2=In Bit1=In Bit0=In
; 0000 0039 DDRC=(0<<DDC7) | (0<<DDC6) | (0<<DDC5) | (0<<DDC4) | (0<<DDC3) | (0<<DDC2) | (0<<DDC1) | (0<<DDC0);
	OUT  0x14,R30
; 0000 003A // State: Bit7=T Bit6=T Bit5=T Bit4=T Bit3=T Bit2=T Bit1=T Bit0=T
; 0000 003B PORTC=(0<<PORTC7) | (0<<PORTC6) | (0<<PORTC5) | (0<<PORTC4) | (0<<PORTC3) | (0<<PORTC2) | (0<<PORTC1) | (0<<PORTC0);
	OUT  0x15,R30
; 0000 003C 
; 0000 003D // Port D initialization
; 0000 003E // Function: Bit7=In Bit6=In Bit5=In Bit4=In Bit3=In Bit2=In Bit1=In Bit0=In
; 0000 003F DDRD=(0<<DDD7) | (0<<DDD6) | (0<<DDD5) | (0<<DDD4) | (0<<DDD3) | (0<<DDD2) | (0<<DDD1) | (0<<DDD0);
	OUT  0x11,R30
; 0000 0040 // State: Bit7=T Bit6=T Bit5=T Bit4=T Bit3=T Bit2=T Bit1=T Bit0=T
; 0000 0041 PORTD=(0<<PORTD7) | (0<<PORTD6) | (0<<PORTD5) | (0<<PORTD4) | (0<<PORTD3) | (0<<PORTD2) | (0<<PORTD1) | (0<<PORTD0);
	OUT  0x12,R30
; 0000 0042 
; 0000 0043 // Timer/Counter 0 initialization
; 0000 0044 // Clock source: System Clock
; 0000 0045 // Clock value: Timer 0 Stopped
; 0000 0046 // Mode: Normal top=0xFF
; 0000 0047 // OC0 output: Disconnected
; 0000 0048 TCCR0=(0<<WGM00) | (0<<COM01) | (0<<COM00) | (0<<WGM01) | (0<<CS02) | (0<<CS01) | (0<<CS00);
	OUT  0x33,R30
; 0000 0049 TCNT0=0x00;
	OUT  0x32,R30
; 0000 004A OCR0=0x00;
	OUT  0x3C,R30
; 0000 004B 
; 0000 004C // Timer/Counter 1 initialization
; 0000 004D // Clock source: System Clock
; 0000 004E // Clock value: Timer1 Stopped
; 0000 004F // Mode: Normal top=0xFFFF
; 0000 0050 // OC1A output: Disconnected
; 0000 0051 // OC1B output: Disconnected
; 0000 0052 // Noise Canceler: Off
; 0000 0053 // Input Capture on Falling Edge
; 0000 0054 // Timer1 Overflow Interrupt: Off
; 0000 0055 // Input Capture Interrupt: Off
; 0000 0056 // Compare A Match Interrupt: Off
; 0000 0057 // Compare B Match Interrupt: Off
; 0000 0058 TCCR1A=(0<<COM1A1) | (0<<COM1A0) | (0<<COM1B1) | (0<<COM1B0) | (0<<WGM11) | (0<<WGM10);
	OUT  0x2F,R30
; 0000 0059 TCCR1B=(0<<ICNC1) | (0<<ICES1) | (0<<WGM13) | (0<<WGM12) | (0<<CS12) | (0<<CS11) | (0<<CS10);
	OUT  0x2E,R30
; 0000 005A TCNT1H=0x00;
	OUT  0x2D,R30
; 0000 005B TCNT1L=0x00;
	OUT  0x2C,R30
; 0000 005C ICR1H=0x00;
	OUT  0x27,R30
; 0000 005D ICR1L=0x00;
	OUT  0x26,R30
; 0000 005E OCR1AH=0x00;
	OUT  0x2B,R30
; 0000 005F OCR1AL=0x00;
	OUT  0x2A,R30
; 0000 0060 OCR1BH=0x00;
	OUT  0x29,R30
; 0000 0061 OCR1BL=0x00;
	OUT  0x28,R30
; 0000 0062 
; 0000 0063 // Timer/Counter 2 initialization
; 0000 0064 // Clock source: System Clock
; 0000 0065 // Clock value: Timer2 Stopped
; 0000 0066 // Mode: Normal top=0xFF
; 0000 0067 // OC2 output: Disconnected
; 0000 0068 ASSR=0<<AS2;
	OUT  0x22,R30
; 0000 0069 TCCR2=(0<<PWM2) | (0<<COM21) | (0<<COM20) | (0<<CTC2) | (0<<CS22) | (0<<CS21) | (0<<CS20);
	OUT  0x25,R30
; 0000 006A TCNT2=0x00;
	OUT  0x24,R30
; 0000 006B OCR2=0x00;
	OUT  0x23,R30
; 0000 006C 
; 0000 006D // Timer(s)/Counter(s) Interrupt(s) initialization
; 0000 006E TIMSK=(0<<OCIE2) | (0<<TOIE2) | (0<<TICIE1) | (0<<OCIE1A) | (0<<OCIE1B) | (0<<TOIE1) | (0<<OCIE0) | (0<<TOIE0);
	OUT  0x39,R30
; 0000 006F 
; 0000 0070 // External Interrupt(s) initialization
; 0000 0071 // INT0: Off
; 0000 0072 // INT1: Off
; 0000 0073 // INT2: Off
; 0000 0074 MCUCR=(0<<ISC11) | (0<<ISC10) | (0<<ISC01) | (0<<ISC00);
	OUT  0x35,R30
; 0000 0075 MCUCSR=(0<<ISC2);
	OUT  0x34,R30
; 0000 0076 
; 0000 0077 // USART initialization
; 0000 0078 // USART disabled
; 0000 0079 UCSRB=(0<<RXCIE) | (0<<TXCIE) | (0<<UDRIE) | (0<<RXEN) | (0<<TXEN) | (0<<UCSZ2) | (0<<RXB8) | (0<<TXB8);
	OUT  0xA,R30
; 0000 007A 
; 0000 007B // Analog Comparator initialization
; 0000 007C // Analog Comparator: Off
; 0000 007D // The Analog Comparator's positive input is
; 0000 007E // connected to the AIN0 pin
; 0000 007F // The Analog Comparator's negative input is
; 0000 0080 // connected to the AIN1 pin
; 0000 0081 ACSR=(1<<ACD) | (0<<ACBG) | (0<<ACO) | (0<<ACI) | (0<<ACIE) | (0<<ACIC) | (0<<ACIS1) | (0<<ACIS0);
	LDI  R30,LOW(128)
	OUT  0x8,R30
; 0000 0082 SFIOR=(0<<ACME);
	LDI  R30,LOW(0)
	OUT  0x30,R30
; 0000 0083 
; 0000 0084 // ADC initialization
; 0000 0085 // ADC disabled
; 0000 0086 ADCSRA=(0<<ADEN) | (0<<ADSC) | (0<<ADATE) | (0<<ADIF) | (0<<ADIE) | (0<<ADPS2) | (0<<ADPS1) | (0<<ADPS0);
	OUT  0x6,R30
; 0000 0087 
; 0000 0088 // SPI initialization
; 0000 0089 // SPI disabled
; 0000 008A SPCR=(0<<SPIE) | (0<<SPE) | (0<<DORD) | (0<<MSTR) | (0<<CPOL) | (0<<CPHA) | (0<<SPR1) | (0<<SPR0);
	OUT  0xD,R30
; 0000 008B 
; 0000 008C // TWI initialization
; 0000 008D // TWI disabled
; 0000 008E TWCR=(0<<TWEA) | (0<<TWSTA) | (0<<TWSTO) | (0<<TWEN) | (0<<TWIE);
	OUT  0x36,R30
; 0000 008F 
; 0000 0090 // Graphic Display Controller initialization
; 0000 0091 // The ST7920 connections are specified in the
; 0000 0092 // Project|Configure|C Compiler|Libraries|Graphic Display menu:
; 0000 0093 // E - PORTA Bit 0
; 0000 0094 // R /W - PORTA Bit 1
; 0000 0095 // RS - PORTA Bit 2
; 0000 0096 // /RST - PORTA Bit 3
; 0000 0097 // DB4 - PORTA Bit 4
; 0000 0098 // DB5 - PORTA Bit 5
; 0000 0099 // DB6 - PORTA Bit 6
; 0000 009A // DB7 - PORTA Bit 7
; 0000 009B 
; 0000 009C // Specify the current font for displaying text
; 0000 009D glcd_init_data.font=font5x7;
	LDI  R30,LOW(_font5x7*2)
	LDI  R31,HIGH(_font5x7*2)
	ST   Y,R30
	STD  Y+1,R31
; 0000 009E // No function is used for reading
; 0000 009F // image data from external memory
; 0000 00A0 glcd_init_data.readxmem=NULL;
	LDI  R30,LOW(0)
	STD  Y+2,R30
	STD  Y+2+1,R30
; 0000 00A1 // No function is used for writing
; 0000 00A2 // image data to external memory
; 0000 00A3 glcd_init_data.writexmem=NULL;
	STD  Y+4,R30
	STD  Y+4+1,R30
; 0000 00A4 
; 0000 00A5 glcd_init(&glcd_init_data);
	MOVW R26,R28
	RCALL _glcd_init
; 0000 00A6 
; 0000 00A7 while (1)
_0x3:
; 0000 00A8       {
; 0000 00A9       // Place your code here
; 0000 00AA       delay_ms(1000);
	LDI  R26,LOW(1000)
	LDI  R27,HIGH(1000)
	CALL _delay_ms
; 0000 00AB       lcd_clear();
	RCALL _glcd_cleartext
; 0000 00AC       lcd_gotoxy(1,1);
	LDI  R30,LOW(1)
	ST   -Y,R30
	LDI  R26,LOW(1)
	RCALL _lcd_gotoxy
; 0000 00AD       lcd_puts("Hi Ehsan");
	__POINTW2MN _0x6,0
	CALL _lcd_puts
; 0000 00AE       delay_ms(2000);
	LDI  R26,LOW(2000)
	LDI  R27,HIGH(2000)
	CALL _delay_ms
; 0000 00AF       lcd_clear();
	RCALL _glcd_cleartext
; 0000 00B0       delay_ms(500);
	LDI  R26,LOW(500)
	LDI  R27,HIGH(500)
	CALL _delay_ms
; 0000 00B1       }
	RJMP _0x3
; 0000 00B2 }
_0x7:
	RJMP _0x7
; .FEND

	.DSEG
_0x6:
	.BYTE 0x9
	#ifndef __SLEEP_DEFINED__
	#define __SLEEP_DEFINED__
	.EQU __se_bit=0x80
	.EQU __sm_mask=0x70
	.EQU __sm_powerdown=0x20
	.EQU __sm_powersave=0x30
	.EQU __sm_standby=0x60
	.EQU __sm_ext_standby=0x70
	.EQU __sm_adc_noise_red=0x10
	.SET power_ctrl_reg=mcucr
	#endif

	.CSEG
_st7920_delay_G100:
; .FSTART _st7920_delay_G100
    nop
    nop
    nop
	RET
; .FEND
_st7920_wrbus_G100:
; .FSTART _st7920_wrbus_G100
	ST   -Y,R26
	CBI  0x1B,1
	SBI  0x1B,0
	IN   R30,0x1A
	ORI  R30,LOW(0xF0)
	OUT  0x1A,R30
	IN   R30,0x1B
	ANDI R30,LOW(0xF)
	MOV  R26,R30
	LD   R30,Y
	ANDI R30,LOW(0xF0)
	OR   R30,R26
	OUT  0x1B,R30
	RCALL _st7920_delay_G100
	CBI  0x1B,0
	IN   R30,0x1B
	ANDI R30,LOW(0xF)
	MOV  R26,R30
	LD   R30,Y
	SWAP R30
	ANDI R30,0xF0
	OR   R30,R26
	OUT  0x1B,R30
	CALL SUBOPT_0x0
	CBI  0x1B,0
	RJMP _0x2100004
; .FEND
_st7920_rdbus_G100:
; .FSTART _st7920_rdbus_G100
	ST   -Y,R17
	SBI  0x1B,1
	IN   R30,0x1A
	ANDI R30,LOW(0xF)
	OUT  0x1A,R30
	SBI  0x1B,0
	RCALL _st7920_delay_G100
	IN   R30,0x19
	ANDI R30,LOW(0xF0)
	MOV  R17,R30
	CBI  0x1B,0
	CALL SUBOPT_0x0
	IN   R30,0x19
	SWAP R30
	ANDI R30,0xF
	OR   R17,R30
	CBI  0x1B,0
	MOV  R30,R17
	RJMP _0x2100005
; .FEND
_st7920_busy_G100:
; .FSTART _st7920_busy_G100
	ST   -Y,R17
	CBI  0x1B,2
	SBI  0x1B,1
	IN   R30,0x1A
	ANDI R30,LOW(0xF)
	OUT  0x1A,R30
_0x2000004:
	SBI  0x1B,0
	RCALL _st7920_delay_G100
	IN   R30,0x19
	ANDI R30,LOW(0x80)
	LDI  R26,LOW(0)
	CALL __NEB12
	MOV  R17,R30
	CBI  0x1B,0
	CALL SUBOPT_0x0
	CBI  0x1B,0
	RCALL _st7920_delay_G100
	CPI  R17,0
	BRNE _0x2000004
	__DELAY_USB 4
_0x2100005:
	LD   R17,Y+
	RET
; .FEND
_st7920_wrdata:
; .FSTART _st7920_wrdata
	ST   -Y,R26
	RCALL _st7920_busy_G100
	SBI  0x1B,2
	LD   R26,Y
	RCALL _st7920_wrbus_G100
	RJMP _0x2100004
; .FEND
_st7920_rddata:
; .FSTART _st7920_rddata
	RCALL _st7920_busy_G100
	SBI  0x1B,2
	RCALL _st7920_rdbus_G100
	RET
; .FEND
_st7920_wrcmd:
; .FSTART _st7920_wrcmd
	ST   -Y,R26
	RCALL _st7920_busy_G100
	LD   R26,Y
	RCALL _st7920_wrbus_G100
	RJMP _0x2100004
; .FEND
_st7920_setxy_G100:
; .FSTART _st7920_setxy_G100
	ST   -Y,R26
	LD   R30,Y
	ANDI R30,LOW(0x1F)
	ORI  R30,0x80
	MOV  R26,R30
	RCALL _st7920_wrcmd
	LD   R26,Y
	CPI  R26,LOW(0x20)
	BRLO _0x2000006
	LDD  R30,Y+1
	ORI  R30,0x80
	STD  Y+1,R30
_0x2000006:
	LDD  R30,Y+1
	SWAP R30
	ANDI R30,0xF
	ORI  R30,0x80
	MOV  R26,R30
	RCALL _st7920_wrcmd
	RJMP _0x2100002
; .FEND
_glcd_display:
; .FSTART _glcd_display
	ST   -Y,R26
	CALL SUBOPT_0x1
	LD   R30,Y
	CPI  R30,0
	BREQ _0x2000007
	LDI  R30,LOW(12)
	RJMP _0x2000008
_0x2000007:
	LDI  R30,LOW(8)
_0x2000008:
	MOV  R26,R30
	RCALL _st7920_wrcmd
	LD   R30,Y
	CPI  R30,0
	BREQ _0x200000A
	LDI  R30,LOW(2)
	RJMP _0x200000B
_0x200000A:
	LDI  R30,LOW(0)
_0x200000B:
	STS  _st7920_graphics_on_G100,R30
	CALL SUBOPT_0x1
	CALL SUBOPT_0x2
	RJMP _0x2100004
; .FEND
_glcd_cleartext:
; .FSTART _glcd_cleartext
	CALL SUBOPT_0x1
	LDI  R26,LOW(1)
	RCALL _st7920_wrcmd
	LDI  R30,LOW(0)
	STS  _yt_G100,R30
	STS  _xt_G100,R30
	ST   -Y,R30
	LDI  R26,LOW(0)
	RCALL _glcd_moveto
	RET
; .FEND
_glcd_cleargraphics:
; .FSTART _glcd_cleargraphics
	CALL __SAVELOCR4
	LDI  R19,0
	__GETB1MN _glcd_state,1
	CPI  R30,0
	BREQ _0x200000D
	LDI  R19,LOW(255)
_0x200000D:
	CALL SUBOPT_0x2
	LDI  R16,LOW(0)
_0x200000E:
	CPI  R16,64
	BRSH _0x2000010
	LDI  R30,LOW(0)
	ST   -Y,R30
	MOV  R26,R16
	SUBI R16,-1
	RCALL _st7920_setxy_G100
	LDI  R17,LOW(16)
_0x2000011:
	MOV  R30,R17
	SUBI R17,1
	CPI  R30,0
	BREQ _0x2000013
	MOV  R26,R19
	RCALL _st7920_wrdata
	__DELAY_USB 4
	RJMP _0x2000011
_0x2000013:
	RJMP _0x200000E
_0x2000010:
	LDI  R30,LOW(0)
	ST   -Y,R30
	LDI  R26,LOW(0)
	RCALL _glcd_moveto
	CALL __LOADLOCR4
	ADIW R28,4
	RET
; .FEND
_glcd_init:
; .FSTART _glcd_init
	ST   -Y,R27
	ST   -Y,R26
	ST   -Y,R17
	SBI  0x1A,0
	CBI  0x1B,0
	SBI  0x1A,1
	SBI  0x1B,1
	SBI  0x1A,2
	CBI  0x1B,2
	SBI  0x1A,3
	LDI  R26,LOW(50)
	LDI  R27,0
	CALL _delay_ms
	CBI  0x1B,3
	LDI  R26,LOW(1)
	LDI  R27,0
	CALL _delay_ms
	SBI  0x1B,3
	LDI  R26,LOW(1)
	LDI  R27,0
	CALL _delay_ms
	CBI  0x1B,1
	IN   R30,0x1A
	ORI  R30,LOW(0xF0)
	OUT  0x1A,R30
	LDI  R17,LOW(0)
_0x2000015:
	CPI  R17,6
	BRSH _0x2000016
	SBI  0x1B,0
	IN   R30,0x1B
	ANDI R30,LOW(0xF)
	MOV  R26,R30
	MOV  R30,R17
	LDI  R31,0
	SUBI R30,LOW(-_st7920_init_4bit_G100*2)
	SBCI R31,HIGH(-_st7920_init_4bit_G100*2)
	LPM  R30,Z
	OR   R30,R26
	OUT  0x1B,R30
	__DELAY_USB 18
	CBI  0x1B,0
	__DELAY_USW 553
	SUBI R17,-1
	RJMP _0x2000015
_0x2000016:
	LDI  R26,LOW(8)
	RCALL _st7920_wrbus_G100
	__DELAY_USW 553
	LDI  R26,LOW(1)
	RCALL _st7920_wrcmd
	LDI  R26,LOW(15)
	LDI  R27,0
	CALL _delay_ms
	LDI  R30,LOW(0)
	STS  _yt_G100,R30
	STS  _xt_G100,R30
	LDI  R26,LOW(6)
	RCALL _st7920_wrcmd
	LDI  R26,LOW(36)
	RCALL _st7920_wrcmd
	LDI  R26,LOW(64)
	RCALL _st7920_wrcmd
	LDI  R26,LOW(2)
	RCALL _st7920_wrcmd
	LDI  R30,LOW(0)
	STS  _st7920_graphics_on_G100,R30
	RCALL _glcd_cleargraphics
	LDI  R26,LOW(1)
	RCALL _glcd_display
	LDI  R30,LOW(1)
	STS  _glcd_state,R30
	LDI  R30,LOW(0)
	__PUTB1MN _glcd_state,1
	LDI  R30,LOW(1)
	__PUTB1MN _glcd_state,6
	__PUTB1MN _glcd_state,7
	LDD  R30,Y+1
	LDD  R31,Y+1+1
	SBIW R30,0
	BREQ _0x2000017
	LDD  R26,Y+1
	LDD  R27,Y+1+1
	CALL __GETW1P
	__PUTW1MN _glcd_state,4
	ADIW R26,2
	CALL __GETW1P
	__PUTW1MN _glcd_state,25
	LDD  R26,Y+1
	LDD  R27,Y+1+1
	ADIW R26,4
	CALL __GETW1P
	RJMP _0x20000A6
_0x2000017:
	LDI  R30,LOW(0)
	LDI  R31,HIGH(0)
	__PUTW1MN _glcd_state,4
	__PUTW1MN _glcd_state,25
_0x20000A6:
	__PUTW1MN _glcd_state,27
	LDI  R30,LOW(1)
	__PUTB1MN _glcd_state,8
	LDI  R30,LOW(255)
	__PUTB1MN _glcd_state,9
	LDI  R30,LOW(1)
	__PUTB1MN _glcd_state,16
	__POINTW1MN _glcd_state,17
	ST   -Y,R31
	ST   -Y,R30
	LDI  R30,LOW(255)
	ST   -Y,R30
	LDI  R26,LOW(8)
	LDI  R27,0
	CALL _memset
	LDI  R30,LOW(1)
	RJMP _0x2100003
; .FEND
_lcd_gotoxy:
; .FSTART _lcd_gotoxy
	ST   -Y,R26
	LDD  R26,Y+1
	CPI  R26,LOW(0x10)
	BRLO _0x200008E
	LDI  R30,LOW(15)
	STD  Y+1,R30
_0x200008E:
	LD   R26,Y
	CPI  R26,LOW(0x4)
	BRLO _0x200008F
	LDI  R30,LOW(3)
	ST   Y,R30
_0x200008F:
	CALL SUBOPT_0x1
	LD   R30,Y
	LDI  R31,0
	SUBI R30,LOW(-_st7920_base_y_G100*2)
	SBCI R31,HIGH(-_st7920_base_y_G100*2)
	LPM  R26,Z
	LDD  R30,Y+1
	LSR  R30
	OR   R30,R26
	MOV  R26,R30
	RCALL _st7920_wrcmd
	LDD  R30,Y+1
	STS  _xt_G100,R30
	LD   R30,Y
	STS  _yt_G100,R30
	RJMP _0x2100002
; .FEND
_glcd_putcharcg:
; .FSTART _glcd_putcharcg
	ST   -Y,R26
	ST   -Y,R17
	ST   -Y,R16
	LDD  R26,Y+4
	CPI  R26,LOW(0x10)
	BRLO _0x2000090
	LDI  R30,LOW(15)
	STD  Y+4,R30
_0x2000090:
	LDD  R26,Y+3
	CPI  R26,LOW(0x4)
	BRLO _0x2000091
	LDI  R30,LOW(3)
	STD  Y+3,R30
_0x2000091:
	LDD  R30,Y+3
	LDI  R31,0
	SUBI R30,LOW(-_st7920_base_y_G100*2)
	SBCI R31,HIGH(-_st7920_base_y_G100*2)
	LPM  R26,Z
	LDD  R30,Y+4
	LSR  R30
	OR   R30,R26
	MOV  R17,R30
	CALL SUBOPT_0x1
	MOV  R26,R17
	RCALL _st7920_wrcmd
	RCALL _st7920_rddata
	LDD  R30,Y+4
	ANDI R30,LOW(0x1)
	BREQ _0x2000092
	RCALL _st7920_rddata
	MOV  R16,R30
_0x2000092:
	MOV  R26,R17
	RCALL _st7920_wrcmd
	LDD  R30,Y+4
	ANDI R30,LOW(0x1)
	BREQ _0x2000093
	MOV  R26,R16
	RCALL _st7920_wrdata
_0x2000093:
	LDD  R26,Y+2
	RCALL _st7920_wrdata
	LDD  R17,Y+1
	LDD  R16,Y+0
	RJMP _0x2100001
; .FEND
_lcd_putchar:
; .FSTART _lcd_putchar
	ST   -Y,R26
	LD   R26,Y
	CPI  R26,LOW(0xA)
	BREQ _0x2000098
	LDS  R26,_xt_G100
	CPI  R26,LOW(0x10)
	BRLO _0x2000097
_0x2000098:
	LDI  R30,LOW(0)
	STS  _xt_G100,R30
	LDS  R26,_yt_G100
	SUBI R26,-LOW(1)
	STS  _yt_G100,R26
	CPI  R26,LOW(0x4)
	BRLO _0x200009A
	STS  _yt_G100,R30
_0x200009A:
_0x2000097:
	LD   R26,Y
	CPI  R26,LOW(0xA)
	BRNE _0x200009B
	LDS  R30,_xt_G100
	ST   -Y,R30
	LDS  R26,_yt_G100
	RCALL _lcd_gotoxy
	RJMP _0x200009C
_0x200009B:
	LDS  R30,_xt_G100
	SUBI R30,-LOW(1)
	STS  _xt_G100,R30
	SUBI R30,LOW(1)
	ST   -Y,R30
	LDS  R30,_yt_G100
	ST   -Y,R30
	LDD  R26,Y+2
	RCALL _glcd_putcharcg
_0x200009C:
_0x2100004:
	ADIW R28,1
	RET
; .FEND
_lcd_puts:
; .FSTART _lcd_puts
	ST   -Y,R27
	ST   -Y,R26
	ST   -Y,R17
_0x200009D:
	LDD  R26,Y+1
	LDD  R27,Y+1+1
	LD   R30,X+
	STD  Y+1,R26
	STD  Y+1+1,R27
	MOV  R17,R30
	CPI  R30,0
	BREQ _0x200009F
	MOV  R26,R17
	RCALL _lcd_putchar
	RJMP _0x200009D
_0x200009F:
_0x2100003:
	LDD  R17,Y+0
	ADIW R28,3
	RET
; .FEND

	.CSEG
_glcd_clipx:
; .FSTART _glcd_clipx
	CALL SUBOPT_0x3
	BRLT _0x2020003
	LDI  R30,LOW(0)
	LDI  R31,HIGH(0)
	RJMP _0x2100002
_0x2020003:
	LD   R26,Y
	LDD  R27,Y+1
	CPI  R26,LOW(0x80)
	LDI  R30,HIGH(0x80)
	CPC  R27,R30
	BRLT _0x2020004
	LDI  R30,LOW(127)
	LDI  R31,HIGH(127)
	RJMP _0x2100002
_0x2020004:
	LD   R30,Y
	LDD  R31,Y+1
	RJMP _0x2100002
; .FEND
_glcd_clipy:
; .FSTART _glcd_clipy
	CALL SUBOPT_0x3
	BRLT _0x2020005
	LDI  R30,LOW(0)
	LDI  R31,HIGH(0)
	RJMP _0x2100002
_0x2020005:
	LD   R26,Y
	LDD  R27,Y+1
	CPI  R26,LOW(0x40)
	LDI  R30,HIGH(0x40)
	CPC  R27,R30
	BRLT _0x2020006
	LDI  R30,LOW(63)
	LDI  R31,HIGH(63)
	RJMP _0x2100002
_0x2020006:
	LD   R30,Y
	LDD  R31,Y+1
	RJMP _0x2100002
; .FEND
_glcd_moveto:
; .FSTART _glcd_moveto
	ST   -Y,R26
	LDD  R26,Y+1
	CLR  R27
	RCALL _glcd_clipx
	__PUTB1MN _glcd_state,2
	LD   R26,Y
	CLR  R27
	RCALL _glcd_clipy
	__PUTB1MN _glcd_state,3
_0x2100002:
	ADIW R28,2
	RET
; .FEND

	.CSEG
_memset:
; .FSTART _memset
	ST   -Y,R27
	ST   -Y,R26
    ldd  r27,y+1
    ld   r26,y
    adiw r26,0
    breq memset1
    ldd  r31,y+4
    ldd  r30,y+3
    ldd  r22,y+2
memset0:
    st   z+,r22
    sbiw r26,1
    brne memset0
memset1:
    ldd  r30,y+3
    ldd  r31,y+4
_0x2100001:
	ADIW R28,5
	RET
; .FEND

	.CSEG

	.CSEG

	.CSEG

	.DSEG

	.CSEG

	.CSEG

	.DSEG
_glcd_state:
	.BYTE 0x1D
_st7920_graphics_on_G100:
	.BYTE 0x1
_st7920_bits8_15_G100:
	.BYTE 0x1
_xt_G100:
	.BYTE 0x1
_yt_G100:
	.BYTE 0x1
__seed_G106:
	.BYTE 0x4

	.CSEG
;OPTIMIZER ADDED SUBROUTINE, CALLED 3 TIMES, CODE SIZE REDUCTION:3 WORDS
SUBOPT_0x0:
	CALL _st7920_delay_G100
	SBI  0x1B,0
	JMP  _st7920_delay_G100

;OPTIMIZER ADDED SUBROUTINE, CALLED 5 TIMES, CODE SIZE REDUCTION:13 WORDS
SUBOPT_0x1:
	LDS  R30,_st7920_graphics_on_G100
	ORI  R30,0x20
	MOV  R26,R30
	JMP  _st7920_wrcmd

;OPTIMIZER ADDED SUBROUTINE, CALLED 2 TIMES, CODE SIZE REDUCTION:1 WORDS
SUBOPT_0x2:
	LDS  R30,_st7920_graphics_on_G100
	ORI  R30,LOW(0x24)
	MOV  R26,R30
	JMP  _st7920_wrcmd

;OPTIMIZER ADDED SUBROUTINE, CALLED 2 TIMES, CODE SIZE REDUCTION:1 WORDS
SUBOPT_0x3:
	ST   -Y,R27
	ST   -Y,R26
	LD   R26,Y
	LDD  R27,Y+1
	CALL __CPW02
	RET


	.CSEG
_delay_ms:
	adiw r26,0
	breq __delay_ms1
__delay_ms0:
	__DELAY_USW 0xACD
	wdr
	sbiw r26,1
	brne __delay_ms0
__delay_ms1:
	ret

__NEB12:
	CP   R30,R26
	LDI  R30,1
	BRNE __NEB12T
	CLR  R30
__NEB12T:
	RET

__GETW1P:
	LD   R30,X+
	LD   R31,X
	SBIW R26,1
	RET

__CPW02:
	CLR  R0
	CP   R0,R26
	CPC  R0,R27
	RET

__SAVELOCR4:
	ST   -Y,R19
__SAVELOCR3:
	ST   -Y,R18
__SAVELOCR2:
	ST   -Y,R17
	ST   -Y,R16
	RET

__LOADLOCR4:
	LDD  R19,Y+3
__LOADLOCR3:
	LDD  R18,Y+2
__LOADLOCR2:
	LDD  R17,Y+1
	LD   R16,Y
	RET

;END OF CODE MARKER
__END_OF_CODE:
