
;CodeVisionAVR C Compiler V3.12 Advanced
;(C) Copyright 1998-2014 Pavel Haiduc, HP InfoTech s.r.l.
;http://www.hpinfotech.com

;Build configuration    : Debug
;Chip type              : ATmega32A
;Program type           : Application
;Clock frequency        : 11.059200 MHz
;Memory model           : Small
;Optimize for           : Size
;(s)printf features     : float, width, precision
;(s)scanf features      : int, width
;External RAM size      : 0
;Data Stack size        : 512 byte(s)
;Heap size              : 0 byte(s)
;Promote 'char' to 'int': Yes
;'char' is unsigned     : Yes
;8 bit enums            : Yes
;Global 'const' stored in FLASH: Yes
;Enhanced function parameter passing: Yes
;Enhanced core instructions: On
;Automatic register allocation for global variables: On
;Smart register allocation: On

	#define _MODEL_SMALL_

	#pragma AVRPART ADMIN PART_NAME ATmega32A
	#pragma AVRPART MEMORY PROG_FLASH 32768
	#pragma AVRPART MEMORY EEPROM 1024
	#pragma AVRPART MEMORY INT_SRAM SIZE 2048
	#pragma AVRPART MEMORY INT_SRAM START_ADDR 0x60

	#define CALL_SUPPORTED 1

	.LISTMAC
	.EQU UDRE=0x5
	.EQU RXC=0x7
	.EQU USR=0xB
	.EQU UDR=0xC
	.EQU SPSR=0xE
	.EQU SPDR=0xF
	.EQU EERE=0x0
	.EQU EEWE=0x1
	.EQU EEMWE=0x2
	.EQU EECR=0x1C
	.EQU EEDR=0x1D
	.EQU EEARL=0x1E
	.EQU EEARH=0x1F
	.EQU WDTCR=0x21
	.EQU MCUCR=0x35
	.EQU SPL=0x3D
	.EQU SPH=0x3E
	.EQU SREG=0x3F

	.DEF R0X0=R0
	.DEF R0X1=R1
	.DEF R0X2=R2
	.DEF R0X3=R3
	.DEF R0X4=R4
	.DEF R0X5=R5
	.DEF R0X6=R6
	.DEF R0X7=R7
	.DEF R0X8=R8
	.DEF R0X9=R9
	.DEF R0XA=R10
	.DEF R0XB=R11
	.DEF R0XC=R12
	.DEF R0XD=R13
	.DEF R0XE=R14
	.DEF R0XF=R15
	.DEF R0X10=R16
	.DEF R0X11=R17
	.DEF R0X12=R18
	.DEF R0X13=R19
	.DEF R0X14=R20
	.DEF R0X15=R21
	.DEF R0X16=R22
	.DEF R0X17=R23
	.DEF R0X18=R24
	.DEF R0X19=R25
	.DEF R0X1A=R26
	.DEF R0X1B=R27
	.DEF R0X1C=R28
	.DEF R0X1D=R29
	.DEF R0X1E=R30
	.DEF R0X1F=R31

	.EQU __SRAM_START=0x0060
	.EQU __SRAM_END=0x085F
	.EQU __DSTACK_SIZE=0x0200
	.EQU __HEAP_SIZE=0x0000
	.EQU __CLEAR_SRAM_SIZE=__SRAM_END-__SRAM_START+1

	.MACRO __CPD1N
	CPI  R30,LOW(@0)
	LDI  R26,HIGH(@0)
	CPC  R31,R26
	LDI  R26,BYTE3(@0)
	CPC  R22,R26
	LDI  R26,BYTE4(@0)
	CPC  R23,R26
	.ENDM

	.MACRO __CPD2N
	CPI  R26,LOW(@0)
	LDI  R30,HIGH(@0)
	CPC  R27,R30
	LDI  R30,BYTE3(@0)
	CPC  R24,R30
	LDI  R30,BYTE4(@0)
	CPC  R25,R30
	.ENDM

	.MACRO __CPWRR
	CP   R@0,R@2
	CPC  R@1,R@3
	.ENDM

	.MACRO __CPWRN
	CPI  R@0,LOW(@2)
	LDI  R30,HIGH(@2)
	CPC  R@1,R30
	.ENDM

	.MACRO __ADDB1MN
	SUBI R30,LOW(-@0-(@1))
	.ENDM

	.MACRO __ADDB2MN
	SUBI R26,LOW(-@0-(@1))
	.ENDM

	.MACRO __ADDW1MN
	SUBI R30,LOW(-@0-(@1))
	SBCI R31,HIGH(-@0-(@1))
	.ENDM

	.MACRO __ADDW2MN
	SUBI R26,LOW(-@0-(@1))
	SBCI R27,HIGH(-@0-(@1))
	.ENDM

	.MACRO __ADDW1FN
	SUBI R30,LOW(-2*@0-(@1))
	SBCI R31,HIGH(-2*@0-(@1))
	.ENDM

	.MACRO __ADDD1FN
	SUBI R30,LOW(-2*@0-(@1))
	SBCI R31,HIGH(-2*@0-(@1))
	SBCI R22,BYTE3(-2*@0-(@1))
	.ENDM

	.MACRO __ADDD1N
	SUBI R30,LOW(-@0)
	SBCI R31,HIGH(-@0)
	SBCI R22,BYTE3(-@0)
	SBCI R23,BYTE4(-@0)
	.ENDM

	.MACRO __ADDD2N
	SUBI R26,LOW(-@0)
	SBCI R27,HIGH(-@0)
	SBCI R24,BYTE3(-@0)
	SBCI R25,BYTE4(-@0)
	.ENDM

	.MACRO __SUBD1N
	SUBI R30,LOW(@0)
	SBCI R31,HIGH(@0)
	SBCI R22,BYTE3(@0)
	SBCI R23,BYTE4(@0)
	.ENDM

	.MACRO __SUBD2N
	SUBI R26,LOW(@0)
	SBCI R27,HIGH(@0)
	SBCI R24,BYTE3(@0)
	SBCI R25,BYTE4(@0)
	.ENDM

	.MACRO __ANDBMNN
	LDS  R30,@0+(@1)
	ANDI R30,LOW(@2)
	STS  @0+(@1),R30
	.ENDM

	.MACRO __ANDWMNN
	LDS  R30,@0+(@1)
	ANDI R30,LOW(@2)
	STS  @0+(@1),R30
	LDS  R30,@0+(@1)+1
	ANDI R30,HIGH(@2)
	STS  @0+(@1)+1,R30
	.ENDM

	.MACRO __ANDD1N
	ANDI R30,LOW(@0)
	ANDI R31,HIGH(@0)
	ANDI R22,BYTE3(@0)
	ANDI R23,BYTE4(@0)
	.ENDM

	.MACRO __ANDD2N
	ANDI R26,LOW(@0)
	ANDI R27,HIGH(@0)
	ANDI R24,BYTE3(@0)
	ANDI R25,BYTE4(@0)
	.ENDM

	.MACRO __ORBMNN
	LDS  R30,@0+(@1)
	ORI  R30,LOW(@2)
	STS  @0+(@1),R30
	.ENDM

	.MACRO __ORWMNN
	LDS  R30,@0+(@1)
	ORI  R30,LOW(@2)
	STS  @0+(@1),R30
	LDS  R30,@0+(@1)+1
	ORI  R30,HIGH(@2)
	STS  @0+(@1)+1,R30
	.ENDM

	.MACRO __ORD1N
	ORI  R30,LOW(@0)
	ORI  R31,HIGH(@0)
	ORI  R22,BYTE3(@0)
	ORI  R23,BYTE4(@0)
	.ENDM

	.MACRO __ORD2N
	ORI  R26,LOW(@0)
	ORI  R27,HIGH(@0)
	ORI  R24,BYTE3(@0)
	ORI  R25,BYTE4(@0)
	.ENDM

	.MACRO __DELAY_USB
	LDI  R24,LOW(@0)
__DELAY_USB_LOOP:
	DEC  R24
	BRNE __DELAY_USB_LOOP
	.ENDM

	.MACRO __DELAY_USW
	LDI  R24,LOW(@0)
	LDI  R25,HIGH(@0)
__DELAY_USW_LOOP:
	SBIW R24,1
	BRNE __DELAY_USW_LOOP
	.ENDM

	.MACRO __GETD1S
	LDD  R30,Y+@0
	LDD  R31,Y+@0+1
	LDD  R22,Y+@0+2
	LDD  R23,Y+@0+3
	.ENDM

	.MACRO __GETD2S
	LDD  R26,Y+@0
	LDD  R27,Y+@0+1
	LDD  R24,Y+@0+2
	LDD  R25,Y+@0+3
	.ENDM

	.MACRO __PUTD1S
	STD  Y+@0,R30
	STD  Y+@0+1,R31
	STD  Y+@0+2,R22
	STD  Y+@0+3,R23
	.ENDM

	.MACRO __PUTD2S
	STD  Y+@0,R26
	STD  Y+@0+1,R27
	STD  Y+@0+2,R24
	STD  Y+@0+3,R25
	.ENDM

	.MACRO __PUTDZ2
	STD  Z+@0,R26
	STD  Z+@0+1,R27
	STD  Z+@0+2,R24
	STD  Z+@0+3,R25
	.ENDM

	.MACRO __CLRD1S
	STD  Y+@0,R30
	STD  Y+@0+1,R30
	STD  Y+@0+2,R30
	STD  Y+@0+3,R30
	.ENDM

	.MACRO __POINTB1MN
	LDI  R30,LOW(@0+(@1))
	.ENDM

	.MACRO __POINTW1MN
	LDI  R30,LOW(@0+(@1))
	LDI  R31,HIGH(@0+(@1))
	.ENDM

	.MACRO __POINTD1M
	LDI  R30,LOW(@0)
	LDI  R31,HIGH(@0)
	LDI  R22,BYTE3(@0)
	LDI  R23,BYTE4(@0)
	.ENDM

	.MACRO __POINTW1FN
	LDI  R30,LOW(2*@0+(@1))
	LDI  R31,HIGH(2*@0+(@1))
	.ENDM

	.MACRO __POINTD1FN
	LDI  R30,LOW(2*@0+(@1))
	LDI  R31,HIGH(2*@0+(@1))
	LDI  R22,BYTE3(2*@0+(@1))
	LDI  R23,BYTE4(2*@0+(@1))
	.ENDM

	.MACRO __POINTB2MN
	LDI  R26,LOW(@0+(@1))
	.ENDM

	.MACRO __POINTW2MN
	LDI  R26,LOW(@0+(@1))
	LDI  R27,HIGH(@0+(@1))
	.ENDM

	.MACRO __POINTW2FN
	LDI  R26,LOW(2*@0+(@1))
	LDI  R27,HIGH(2*@0+(@1))
	.ENDM

	.MACRO __POINTD2FN
	LDI  R26,LOW(2*@0+(@1))
	LDI  R27,HIGH(2*@0+(@1))
	LDI  R24,BYTE3(2*@0+(@1))
	LDI  R25,BYTE4(2*@0+(@1))
	.ENDM

	.MACRO __POINTBRM
	LDI  R@0,LOW(@1)
	.ENDM

	.MACRO __POINTWRM
	LDI  R@0,LOW(@2)
	LDI  R@1,HIGH(@2)
	.ENDM

	.MACRO __POINTBRMN
	LDI  R@0,LOW(@1+(@2))
	.ENDM

	.MACRO __POINTWRMN
	LDI  R@0,LOW(@2+(@3))
	LDI  R@1,HIGH(@2+(@3))
	.ENDM

	.MACRO __POINTWRFN
	LDI  R@0,LOW(@2*2+(@3))
	LDI  R@1,HIGH(@2*2+(@3))
	.ENDM

	.MACRO __GETD1N
	LDI  R30,LOW(@0)
	LDI  R31,HIGH(@0)
	LDI  R22,BYTE3(@0)
	LDI  R23,BYTE4(@0)
	.ENDM

	.MACRO __GETD2N
	LDI  R26,LOW(@0)
	LDI  R27,HIGH(@0)
	LDI  R24,BYTE3(@0)
	LDI  R25,BYTE4(@0)
	.ENDM

	.MACRO __GETB1MN
	LDS  R30,@0+(@1)
	.ENDM

	.MACRO __GETB1HMN
	LDS  R31,@0+(@1)
	.ENDM

	.MACRO __GETW1MN
	LDS  R30,@0+(@1)
	LDS  R31,@0+(@1)+1
	.ENDM

	.MACRO __GETD1MN
	LDS  R30,@0+(@1)
	LDS  R31,@0+(@1)+1
	LDS  R22,@0+(@1)+2
	LDS  R23,@0+(@1)+3
	.ENDM

	.MACRO __GETBRMN
	LDS  R@0,@1+(@2)
	.ENDM

	.MACRO __GETWRMN
	LDS  R@0,@2+(@3)
	LDS  R@1,@2+(@3)+1
	.ENDM

	.MACRO __GETWRZ
	LDD  R@0,Z+@2
	LDD  R@1,Z+@2+1
	.ENDM

	.MACRO __GETD2Z
	LDD  R26,Z+@0
	LDD  R27,Z+@0+1
	LDD  R24,Z+@0+2
	LDD  R25,Z+@0+3
	.ENDM

	.MACRO __GETB2MN
	LDS  R26,@0+(@1)
	.ENDM

	.MACRO __GETW2MN
	LDS  R26,@0+(@1)
	LDS  R27,@0+(@1)+1
	.ENDM

	.MACRO __GETD2MN
	LDS  R26,@0+(@1)
	LDS  R27,@0+(@1)+1
	LDS  R24,@0+(@1)+2
	LDS  R25,@0+(@1)+3
	.ENDM

	.MACRO __PUTB1MN
	STS  @0+(@1),R30
	.ENDM

	.MACRO __PUTW1MN
	STS  @0+(@1),R30
	STS  @0+(@1)+1,R31
	.ENDM

	.MACRO __PUTD1MN
	STS  @0+(@1),R30
	STS  @0+(@1)+1,R31
	STS  @0+(@1)+2,R22
	STS  @0+(@1)+3,R23
	.ENDM

	.MACRO __PUTB1EN
	LDI  R26,LOW(@0+(@1))
	LDI  R27,HIGH(@0+(@1))
	CALL __EEPROMWRB
	.ENDM

	.MACRO __PUTW1EN
	LDI  R26,LOW(@0+(@1))
	LDI  R27,HIGH(@0+(@1))
	CALL __EEPROMWRW
	.ENDM

	.MACRO __PUTD1EN
	LDI  R26,LOW(@0+(@1))
	LDI  R27,HIGH(@0+(@1))
	CALL __EEPROMWRD
	.ENDM

	.MACRO __PUTBR0MN
	STS  @0+(@1),R0
	.ENDM

	.MACRO __PUTBMRN
	STS  @0+(@1),R@2
	.ENDM

	.MACRO __PUTWMRN
	STS  @0+(@1),R@2
	STS  @0+(@1)+1,R@3
	.ENDM

	.MACRO __PUTBZR
	STD  Z+@1,R@0
	.ENDM

	.MACRO __PUTWZR
	STD  Z+@2,R@0
	STD  Z+@2+1,R@1
	.ENDM

	.MACRO __GETW1R
	MOV  R30,R@0
	MOV  R31,R@1
	.ENDM

	.MACRO __GETW2R
	MOV  R26,R@0
	MOV  R27,R@1
	.ENDM

	.MACRO __GETWRN
	LDI  R@0,LOW(@2)
	LDI  R@1,HIGH(@2)
	.ENDM

	.MACRO __PUTW1R
	MOV  R@0,R30
	MOV  R@1,R31
	.ENDM

	.MACRO __PUTW2R
	MOV  R@0,R26
	MOV  R@1,R27
	.ENDM

	.MACRO __ADDWRN
	SUBI R@0,LOW(-@2)
	SBCI R@1,HIGH(-@2)
	.ENDM

	.MACRO __ADDWRR
	ADD  R@0,R@2
	ADC  R@1,R@3
	.ENDM

	.MACRO __SUBWRN
	SUBI R@0,LOW(@2)
	SBCI R@1,HIGH(@2)
	.ENDM

	.MACRO __SUBWRR
	SUB  R@0,R@2
	SBC  R@1,R@3
	.ENDM

	.MACRO __ANDWRN
	ANDI R@0,LOW(@2)
	ANDI R@1,HIGH(@2)
	.ENDM

	.MACRO __ANDWRR
	AND  R@0,R@2
	AND  R@1,R@3
	.ENDM

	.MACRO __ORWRN
	ORI  R@0,LOW(@2)
	ORI  R@1,HIGH(@2)
	.ENDM

	.MACRO __ORWRR
	OR   R@0,R@2
	OR   R@1,R@3
	.ENDM

	.MACRO __EORWRR
	EOR  R@0,R@2
	EOR  R@1,R@3
	.ENDM

	.MACRO __GETWRS
	LDD  R@0,Y+@2
	LDD  R@1,Y+@2+1
	.ENDM

	.MACRO __PUTBSR
	STD  Y+@1,R@0
	.ENDM

	.MACRO __PUTWSR
	STD  Y+@2,R@0
	STD  Y+@2+1,R@1
	.ENDM

	.MACRO __MOVEWRR
	MOV  R@0,R@2
	MOV  R@1,R@3
	.ENDM

	.MACRO __INWR
	IN   R@0,@2
	IN   R@1,@2+1
	.ENDM

	.MACRO __OUTWR
	OUT  @2+1,R@1
	OUT  @2,R@0
	.ENDM

	.MACRO __CALL1MN
	LDS  R30,@0+(@1)
	LDS  R31,@0+(@1)+1
	ICALL
	.ENDM

	.MACRO __CALL1FN
	LDI  R30,LOW(2*@0+(@1))
	LDI  R31,HIGH(2*@0+(@1))
	CALL __GETW1PF
	ICALL
	.ENDM

	.MACRO __CALL2EN
	PUSH R26
	PUSH R27
	LDI  R26,LOW(@0+(@1))
	LDI  R27,HIGH(@0+(@1))
	CALL __EEPROMRDW
	POP  R27
	POP  R26
	ICALL
	.ENDM

	.MACRO __CALL2EX
	SUBI R26,LOW(-@0)
	SBCI R27,HIGH(-@0)
	CALL __EEPROMRDD
	ICALL
	.ENDM

	.MACRO __GETW1STACK
	IN   R30,SPL
	IN   R31,SPH
	ADIW R30,@0+1
	LD   R0,Z+
	LD   R31,Z
	MOV  R30,R0
	.ENDM

	.MACRO __GETD1STACK
	IN   R30,SPL
	IN   R31,SPH
	ADIW R30,@0+1
	LD   R0,Z+
	LD   R1,Z+
	LD   R22,Z
	MOVW R30,R0
	.ENDM

	.MACRO __NBST
	BST  R@0,@1
	IN   R30,SREG
	LDI  R31,0x40
	EOR  R30,R31
	OUT  SREG,R30
	.ENDM


	.MACRO __PUTB1SN
	LDD  R26,Y+@0
	LDD  R27,Y+@0+1
	SUBI R26,LOW(-@1)
	SBCI R27,HIGH(-@1)
	ST   X,R30
	.ENDM

	.MACRO __PUTW1SN
	LDD  R26,Y+@0
	LDD  R27,Y+@0+1
	SUBI R26,LOW(-@1)
	SBCI R27,HIGH(-@1)
	ST   X+,R30
	ST   X,R31
	.ENDM

	.MACRO __PUTD1SN
	LDD  R26,Y+@0
	LDD  R27,Y+@0+1
	SUBI R26,LOW(-@1)
	SBCI R27,HIGH(-@1)
	CALL __PUTDP1
	.ENDM

	.MACRO __PUTB1SNS
	LDD  R26,Y+@0
	LDD  R27,Y+@0+1
	ADIW R26,@1
	ST   X,R30
	.ENDM

	.MACRO __PUTW1SNS
	LDD  R26,Y+@0
	LDD  R27,Y+@0+1
	ADIW R26,@1
	ST   X+,R30
	ST   X,R31
	.ENDM

	.MACRO __PUTD1SNS
	LDD  R26,Y+@0
	LDD  R27,Y+@0+1
	ADIW R26,@1
	CALL __PUTDP1
	.ENDM

	.MACRO __PUTB1PMN
	LDS  R26,@0
	LDS  R27,@0+1
	SUBI R26,LOW(-@1)
	SBCI R27,HIGH(-@1)
	ST   X,R30
	.ENDM

	.MACRO __PUTW1PMN
	LDS  R26,@0
	LDS  R27,@0+1
	SUBI R26,LOW(-@1)
	SBCI R27,HIGH(-@1)
	ST   X+,R30
	ST   X,R31
	.ENDM

	.MACRO __PUTD1PMN
	LDS  R26,@0
	LDS  R27,@0+1
	SUBI R26,LOW(-@1)
	SBCI R27,HIGH(-@1)
	CALL __PUTDP1
	.ENDM

	.MACRO __PUTB1PMNS
	LDS  R26,@0
	LDS  R27,@0+1
	ADIW R26,@1
	ST   X,R30
	.ENDM

	.MACRO __PUTW1PMNS
	LDS  R26,@0
	LDS  R27,@0+1
	ADIW R26,@1
	ST   X+,R30
	ST   X,R31
	.ENDM

	.MACRO __PUTD1PMNS
	LDS  R26,@0
	LDS  R27,@0+1
	ADIW R26,@1
	CALL __PUTDP1
	.ENDM

	.MACRO __PUTB1RN
	MOVW R26,R@0
	SUBI R26,LOW(-@1)
	SBCI R27,HIGH(-@1)
	ST   X,R30
	.ENDM

	.MACRO __PUTW1RN
	MOVW R26,R@0
	SUBI R26,LOW(-@1)
	SBCI R27,HIGH(-@1)
	ST   X+,R30
	ST   X,R31
	.ENDM

	.MACRO __PUTD1RN
	MOVW R26,R@0
	SUBI R26,LOW(-@1)
	SBCI R27,HIGH(-@1)
	CALL __PUTDP1
	.ENDM

	.MACRO __PUTB1RNS
	MOVW R26,R@0
	ADIW R26,@1
	ST   X,R30
	.ENDM

	.MACRO __PUTW1RNS
	MOVW R26,R@0
	ADIW R26,@1
	ST   X+,R30
	ST   X,R31
	.ENDM

	.MACRO __PUTD1RNS
	MOVW R26,R@0
	ADIW R26,@1
	CALL __PUTDP1
	.ENDM

	.MACRO __PUTB1RON
	MOV  R26,R@0
	MOV  R27,R@1
	SUBI R26,LOW(-@2)
	SBCI R27,HIGH(-@2)
	ST   X,R30
	.ENDM

	.MACRO __PUTW1RON
	MOV  R26,R@0
	MOV  R27,R@1
	SUBI R26,LOW(-@2)
	SBCI R27,HIGH(-@2)
	ST   X+,R30
	ST   X,R31
	.ENDM

	.MACRO __PUTD1RON
	MOV  R26,R@0
	MOV  R27,R@1
	SUBI R26,LOW(-@2)
	SBCI R27,HIGH(-@2)
	CALL __PUTDP1
	.ENDM

	.MACRO __PUTB1RONS
	MOV  R26,R@0
	MOV  R27,R@1
	ADIW R26,@2
	ST   X,R30
	.ENDM

	.MACRO __PUTW1RONS
	MOV  R26,R@0
	MOV  R27,R@1
	ADIW R26,@2
	ST   X+,R30
	ST   X,R31
	.ENDM

	.MACRO __PUTD1RONS
	MOV  R26,R@0
	MOV  R27,R@1
	ADIW R26,@2
	CALL __PUTDP1
	.ENDM


	.MACRO __GETB1SX
	MOVW R30,R28
	SUBI R30,LOW(-@0)
	SBCI R31,HIGH(-@0)
	LD   R30,Z
	.ENDM

	.MACRO __GETB1HSX
	MOVW R30,R28
	SUBI R30,LOW(-@0)
	SBCI R31,HIGH(-@0)
	LD   R31,Z
	.ENDM

	.MACRO __GETW1SX
	MOVW R30,R28
	SUBI R30,LOW(-@0)
	SBCI R31,HIGH(-@0)
	LD   R0,Z+
	LD   R31,Z
	MOV  R30,R0
	.ENDM

	.MACRO __GETD1SX
	MOVW R30,R28
	SUBI R30,LOW(-@0)
	SBCI R31,HIGH(-@0)
	LD   R0,Z+
	LD   R1,Z+
	LD   R22,Z+
	LD   R23,Z
	MOVW R30,R0
	.ENDM

	.MACRO __GETB2SX
	MOVW R26,R28
	SUBI R26,LOW(-@0)
	SBCI R27,HIGH(-@0)
	LD   R26,X
	.ENDM

	.MACRO __GETW2SX
	MOVW R26,R28
	SUBI R26,LOW(-@0)
	SBCI R27,HIGH(-@0)
	LD   R0,X+
	LD   R27,X
	MOV  R26,R0
	.ENDM

	.MACRO __GETD2SX
	MOVW R26,R28
	SUBI R26,LOW(-@0)
	SBCI R27,HIGH(-@0)
	LD   R0,X+
	LD   R1,X+
	LD   R24,X+
	LD   R25,X
	MOVW R26,R0
	.ENDM

	.MACRO __GETBRSX
	MOVW R30,R28
	SUBI R30,LOW(-@1)
	SBCI R31,HIGH(-@1)
	LD   R@0,Z
	.ENDM

	.MACRO __GETWRSX
	MOVW R30,R28
	SUBI R30,LOW(-@2)
	SBCI R31,HIGH(-@2)
	LD   R@0,Z+
	LD   R@1,Z
	.ENDM

	.MACRO __GETBRSX2
	MOVW R26,R28
	SUBI R26,LOW(-@1)
	SBCI R27,HIGH(-@1)
	LD   R@0,X
	.ENDM

	.MACRO __GETWRSX2
	MOVW R26,R28
	SUBI R26,LOW(-@2)
	SBCI R27,HIGH(-@2)
	LD   R@0,X+
	LD   R@1,X
	.ENDM

	.MACRO __LSLW8SX
	MOVW R30,R28
	SUBI R30,LOW(-@0)
	SBCI R31,HIGH(-@0)
	LD   R31,Z
	CLR  R30
	.ENDM

	.MACRO __PUTB1SX
	MOVW R26,R28
	SUBI R26,LOW(-@0)
	SBCI R27,HIGH(-@0)
	ST   X,R30
	.ENDM

	.MACRO __PUTW1SX
	MOVW R26,R28
	SUBI R26,LOW(-@0)
	SBCI R27,HIGH(-@0)
	ST   X+,R30
	ST   X,R31
	.ENDM

	.MACRO __PUTD1SX
	MOVW R26,R28
	SUBI R26,LOW(-@0)
	SBCI R27,HIGH(-@0)
	ST   X+,R30
	ST   X+,R31
	ST   X+,R22
	ST   X,R23
	.ENDM

	.MACRO __CLRW1SX
	MOVW R26,R28
	SUBI R26,LOW(-@0)
	SBCI R27,HIGH(-@0)
	ST   X+,R30
	ST   X,R30
	.ENDM

	.MACRO __CLRD1SX
	MOVW R26,R28
	SUBI R26,LOW(-@0)
	SBCI R27,HIGH(-@0)
	ST   X+,R30
	ST   X+,R30
	ST   X+,R30
	ST   X,R30
	.ENDM

	.MACRO __PUTB2SX
	MOVW R30,R28
	SUBI R30,LOW(-@0)
	SBCI R31,HIGH(-@0)
	ST   Z,R26
	.ENDM

	.MACRO __PUTW2SX
	MOVW R30,R28
	SUBI R30,LOW(-@0)
	SBCI R31,HIGH(-@0)
	ST   Z+,R26
	ST   Z,R27
	.ENDM

	.MACRO __PUTD2SX
	MOVW R30,R28
	SUBI R30,LOW(-@0)
	SBCI R31,HIGH(-@0)
	ST   Z+,R26
	ST   Z+,R27
	ST   Z+,R24
	ST   Z,R25
	.ENDM

	.MACRO __PUTBSRX
	MOVW R30,R28
	SUBI R30,LOW(-@1)
	SBCI R31,HIGH(-@1)
	ST   Z,R@0
	.ENDM

	.MACRO __PUTWSRX
	MOVW R30,R28
	SUBI R30,LOW(-@2)
	SBCI R31,HIGH(-@2)
	ST   Z+,R@0
	ST   Z,R@1
	.ENDM

	.MACRO __PUTB1SNX
	MOVW R26,R28
	SUBI R26,LOW(-@0)
	SBCI R27,HIGH(-@0)
	LD   R0,X+
	LD   R27,X
	MOV  R26,R0
	SUBI R26,LOW(-@1)
	SBCI R27,HIGH(-@1)
	ST   X,R30
	.ENDM

	.MACRO __PUTW1SNX
	MOVW R26,R28
	SUBI R26,LOW(-@0)
	SBCI R27,HIGH(-@0)
	LD   R0,X+
	LD   R27,X
	MOV  R26,R0
	SUBI R26,LOW(-@1)
	SBCI R27,HIGH(-@1)
	ST   X+,R30
	ST   X,R31
	.ENDM

	.MACRO __PUTD1SNX
	MOVW R26,R28
	SUBI R26,LOW(-@0)
	SBCI R27,HIGH(-@0)
	LD   R0,X+
	LD   R27,X
	MOV  R26,R0
	SUBI R26,LOW(-@1)
	SBCI R27,HIGH(-@1)
	ST   X+,R30
	ST   X+,R31
	ST   X+,R22
	ST   X,R23
	.ENDM

	.MACRO __MULBRR
	MULS R@0,R@1
	MOVW R30,R0
	.ENDM

	.MACRO __MULBRRU
	MUL  R@0,R@1
	MOVW R30,R0
	.ENDM

	.MACRO __MULBRR0
	MULS R@0,R@1
	.ENDM

	.MACRO __MULBRRU0
	MUL  R@0,R@1
	.ENDM

	.MACRO __MULBNWRU
	LDI  R26,@2
	MUL  R26,R@0
	MOVW R30,R0
	MUL  R26,R@1
	ADD  R31,R0
	.ENDM

;NAME DEFINITIONS FOR GLOBAL VARIABLES ALLOCATED TO REGISTERS
	.DEF _c=R5
	.DEF _j=R4
	.DEF __hour=R7
	.DEF __min=R6
	.DEF __sec=R9
	.DEF __wday=R8
	.DEF __year=R11
	.DEF __month=R10
	.DEF __day=R13
	.DEF _lastsec=R12

	.CSEG
	.ORG 0x00

;START OF CODE MARKER
__START_OF_CODE:

;INTERRUPT VECTORS
	JMP  __RESET
	JMP  0x00
	JMP  0x00
	JMP  0x00
	JMP  0x00
	JMP  0x00
	JMP  0x00
	JMP  0x00
	JMP  0x00
	JMP  0x00
	JMP  0x00
	JMP  0x00
	JMP  0x00
	JMP  0x00
	JMP  0x00
	JMP  0x00
	JMP  0x00
	JMP  0x00
	JMP  0x00
	JMP  0x00
	JMP  0x00

_font5x7:
	.DB  0x5,0x7,0x20,0x60,0x0,0x0,0x0,0x0
	.DB  0x0,0x0,0x0,0x4,0x4,0x4,0x4,0x4
	.DB  0x0,0x4,0xA,0xA,0xA,0x0,0x0,0x0
	.DB  0x0,0xA,0xA,0x1F,0xA,0x1F,0xA,0xA
	.DB  0x4,0x1E,0x5,0xE,0x14,0xF,0x4,0x3
	.DB  0x13,0x8,0x4,0x2,0x19,0x18,0x6,0x9
	.DB  0x5,0x2,0x15,0x9,0x16,0x6,0x4,0x2
	.DB  0x0,0x0,0x0,0x0,0x8,0x4,0x2,0x2
	.DB  0x2,0x4,0x8,0x2,0x4,0x8,0x8,0x8
	.DB  0x4,0x2,0x0,0xA,0x4,0x1F,0x4,0xA
	.DB  0x0,0x0,0x4,0x4,0x1F,0x4,0x4,0x0
	.DB  0x0,0x0,0x0,0x0,0x6,0x4,0x2,0x0
	.DB  0x0,0x0,0x1F,0x0,0x0,0x0,0x0,0x0
	.DB  0x0,0x0,0x6,0x6,0x0,0x0,0x10,0x8
	.DB  0x4,0x2,0x1,0x0,0xE,0x11,0x19,0x15
	.DB  0x13,0x11,0xE,0x4,0x6,0x4,0x4,0x4
	.DB  0x4,0xE,0xE,0x11,0x10,0x8,0x4,0x2
	.DB  0x1F,0x1F,0x8,0x4,0x8,0x10,0x11,0xE
	.DB  0x8,0xC,0xA,0x9,0x1F,0x8,0x8,0x1F
	.DB  0x1,0xF,0x10,0x10,0x11,0xE,0xC,0x2
	.DB  0x1,0xF,0x11,0x11,0xE,0x1F,0x10,0x8
	.DB  0x4,0x2,0x2,0x2,0xE,0x11,0x11,0xE
	.DB  0x11,0x11,0xE,0xE,0x11,0x11,0x1E,0x10
	.DB  0x8,0x6,0x0,0x6,0x6,0x0,0x6,0x6
	.DB  0x0,0x0,0x6,0x6,0x0,0x6,0x4,0x2
	.DB  0x10,0x8,0x4,0x2,0x4,0x8,0x10,0x0
	.DB  0x0,0x1F,0x0,0x1F,0x0,0x0,0x1,0x2
	.DB  0x4,0x8,0x4,0x2,0x1,0xE,0x11,0x10
	.DB  0x8,0x4,0x0,0x4,0xE,0x11,0x10,0x16
	.DB  0x15,0x15,0xE,0xE,0x11,0x11,0x11,0x1F
	.DB  0x11,0x11,0xF,0x11,0x11,0xF,0x11,0x11
	.DB  0xF,0xE,0x11,0x1,0x1,0x1,0x11,0xE
	.DB  0x7,0x9,0x11,0x11,0x11,0x9,0x7,0x1F
	.DB  0x1,0x1,0xF,0x1,0x1,0x1F,0x1F,0x1
	.DB  0x1,0x7,0x1,0x1,0x1,0xE,0x11,0x1
	.DB  0x1,0x19,0x11,0xE,0x11,0x11,0x11,0x1F
	.DB  0x11,0x11,0x11,0xE,0x4,0x4,0x4,0x4
	.DB  0x4,0xE,0x1C,0x8,0x8,0x8,0x8,0x9
	.DB  0x6,0x11,0x9,0x5,0x3,0x5,0x9,0x11
	.DB  0x1,0x1,0x1,0x1,0x1,0x1,0x1F,0x11
	.DB  0x1B,0x15,0x11,0x11,0x11,0x11,0x11,0x11
	.DB  0x13,0x15,0x19,0x11,0x11,0xE,0x11,0x11
	.DB  0x11,0x11,0x11,0xE,0xF,0x11,0x11,0xF
	.DB  0x1,0x1,0x1,0xE,0x11,0x11,0x11,0x15
	.DB  0x9,0x16,0xF,0x11,0x11,0xF,0x5,0x9
	.DB  0x11,0x1E,0x1,0x1,0xE,0x10,0x10,0xF
	.DB  0x1F,0x4,0x4,0x4,0x4,0x4,0x4,0x11
	.DB  0x11,0x11,0x11,0x11,0x11,0xE,0x11,0x11
	.DB  0x11,0x11,0x11,0xA,0x4,0x11,0x11,0x11
	.DB  0x15,0x15,0x1B,0x11,0x11,0x11,0xA,0x4
	.DB  0xA,0x11,0x11,0x11,0x11,0xA,0x4,0x4
	.DB  0x4,0x4,0x1F,0x10,0x8,0x4,0x2,0x1
	.DB  0x1F,0x1C,0x4,0x4,0x4,0x4,0x4,0x1C
	.DB  0x0,0x1,0x2,0x4,0x8,0x10,0x0,0x7
	.DB  0x4,0x4,0x4,0x4,0x4,0x7,0x4,0xA
	.DB  0x11,0x0,0x0,0x0,0x0,0x0,0x0,0x0
	.DB  0x0,0x0,0x0,0x1F,0x2,0x4,0x8,0x0
	.DB  0x0,0x0,0x0,0x0,0x0,0xE,0x10,0x1E
	.DB  0x11,0x1E,0x1,0x1,0xD,0x13,0x11,0x11
	.DB  0xF,0x0,0x0,0xE,0x1,0x1,0x11,0xE
	.DB  0x10,0x10,0x16,0x19,0x11,0x11,0x1E,0x0
	.DB  0x0,0xE,0x11,0x1F,0x1,0xE,0xC,0x12
	.DB  0x2,0x7,0x2,0x2,0x2,0x0,0x0,0x1E
	.DB  0x11,0x1E,0x10,0xC,0x1,0x1,0xD,0x13
	.DB  0x11,0x11,0x11,0x4,0x0,0x6,0x4,0x4
	.DB  0x4,0xE,0x8,0x0,0xC,0x8,0x8,0x9
	.DB  0x6,0x2,0x2,0x12,0xA,0x6,0xA,0x12
	.DB  0x6,0x4,0x4,0x4,0x4,0x4,0xE,0x0
	.DB  0x0,0xB,0x15,0x15,0x11,0x11,0x0,0x0
	.DB  0xD,0x13,0x11,0x11,0x11,0x0,0x0,0xE
	.DB  0x11,0x11,0x11,0xE,0x0,0x0,0xF,0x11
	.DB  0xF,0x1,0x1,0x0,0x0,0x16,0x19,0x1E
	.DB  0x10,0x10,0x0,0x0,0xD,0x13,0x1,0x1
	.DB  0x1,0x0,0x0,0xE,0x1,0xE,0x10,0xF
	.DB  0x2,0x2,0x7,0x2,0x2,0x12,0xC,0x0
	.DB  0x0,0x11,0x11,0x11,0x19,0x16,0x0,0x0
	.DB  0x11,0x11,0x11,0xA,0x4,0x0,0x0,0x11
	.DB  0x11,0x15,0x15,0xA,0x0,0x0,0x11,0xA
	.DB  0x4,0xA,0x11,0x0,0x0,0x11,0x11,0x1E
	.DB  0x10,0xE,0x0,0x0,0x1F,0x8,0x4,0x2
	.DB  0x1F,0x8,0x4,0x4,0x2,0x4,0x4,0x8
	.DB  0x4,0x4,0x4,0x4,0x4,0x4,0x4,0x2
	.DB  0x4,0x4,0x8,0x4,0x4,0x2,0x2,0x15
	.DB  0x8,0x0,0x0,0x0,0x0,0x1F,0x11,0x11
	.DB  0x11,0x11,0x11,0x1F
_arial:
	.DB  0x0,0xE,0x20,0x60,0x5,0x2,0x4,0x6
	.DB  0x6,0xA,0x7,0x2,0x4,0x4,0x4,0x6
	.DB  0x3,0x4,0x3,0x3,0x6,0x6,0x6,0x6
	.DB  0x6,0x6,0x6,0x6,0x6,0x6,0x3,0x3
	.DB  0x6,0x6,0x6,0x6,0xB,0x8,0x7,0x7
	.DB  0x7,0x6,0x6,0x8,0x7,0x2,0x5,0x7
	.DB  0x6,0x8,0x7,0x8,0x6,0x8,0x7,0x7
	.DB  0x6,0x7,0x8,0xB,0x7,0x8,0x7,0x3
	.DB  0x3,0x3,0x5,0x6,0x4,0x6,0x6,0x6
	.DB  0x6,0x6,0x4,0x6,0x6,0x2,0x2,0x5
	.DB  0x2,0x8,0x6,0x6,0x6,0x6,0x4,0x6
	.DB  0x3,0x6,0x6,0xA,0x6,0x6,0x6,0x4
	.DB  0x2,0x4,0x6,0x8,0x0,0x0,0x0,0x0
	.DB  0x0,0x0,0x0,0x0,0x0,0x0,0x0,0x0
	.DB  0x0,0x0,0x0,0x0,0x0,0x1,0x1,0x1
	.DB  0x1,0x1,0x1,0x0,0x1,0x0,0x0,0x0
	.DB  0x0,0x0,0x0,0x5,0x5,0x5,0x0,0x0
	.DB  0x0,0x0,0x0,0x0,0x0,0x0,0x0,0x0
	.DB  0x0,0x14,0x14,0x1F,0xA,0xA,0x1F,0x5
	.DB  0x5,0x0,0x0,0x0,0x0,0x0,0x0,0xE
	.DB  0x15,0x5,0xE,0x14,0x14,0x15,0xE,0x4
	.DB  0x0,0x0,0x0,0x0,0x0,0x0,0x0,0x0
	.DB  0x46,0x0,0x29,0x0,0x29,0x0,0x16,0x0
	.DB  0xD0,0x0,0x28,0x1,0x28,0x1,0xC4,0x0
	.DB  0x0,0x0,0x0,0x0,0x0,0x0,0x0,0x0
	.DB  0x0,0xC,0x12,0x12,0xC,0xA,0x31,0x11
	.DB  0x2E,0x0,0x0,0x0,0x0,0x0,0x0,0x1
	.DB  0x1,0x1,0x0,0x0,0x0,0x0,0x0,0x0
	.DB  0x0,0x0,0x0,0x0,0x0,0x4,0x2,0x1
	.DB  0x1,0x1,0x1,0x1,0x1,0x2,0x4,0x0
	.DB  0x0,0x0,0x0,0x1,0x2,0x4,0x4,0x4
	.DB  0x4,0x4,0x4,0x2,0x1,0x0,0x0,0x0
	.DB  0x0,0x2,0x7,0x2,0x5,0x0,0x0,0x0
	.DB  0x0,0x0,0x0,0x0,0x0,0x0,0x0,0x0
	.DB  0x0,0x4,0x4,0x1F,0x4,0x4,0x0,0x0
	.DB  0x0,0x0,0x0,0x0,0x0,0x0,0x0,0x0
	.DB  0x0,0x0,0x0,0x0,0x2,0x2,0x2,0x0
	.DB  0x0,0x0,0x0,0x0,0x0,0x0,0x0,0x0
	.DB  0x7,0x0,0x0,0x0,0x0,0x0,0x0,0x0
	.DB  0x0,0x0,0x0,0x0,0x0,0x0,0x0,0x0
	.DB  0x2,0x0,0x0,0x0,0x0,0x0,0x0,0x4
	.DB  0x4,0x2,0x2,0x2,0x2,0x1,0x1,0x0
	.DB  0x0,0x0,0x0,0x0,0x0,0xE,0x11,0x11
	.DB  0x11,0x11,0x11,0x11,0xE,0x0,0x0,0x0
	.DB  0x0,0x0,0x0,0x4,0x6,0x5,0x4,0x4
	.DB  0x4,0x4,0x4,0x0,0x0,0x0,0x0,0x0
	.DB  0x0,0xE,0x11,0x10,0x10,0x8,0x4,0x2
	.DB  0x1F,0x0,0x0,0x0,0x0,0x0,0x0,0xE
	.DB  0x11,0x10,0xC,0x10,0x10,0x11,0xE,0x0
	.DB  0x0,0x0,0x0,0x0,0x0,0x8,0xC,0xA
	.DB  0xA,0x9,0x1F,0x8,0x8,0x0,0x0,0x0
	.DB  0x0,0x0,0x0,0x1E,0x2,0x1,0xF,0x10
	.DB  0x10,0x11,0xE,0x0,0x0,0x0,0x0,0x0
	.DB  0x0,0xE,0x11,0x1,0xF,0x11,0x11,0x11
	.DB  0xE,0x0,0x0,0x0,0x0,0x0,0x0,0x1F
	.DB  0x8,0x8,0x4,0x4,0x2,0x2,0x2,0x0
	.DB  0x0,0x0,0x0,0x0,0x0,0xE,0x11,0x11
	.DB  0xE,0x11,0x11,0x11,0xE,0x0,0x0,0x0
	.DB  0x0,0x0,0x0,0xE,0x11,0x11,0x11,0x1E
	.DB  0x10,0x11,0xE,0x0,0x0,0x0,0x0,0x0
	.DB  0x0,0x0,0x0,0x1,0x0,0x0,0x0,0x0
	.DB  0x1,0x0,0x0,0x0,0x0,0x0,0x0,0x0
	.DB  0x0,0x1,0x0,0x0,0x0,0x0,0x1,0x1
	.DB  0x1,0x0,0x0,0x0,0x0,0x0,0x0,0x10
	.DB  0xE,0x1,0xE,0x10,0x0,0x0,0x0,0x0
	.DB  0x0,0x0,0x0,0x0,0x0,0x0,0x1F,0x0
	.DB  0x1F,0x0,0x0,0x0,0x0,0x0,0x0,0x0
	.DB  0x0,0x0,0x0,0x1,0xE,0x10,0xE,0x1
	.DB  0x0,0x0,0x0,0x0,0x0,0x0,0x0,0xE
	.DB  0x11,0x10,0x8,0x4,0x4,0x0,0x4,0x0
	.DB  0x0,0x0,0x0,0x0,0x0,0x0,0x0,0x0
	.DB  0xF8,0x0,0x6,0x1,0xB2,0x2,0xC9,0x2
	.DB  0x45,0x2,0x45,0x2,0x65,0x1,0xD9,0x0
	.DB  0x2,0x2,0xFC,0x1,0x0,0x0,0x0,0x0
	.DB  0x0,0x8,0x14,0x14,0x14,0x22,0x3E,0x41
	.DB  0x41,0x0,0x0,0x0,0x0,0x0,0x0,0x1F
	.DB  0x21,0x21,0x3F,0x21,0x21,0x21,0x1F,0x0
	.DB  0x0,0x0,0x0,0x0,0x0,0x1C,0x22,0x1
	.DB  0x1,0x1,0x1,0x22,0x1C,0x0,0x0,0x0
	.DB  0x0,0x0,0x0,0xF,0x11,0x21,0x21,0x21
	.DB  0x21,0x11,0xF,0x0,0x0,0x0,0x0,0x0
	.DB  0x0,0x1F,0x1,0x1,0x1F,0x1,0x1,0x1
	.DB  0x1F,0x0,0x0,0x0,0x0,0x0,0x0,0x1F
	.DB  0x1,0x1,0xF,0x1,0x1,0x1,0x1,0x0
	.DB  0x0,0x0,0x0,0x0,0x0,0x1C,0x22,0x41
	.DB  0x1,0x71,0x41,0x22,0x1C,0x0,0x0,0x0
	.DB  0x0,0x0,0x0,0x21,0x21,0x21,0x3F,0x21
	.DB  0x21,0x21,0x21,0x0,0x0,0x0,0x0,0x0
	.DB  0x0,0x1,0x1,0x1,0x1,0x1,0x1,0x1
	.DB  0x1,0x0,0x0,0x0,0x0,0x0,0x0,0x8
	.DB  0x8,0x8,0x8,0x8,0x9,0x9,0x6,0x0
	.DB  0x0,0x0,0x0,0x0,0x0,0x21,0x11,0x9
	.DB  0xD,0xB,0x11,0x11,0x21,0x0,0x0,0x0
	.DB  0x0,0x0,0x0,0x1,0x1,0x1,0x1,0x1
	.DB  0x1,0x1,0x1F,0x0,0x0,0x0,0x0,0x0
	.DB  0x0,0x41,0x63,0x63,0x55,0x55,0x55,0x49
	.DB  0x49,0x0,0x0,0x0,0x0,0x0,0x0,0x21
	.DB  0x23,0x25,0x25,0x29,0x29,0x31,0x21,0x0
	.DB  0x0,0x0,0x0,0x0,0x0,0x1C,0x22,0x41
	.DB  0x41,0x41,0x41,0x22,0x1C,0x0,0x0,0x0
	.DB  0x0,0x0,0x0,0xF,0x11,0x11,0x11,0xF
	.DB  0x1,0x1,0x1,0x0,0x0,0x0,0x0,0x0
	.DB  0x0,0x1C,0x22,0x41,0x41,0x41,0x59,0x22
	.DB  0x5C,0x0,0x0,0x0,0x0,0x0,0x0,0x1F
	.DB  0x21,0x21,0x1F,0x9,0x11,0x11,0x21,0x0
	.DB  0x0,0x0,0x0,0x0,0x0,0x1E,0x21,0x1
	.DB  0x6,0x18,0x20,0x21,0x1E,0x0,0x0,0x0
	.DB  0x0,0x0,0x0,0x1F,0x4,0x4,0x4,0x4
	.DB  0x4,0x4,0x4,0x0,0x0,0x0,0x0,0x0
	.DB  0x0,0x21,0x21,0x21,0x21,0x21,0x21,0x21
	.DB  0x1E,0x0,0x0,0x0,0x0,0x0,0x0,0x41
	.DB  0x41,0x22,0x22,0x14,0x14,0x8,0x8,0x0
	.DB  0x0,0x0,0x0,0x0,0x0,0x0,0x0,0x0
	.DB  0x21,0x4,0x51,0x4,0x52,0x2,0x52,0x2
	.DB  0x8A,0x2,0x8A,0x2,0x4,0x1,0x4,0x1
	.DB  0x0,0x0,0x0,0x0,0x0,0x0,0x0,0x0
	.DB  0x0,0x21,0x12,0x12,0xC,0xC,0x12,0x12
	.DB  0x21,0x0,0x0,0x0,0x0,0x0,0x0,0x41
	.DB  0x22,0x22,0x14,0x8,0x8,0x8,0x8,0x0
	.DB  0x0,0x0,0x0,0x0,0x0,0x3E,0x10,0x8
	.DB  0x8,0x4,0x4,0x2,0x3F,0x0,0x0,0x0
	.DB  0x0,0x0,0x0,0x3,0x1,0x1,0x1,0x1
	.DB  0x1,0x1,0x1,0x1,0x3,0x0,0x0,0x0
	.DB  0x0,0x1,0x1,0x2,0x2,0x2,0x2,0x4
	.DB  0x4,0x0,0x0,0x0,0x0,0x0,0x0,0x3
	.DB  0x2,0x2,0x2,0x2,0x2,0x2,0x2,0x2
	.DB  0x3,0x0,0x0,0x0,0x0,0x4,0xA,0xA
	.DB  0x11,0x0,0x0,0x0,0x0,0x0,0x0,0x0
	.DB  0x0,0x0,0x0,0x0,0x0,0x0,0x0,0x0
	.DB  0x0,0x0,0x0,0x0,0x3F,0x0,0x0,0x0
	.DB  0x0,0x1,0x2,0x0,0x0,0x0,0x0,0x0
	.DB  0x0,0x0,0x0,0x0,0x0,0x0,0x0,0x0
	.DB  0x0,0xE,0x11,0x1E,0x11,0x19,0x16,0x0
	.DB  0x0,0x0,0x0,0x0,0x0,0x1,0x1,0xD
	.DB  0x13,0x11,0x11,0x13,0xD,0x0,0x0,0x0
	.DB  0x0,0x0,0x0,0x0,0x0,0xE,0x11,0x1
	.DB  0x1,0x11,0xE,0x0,0x0,0x0,0x0,0x0
	.DB  0x0,0x10,0x10,0x16,0x19,0x11,0x11,0x19
	.DB  0x16,0x0,0x0,0x0,0x0,0x0,0x0,0x0
	.DB  0x0,0xE,0x11,0x1F,0x1,0x11,0xE,0x0
	.DB  0x0,0x0,0x0,0x0,0x0,0x4,0x2,0x7
	.DB  0x2,0x2,0x2,0x2,0x2,0x0,0x0,0x0
	.DB  0x0,0x0,0x0,0x0,0x0,0x16,0x19,0x11
	.DB  0x11,0x19,0x16,0x10,0xF,0x0,0x0,0x0
	.DB  0x0,0x1,0x1,0xD,0x13,0x11,0x11,0x11
	.DB  0x11,0x0,0x0,0x0,0x0,0x0,0x0,0x1
	.DB  0x0,0x1,0x1,0x1,0x1,0x1,0x1,0x0
	.DB  0x0,0x0,0x0,0x0,0x0,0x2,0x0,0x2
	.DB  0x2,0x2,0x2,0x2,0x2,0x2,0x1,0x0
	.DB  0x0,0x0,0x0,0x1,0x1,0x9,0x5,0x3
	.DB  0x5,0x5,0x9,0x0,0x0,0x0,0x0,0x0
	.DB  0x0,0x1,0x1,0x1,0x1,0x1,0x1,0x1
	.DB  0x1,0x0,0x0,0x0,0x0,0x0,0x0,0x0
	.DB  0x0,0x3D,0x4B,0x49,0x49,0x49,0x49,0x0
	.DB  0x0,0x0,0x0,0x0,0x0,0x0,0x0,0xF
	.DB  0x11,0x11,0x11,0x11,0x11,0x0,0x0,0x0
	.DB  0x0,0x0,0x0,0x0,0x0,0xE,0x11,0x11
	.DB  0x11,0x11,0xE,0x0,0x0,0x0,0x0,0x0
	.DB  0x0,0x0,0x0,0xD,0x13,0x11,0x11,0x13
	.DB  0xD,0x1,0x1,0x0,0x0,0x0,0x0,0x0
	.DB  0x0,0x16,0x19,0x11,0x11,0x19,0x16,0x10
	.DB  0x10,0x0,0x0,0x0,0x0,0x0,0x0,0x5
	.DB  0x3,0x1,0x1,0x1,0x1,0x0,0x0,0x0
	.DB  0x0,0x0,0x0,0x0,0x0,0xE,0x11,0x6
	.DB  0x8,0x11,0xE,0x0,0x0,0x0,0x0,0x0
	.DB  0x0,0x2,0x2,0x7,0x2,0x2,0x2,0x2
	.DB  0x6,0x0,0x0,0x0,0x0,0x0,0x0,0x0
	.DB  0x0,0x11,0x11,0x11,0x11,0x19,0x16,0x0
	.DB  0x0,0x0,0x0,0x0,0x0,0x0,0x0,0x11
	.DB  0x11,0xA,0xA,0x4,0x4,0x0,0x0,0x0
	.DB  0x0,0x0,0x0,0x0,0x0,0x0,0x0,0x0
	.DB  0x0,0x0,0x11,0x1,0x29,0x1,0xAA,0x0
	.DB  0xAA,0x0,0x44,0x0,0x44,0x0,0x0,0x0
	.DB  0x0,0x0,0x0,0x0,0x0,0x0,0x0,0x0
	.DB  0x0,0x11,0xA,0x4,0x4,0xA,0x11,0x0
	.DB  0x0,0x0,0x0,0x0,0x0,0x0,0x0,0x11
	.DB  0x11,0xA,0xA,0x4,0x4,0x4,0x2,0x0
	.DB  0x0,0x0,0x0,0x0,0x0,0x1F,0x8,0x4
	.DB  0x4,0x2,0x1F,0x0,0x0,0x0,0x0,0x0
	.DB  0x0,0x4,0x2,0x2,0x2,0x1,0x2,0x2
	.DB  0x2,0x2,0x4,0x0,0x0,0x0,0x0,0x1
	.DB  0x1,0x1,0x1,0x1,0x1,0x1,0x1,0x1
	.DB  0x1,0x0,0x0,0x0,0x0,0x2,0x4,0x4
	.DB  0x4,0x8,0x4,0x4,0x4,0x4,0x2,0x0
	.DB  0x0,0x0,0x0,0x0,0x0,0x0,0x17,0xD
	.DB  0x0,0x0,0x0,0x0,0x0,0x0,0x0,0x0
	.DB  0x0,0x7E,0x42,0x42,0x42,0x42,0x42,0x42
	.DB  0x7E,0x0,0x0,0x0
_truck:
	.DB  0x80,0x0,0x40,0x0,0x0,0x0,0x0,0x0
	.DB  0x0,0x0,0x0,0x0,0x0,0x0,0x0,0x0
	.DB  0x0,0x0,0x0,0x0,0x0,0x0,0x0,0x0
	.DB  0x0,0x0,0x0,0x0,0x0,0x0,0x0,0x0
	.DB  0x0,0x0,0x0,0x0,0x0,0x0,0x0,0x0
	.DB  0x0,0x0,0x0,0x0,0x0,0x0,0x0,0x0
	.DB  0x0,0x0,0x0,0x0,0x0,0x0,0x0,0x0
	.DB  0x0,0x0,0x0,0x0,0x0,0x0,0x0,0x0
	.DB  0x0,0x0,0x0,0x0,0x0,0x0,0x0,0x0
	.DB  0x0,0x0,0x0,0x0,0x0,0x0,0x0,0x0
	.DB  0x0,0x0,0x0,0x0,0x0,0x0,0x0,0x0
	.DB  0x0,0x0,0x0,0x0,0x0,0x0,0x0,0x0
	.DB  0x0,0x0,0x0,0x0,0x0,0x0,0x0,0x0
	.DB  0x0,0x0,0x0,0x0,0x0,0x0,0x0,0x0
	.DB  0x0,0x0,0x0,0x0,0x0,0x0,0x0,0x0
	.DB  0x0,0x0,0x0,0x0,0x0,0x0,0x0,0x0
	.DB  0x0,0x0,0x0,0x0,0x0,0x0,0x0,0x0
	.DB  0x0,0x0,0x0,0x0,0x0,0x0,0x0,0x0
	.DB  0x0,0x0,0x0,0x0,0x0,0x0,0x0,0x0
	.DB  0x0,0x0,0x0,0x0,0x0,0x0,0x0,0x0
	.DB  0x0,0x0,0x0,0x0,0x0,0x0,0x0,0x0
	.DB  0x0,0x0,0x0,0x0,0x0,0x0,0x0,0x0
	.DB  0x0,0x0,0x0,0x0,0x0,0x0,0x0,0x0
	.DB  0x0,0x0,0x0,0x0,0x0,0x0,0x0,0x0
	.DB  0x0,0x0,0x0,0x0,0x0,0x0,0x0,0x0
	.DB  0x0,0x0,0x0,0x0,0x0,0x0,0x0,0x0
	.DB  0x0,0x0,0x0,0x0,0x0,0x0,0x80,0xFF
	.DB  0xFF,0xFF,0xFF,0xFF,0xFF,0xEF,0x3F,0x0
	.DB  0x0,0x0,0x0,0x0,0x0,0x0,0x7E,0x0
	.DB  0x0,0x0,0x0,0x0,0xE0,0x7,0x0,0x7
	.DB  0x0,0x0,0x0,0x0,0x0,0xF0,0x1,0x0
	.DB  0x0,0x0,0x0,0x0,0xDC,0x0,0x0,0x10
	.DB  0x0,0x0,0x0,0x0,0x80,0xFF,0xFF,0xFF
	.DB  0xFF,0xFF,0xFF,0xFF,0x13,0x0,0x0,0x30
	.DB  0x0,0x0,0x0,0x0,0x20,0x0,0x0,0x0
	.DB  0x0,0x0,0x0,0x20,0x8,0x0,0x0,0xC
	.DB  0x0,0x0,0x0,0x0,0x20,0xF0,0xC0,0xC3
	.DB  0x3,0x7C,0xF8,0x27,0x8,0x0,0x80,0x51
	.DB  0x0,0x0,0x0,0x0,0x20,0xF0,0xC0,0xC3
	.DB  0x7,0x7E,0xF8,0x27,0xE8,0xFF,0x4F,0x0
	.DB  0x0,0x0,0x0,0x0,0x20,0xF0,0xC0,0xC3
	.DB  0xF,0x7E,0xF8,0x2F,0x8,0x0,0x50,0xA0
	.DB  0x0,0x0,0x0,0x0,0x20,0xF0,0xC0,0xC3
	.DB  0x1F,0x7F,0x78,0x20,0x28,0x0,0xA0,0x80
	.DB  0x1D,0x0,0x0,0x0,0x20,0xF0,0xC0,0xC3
	.DB  0xBF,0x7F,0xF8,0x23,0x8,0x0,0x20,0xE0
	.DB  0xE,0xF,0x0,0x0,0x20,0xF0,0xC0,0xC3
	.DB  0xFF,0x7F,0xF8,0x23,0x28,0x0,0x20,0x9
	.DB  0xC3,0x7,0x2,0x0,0x20,0xF0,0xC0,0xC3
	.DB  0xFF,0x7F,0xF8,0x23,0x20,0x0,0x0,0x40
	.DB  0x0,0xE0,0xC,0x0,0x20,0xF0,0xC0,0xC3
	.DB  0xFB,0x7B,0x78,0x20,0xD0,0xFF,0x7F,0xE0
	.DB  0x0,0x0,0x64,0x0,0x20,0xF0,0xCF,0xC3
	.DB  0xFB,0x79,0xF8,0x2F,0xD8,0x1,0x80,0x10
	.DB  0xF8,0x0,0x68,0x0,0x20,0xF0,0xCF,0xC3
	.DB  0xF3,0x78,0xF8,0x27,0x48,0x0,0x80,0x0
	.DB  0x0,0xE0,0x60,0x1,0x20,0xF0,0xCF,0xC3
	.DB  0x63,0x78,0xF8,0x2F,0x18,0x0,0xC0,0x6
	.DB  0x80,0x1F,0x31,0x1,0xE0,0xFF,0xFF,0xFF
	.DB  0xFF,0xFF,0xFF,0x3F,0x1E,0x0,0xC0,0x1
	.DB  0x0,0x80,0x73,0x1,0xC0,0xFF,0xFF,0xFF
	.DB  0xFF,0xFF,0xFF,0xFF,0x1D,0x0,0x60,0x0
	.DB  0x0,0x0,0x35,0x0,0x0,0x2,0x0,0x0
	.DB  0x0,0x0,0x0,0x0,0x1A,0x0,0x0,0x0
	.DB  0x0,0x0,0xD0,0x0,0x0,0xFE,0xFF,0xFF
	.DB  0xFF,0xFF,0xFF,0xFF,0x1F,0x0,0x10,0x0
	.DB  0x0,0x0,0x11,0x0,0x0,0x0,0xFC,0x1F
	.DB  0x62,0xFF,0xFF,0xFF,0xF,0x0,0x10,0x0
	.DB  0x0,0x0,0x81,0x0,0x0,0x0,0xFC,0xF9
	.DB  0x87,0xFD,0xFF,0xFF,0x1F,0x0,0x10,0x0
	.DB  0xFE,0x7,0x21,0x0,0x0,0x0,0xFC,0xFE
	.DB  0xF,0xF7,0xFF,0xFF,0xFF,0xFF,0x7,0x80
	.DB  0xFF,0x3F,0x4F,0x0,0x0,0x0,0xFC,0xFF
	.DB  0x7F,0xDE,0xFF,0xFF,0xFF,0xFF,0x7,0xC0
	.DB  0xFF,0x3F,0x14,0x0,0x0,0x0,0xFC,0xCF
	.DB  0xF3,0xDC,0xFF,0xFF,0xFF,0xFF,0xF,0xC0
	.DB  0x93,0x7C,0x12,0x3,0x0,0x0,0xFC,0x77
	.DB  0xEC,0xB9,0xFF,0xFF,0xFF,0xFF,0xF,0xC0
	.DB  0x1D,0xFB,0x64,0x2,0x0,0x0,0xC0,0x8B
	.DB  0xD1,0xF1,0x7F,0x80,0x3,0x4,0x1E,0xE0
	.DB  0x16,0xB0,0xF,0x1,0x0,0x0,0xE0,0x8B
	.DB  0xE5,0xF1,0x9F,0xBF,0x3F,0x0,0xF0,0xEB
	.DB  0xE,0x20,0x80,0x0,0x0,0xFC,0xFF,0x6F
	.DB  0xA0,0xF1,0xFF,0xFF,0xFF,0xFF,0xFF,0x7F
	.DB  0x9A,0x68,0x30,0x0,0x0,0xFE,0xFF,0xEF
	.DB  0xA0,0xF7,0xFF,0xFF,0xFF,0xFF,0xFF,0xFF
	.DB  0x1E,0xED,0x0,0x0,0xE0,0xFF,0xFF,0xCB
	.DB  0xC1,0xF7,0xFF,0xFF,0xFF,0xFF,0xFF,0xFF
	.DB  0xFE,0xF0,0x1,0x0,0xE0,0xFF,0xFF,0x37
	.DB  0xEC,0xFF,0xFF,0xFF,0xFF,0xFF,0xFF,0xFF
	.DB  0x1D,0xF2,0xFD,0x0,0xE0,0xFF,0xFF,0xEF
	.DB  0xF1,0xBB,0xFF,0xFF,0xFF,0xFF,0xFF,0xFF
	.DB  0xB3,0x7C,0xFE,0x1,0xF0,0xFF,0xFF,0x3F
	.DB  0xFC,0xFF,0xFF,0xFF,0xFF,0xFF,0xFF,0xEF
	.DB  0x1F,0x7F,0x7F,0x0,0xF8,0xFF,0xFF,0xFF
	.DB  0xFF,0xEF,0xFF,0xFF,0xFF,0xFF,0xFF,0xFF
	.DB  0xFF,0x9F,0xFF,0x0,0xF8,0xFF,0xFF,0xFD
	.DB  0xFF,0xFB,0xFF,0xFF,0xFF,0xFF,0xFF,0x7F
	.DB  0xFF,0xFF,0xFF,0x3,0x80,0xFF,0xFF,0xF7
	.DB  0x7F,0xFE,0xFF,0xFF,0xFF,0xFF,0xFF,0xFF
	.DB  0xFD,0xFB,0xFF,0x3,0x0,0xFC,0xFF,0x3F
	.DB  0xF8,0xFF,0xFF,0xFF,0xFF,0xFF,0xFF,0xFF
	.DB  0xDF,0xFF,0x7F,0x0,0x0,0x80,0x3B,0xFF
	.DB  0xFF,0xFF,0xFF,0xFF,0xFF,0xFF,0xFF,0xFF
	.DB  0xFF,0xFF,0x1F,0x0,0x0,0x0,0x0,0x0
	.DB  0xC0,0xFF,0xE3,0xFF,0xFF,0xFF,0xFF,0xFF
	.DB  0xFF,0xFF,0x7,0x0,0x0,0x0,0x0,0xE0
	.DB  0xFF,0xFF,0xFF,0xFF,0xFF,0xFF,0xFF,0xFF
	.DB  0xFF,0xF,0x4,0x0,0x0,0x0,0x0,0x0
	.DB  0xF0,0xFF,0x5C,0xFF,0xFF,0xFF,0xFF,0xC3
	.DB  0xFF,0x7,0x0,0x0,0x0,0x0,0x0,0x0
	.DB  0xE0,0xFF,0xFF,0xFF,0xFF,0xFF,0xF,0xFF
	.DB  0xFF,0x1,0x0,0x0,0x0,0x0,0x0,0x0
	.DB  0x0,0x60,0x3,0xF0,0xFF,0x1F,0xF8,0x3F
	.DB  0xFE,0x0,0x0,0x0,0x0,0x0,0x0,0x0
	.DB  0x0,0x0,0x0,0x0,0xF0,0xFF,0x7F,0xF8
	.DB  0xFF,0x1,0x0,0x0,0x0,0x0,0x0,0x0
	.DB  0x0,0x0,0x0,0x0,0x0,0xE8,0xC1,0xC1
	.DB  0x7F,0x0,0x0,0x0,0x0,0x0,0x0,0x0
	.DB  0x0,0x0,0x0,0x0,0x80,0x27,0x0,0x0
	.DB  0xF7,0x0,0x0,0x0,0x0,0x0,0x0,0x0
	.DB  0x0,0x0,0x0,0x0,0x0,0x0,0xDC,0x1B
	.DB  0x0,0x0,0x0,0x0,0x0,0x0,0x0,0x0
	.DB  0x0,0x0,0x0,0x0,0x0,0x0,0x0,0x0
	.DB  0x0,0x0,0x0,0x0,0x0,0x0,0x0,0x0
	.DB  0x0,0x0,0x0,0x0,0x0,0x0,0x0,0x0
	.DB  0x0,0x0,0x0,0x0,0x0,0x0,0x0,0x0
	.DB  0x0,0x0,0x0,0x0,0x0,0x0,0x0,0x0
	.DB  0x0,0x0,0x0,0x0
_AF8x8_G000:
	.DB  0x5,0x90,0x9,0x8,0x1,0x0,0xFE,0x4
	.DB  0x0,0x0,0x0,0x3,0x3,0x4,0x6,0x7
	.DB  0x6,0x7,0x6,0x7,0x8,0x8,0x6,0x2
	.DB  0x2,0x4,0x5,0x5,0x5,0x4,0x5,0x5
	.DB  0x4,0x6,0x5,0x3,0x3,0x3,0x3,0x2
	.DB  0x1,0x3,0x7,0x5,0x7,0x6,0x1,0x3
	.DB  0x3,0x5,0x5,0x1,0x3,0x1,0x3,0x5
	.DB  0x5,0x5,0x5,0x5,0x5,0x5,0x5,0x5
	.DB  0x5,0x1,0x2,0x5,0x5,0x5,0x4,0x7
	.DB  0x6,0x5,0x5,0x5,0x5,0x5,0x5,0x5
	.DB  0x3,0x4,0x5,0x4,0x7,0x6,0x6,0x5
	.DB  0x6,0x5,0x6,0x5,0x5,0x5,0x7,0x5
	.DB  0x5,0x5,0x2,0x3,0x2,0x5,0x5,0x2
	.DB  0x5,0x5,0x4,0x5,0x5,0x3,0x5,0x5
	.DB  0x1,0x3,0x4,0x1,0x7,0x4,0x5,0x4
	.DB  0x4,0x5,0x4,0x3,0x4,0x5,0x5,0x5
	.DB  0x4,0x4,0x4,0x2,0x4,0x7,0x6,0x5
	.DB  0x7,0x3,0x6,0x6,0x5,0x5,0x5,0x5
	.DB  0x5,0x8,0x5,0x7,0x7,0x4,0x5,0x8
	.DB  0x5,0x5,0x5,0x5,0x6,0x6,0x5,0x8
	.DB  0x2,0x7,0x3,0x8,0x6,0x7,0x6,0x7
	.DB  0x2,0x3,0x6,0x5,0x5,0x5,0x5,0x8
	.DB  0x8,0xB,0x8,0x5,0x5,0x8,0x5,0x4
	.DB  0x4,0x5,0x0,0x0,0x8,0x0,0x2,0x0
	.DB  0x0,0x2,0x8,0x0,0x0,0x0,0x4,0x4
	.DB  0x3,0x5,0x4,0x4,0x2,0x7,0x1,0x7
	.DB  0x4,0x7,0x7,0x7,0x7,0x7,0x3,0x3
	.DB  0x4,0x4,0x8,0x8,0x8,0x8,0x6,0x6
	.DB  0x6,0x5,0x5,0x4,0x8,0x7,0x8,0x0
	.DB  0x6,0x0,0x7,0x6,0x4,0x4,0x6,0x0
	.DB  0x6,0x0,0x0,0x7,0x8,0x3,0x0,0x5
	.DB  0x5,0x3,0x3,0x0,0x5,0x5,0x5,0x5
	.DB  0x0,0x6,0x0,0x0,0x5,0x7,0x0,0x1E
	.DB  0x20,0x20,0x20,0xA0,0x18,0x22,0x22,0x18
	.DB  0x24,0x26,0x20,0x18,0x20,0x28,0x24,0xA8
	.DB  0x30,0x20,0x40,0xA0,0xA8,0xA4,0x28,0xB0
	.DB  0x20,0x20,0x28,0x24,0x28,0x30,0x20,0x40
	.DB  0xA0,0xA8,0xA4,0x28,0x30,0x20,0x22,0x28
	.DB  0x24,0x28,0x30,0x20,0x40,0xA2,0xA8,0xA4
	.DB  0x28,0x30,0x20,0x20,0x20,0x18,0x20,0x18
	.DB  0x20,0x24,0x18,0x20,0x20,0x1A,0x22,0x1A
	.DB  0x20,0x24,0x18,0x20,0x38,0x30,0x28,0x24
	.DB  0x18,0x18,0x18,0x6,0x7C,0x6,0xC,0x74
	.DB  0x2,0x6,0xC,0x76,0x4,0x2,0x4,0xE
	.DB  0x7C,0xA,0xA,0x30,0x4A,0x24,0x48,0x30
	.DB  0x40,0x2C,0x1A,0xA,0x6,0x18,0x60,0x18
	.DB  0x6,0x60,0x18,0x6,0x18,0x60,0x4,0xA
	.DB  0x3C,0x40,0x20,0x38,0x32,0x28,0x24,0x18
	.DB  0x20,0x28,0x34,0x24,0x10,0x0,0x18,0x18
	.DB  0x0,0x38,0x34,0x0,0x2C,0x1C,0x0,0x5C
	.DB  0x5A,0x0,0x0,0x5E,0xE,0x0,0xE,0x20
	.DB  0xE8,0x38,0xEE,0x38,0x2E,0x8,0x48,0x54
	.DB  0xD6,0x54,0x24,0x84,0x4A,0x24,0x10,0x48
	.DB  0xA4,0x42,0x6C,0x92,0x92,0xAC,0x40,0xA0
	.DB  0xE,0x38,0x44,0x82,0x82,0x44,0x38,0x28
	.DB  0x10,0x7C,0x10,0x28,0x10,0x10,0x7C,0x10
	.DB  0x10,0xE0,0x10,0x10,0x10,0x20,0xC0,0x38
	.DB  0x6,0x7C,0xA2,0x92,0x8A,0x7C,0x0,0x84
	.DB  0xFE,0x80,0x0,0xC4,0xA2,0x92,0x92,0x8C
	.DB  0x44,0x82,0x92,0x92,0x6C,0x30,0x28,0x24
	.DB  0xFE,0x20,0x4E,0x8A,0x8A,0x8A,0x72,0x78
	.DB  0x94,0x92,0x92,0x60,0x2,0x82,0x62,0x1A
	.DB  0x6,0x6C,0x92,0x92,0x92,0x6C,0xC,0x92
	.DB  0x92,0x52,0x3C,0x6C,0x80,0x6C,0x10,0x28
	.DB  0x28,0x44,0x44,0x28,0x28,0x28,0x28,0x28
	.DB  0x44,0x44,0x28,0x28,0x10,0x4,0xA2,0x12
	.DB  0xC,0x38,0x44,0xB2,0xAA,0xBA,0x24,0x18
	.DB  0xF0,0x2C,0x22,0x22,0x2C,0xF0,0xFE,0x92
	.DB  0x92,0x92,0x6C,0x7C,0x82,0x82,0x82,0x44
	.DB  0xFE,0x82,0x82,0x82,0x7C,0xFE,0x92,0x92
	.DB  0x92,0x82,0xFE,0x12,0x12,0x12,0x2,0x7C
	.DB  0x82,0x92,0x92,0x74,0xFE,0x10,0x10,0x10
	.DB  0xFE,0x82,0xFE,0x82,0x80,0x82,0x82,0x7E
	.DB  0xFE,0x10,0x28,0x44,0x82,0xFE,0x80,0x80
	.DB  0x80,0xFE,0x6,0x18,0x60,0x18,0x6,0xFE
	.DB  0xFE,0x6,0x18,0x60,0x80,0xFE,0x38,0x44
	.DB  0x82,0x82,0x44,0x38,0xFE,0x22,0x22,0x22
	.DB  0x1C,0x38,0x44,0x82,0xA2,0x44,0xB8,0xFE
	.DB  0x12,0x32,0x52,0x8C,0x4C,0x92,0x92,0x92
	.DB  0x92,0x64,0x2,0x2,0xFE,0x2,0x2,0x7E
	.DB  0x80,0x80,0x80,0x7E,0xE,0x70,0x80,0x70
	.DB  0xE,0xE,0x70,0x80,0x7C,0x80,0x70,0xE
	.DB  0xC6,0x28,0x10,0x28,0xC6,0x6,0x8,0xF0
	.DB  0x8,0x6,0xC2,0xA2,0x92,0x8A,0x86,0xFE
	.DB  0x82,0x6,0x38,0xC0,0x82,0xFE,0x8,0x4
	.DB  0x2,0x4,0x8,0x80,0x80,0x80,0x80,0x80
	.DB  0x2,0x4,0x60,0x94,0x94,0x94,0xF8,0xFE
	.DB  0x50,0x88,0x88,0x70,0x70,0x88,0x88,0x50
	.DB  0x70,0x88,0x88,0x50,0xFE,0x78,0x94,0x94
	.DB  0x94,0x58,0x8,0xFC,0xA,0x4C,0x92,0x92
	.DB  0x94,0x7E,0xFE,0x10,0x8,0x8,0xF0,0xFA
	.DB  0x80,0x88,0x7A,0xFE,0x20,0x50,0x88,0xFE
	.DB  0xF0,0x20,0x10,0xF0,0x10,0x10,0xE0,0xF0
	.DB  0x10,0x10,0xE0,0x70,0x88,0x88,0x88,0x70
	.DB  0xFC,0x24,0x24,0x18,0x18,0x24,0x24,0xFC
	.DB  0xF8,0x10,0x8,0x8,0x10,0x58,0x94,0xA4
	.DB  0x68,0x7C,0x88,0x88,0x78,0x80,0x40,0xF8
	.DB  0x18,0x60,0x80,0x60,0x18,0x78,0x80,0x70
	.DB  0x80,0x78,0x88,0x50,0x20,0x50,0x88,0x86
	.DB  0x88,0x48,0x3E,0x88,0xC8,0xA8,0x98,0x10
	.DB  0x6C,0x82,0x82,0x0,0x7C,0x82,0x82,0x6C
	.DB  0x10,0x18,0x20,0x20,0x10,0x8,0x8,0x30
	.DB  0x2,0x60,0x94,0x8A,0x96,0x20,0x20,0x22
	.DB  0x28,0x34,0x18,0x18,0x24,0xA0,0xA0,0xA0
	.DB  0x20,0x18,0x40,0x60,0x20,0x20,0x22,0x22
	.DB  0x28,0x34,0x18,0x40,0x60,0x20,0x40,0x60
	.DB  0x20,0x20,0x0,0x20,0x0,0x20,0x8,0xC
	.DB  0x7E,0xC,0x8,0x28,0x6C,0xFE,0x6C,0x28
	.DB  0xC,0x1E,0x3C,0x1E,0xC,0xC,0x12,0x24
	.DB  0x12,0xC,0x20,0x20,0x38,0x20,0x18,0x20
	.DB  0x24,0x18,0x10,0x1E,0x5F,0x1E,0x10,0x20
	.DB  0x24,0x2A,0x2A,0x2A,0x12,0x0,0x40,0xA0
	.DB  0xA8,0x24,0xA8,0xB0,0xA0,0x80,0x80,0x44
	.DB  0x36,0x18,0x18,0x3C,0x7E,0xFF,0x18,0x24
	.DB  0x20,0x2C,0x2A,0x2B,0x2B,0x13,0xC0,0xF8
	.DB  0x4,0x62,0x7F,0x1C,0x27,0xE4,0x27,0x1C
	.DB  0x60,0xFE,0xF9,0xFE,0x60,0x70,0x8C,0x83
	.DB  0x8C,0x70,0x20,0x20,0x78,0xD4,0x28,0x20
	.DB  0x0,0x10,0x10,0x10,0x10,0x10,0x0,0x10
	.DB  0x10,0x10,0x10,0x18,0x24,0x20,0x2C,0x2A
	.DB  0x2A,0x2A,0x12,0xC0,0xC0,0x40,0xA0,0xA8
	.DB  0xA4,0x28,0xB0,0x20,0x44,0x28,0x10,0x70
	.DB  0x88,0x80,0x90,0xA8,0x48,0x10,0x20,0x20
	.DB  0xA8,0xA4,0xA8,0x30,0x20,0x40,0xA0,0xA8
	.DB  0x24,0xA8,0xB0,0xA0,0x0,0x24,0x38,0x20
	.DB  0x1E,0x20,0x38,0x40,0x80,0x8C,0x92,0x92
	.DB  0x64,0x38,0x34,0x44,0x46,0x32,0x3,0x5
	.DB  0xFF,0xFF,0x5,0x3,0xC0,0xC0,0x0,0xF0
	.DB  0xF0,0x0,0x26,0x28,0x30,0x3E,0x7E,0x79
	.DB  0x49,0x79,0x7E,0x7E,0x79,0x49,0x79,0x78
	.DB  0xC0,0xC0,0x0,0xF0,0xF0,0x0,0xFC,0xFC
	.DB  0x3C,0x42,0x99,0xA5,0xA5,0xA5,0x42,0x3C
	.DB  0xC0,0xC0,0x0,0xF0,0xF0,0x0,0xFC,0xFC
	.DB  0x0,0xFF,0xFF,0x10,0x38,0x7C,0xFE,0x10
	.DB  0x38,0x7C,0xFE,0xFE,0x83,0x81,0x83,0xFE
	.DB  0xFE,0xE3,0xE1,0xE3,0xFE,0x3C,0x42,0xBD
	.DB  0x95,0x95,0xA9,0x42,0x3C,0xFE,0xFB,0xF9
	.DB  0xFB,0xFE,0x0,0xE,0xA,0xE,0x0,0x24
	.DB  0x2E,0x24,0xFE,0xFF,0xFF,0xFF,0xFE,0x30
	.DB  0x48,0x40,0x40,0x50,0x58,0x28,0x8,0x30
	.DB  0x30,0x5C,0x5A,0xFE,0x7C,0x38,0x10,0xFE
	.DB  0x7C,0x38,0x10,0xC,0x12,0xB2,0x4,0x20
	.DB  0xA0,0xA4,0x18,0x20,0x18,0x14,0x0,0x4
	.DB  0x2,0x7A,0x2,0x0,0x4,0x6,0xF2,0x80
	.DB  0x88,0x54,0x38,0x0,0x7E,0x30,0x48,0x40
	.DB  0x48,0x54,0x34,0x4,0x7E,0x18,0x24,0x20
	.DB  0xA0,0x20,0x20,0x18,0x30,0x4A,0x52,0x20
	.DB  0x18,0x24,0x20,0x22,0x22,0x20,0x18,0x18
	.DB  0x24,0x20,0x24,0x26,0x20,0x18,0x40,0xA0
	.DB  0xA8,0xA4,0x28,0xB0,0x20,0x40,0xA0,0xA8
	.DB  0xA4,0x28,0x30,0x20,0x40,0xA2,0xA8,0xA4
	.DB  0x28,0x30,0x20,0x20,0x24,0x18,0x20,0x25
	.DB  0x18,0x80,0x80,0x40,0x30,0x80,0x80,0x44
	.DB  0x30,0x70,0x88,0x80,0x78,0x20,0x18,0x20
	.DB  0x18,0x70,0x88,0x80,0x78,0x22,0x1A,0x22
	.DB  0x18,0x70,0x88,0x80,0x78,0x30,0x28,0x24
	.DB  0x18,0x70,0x88,0x80,0x78,0x32,0x28,0x24
	.DB  0x18,0x0,0x22,0x14,0x8,0x14,0x22,0x20
	.DB  0x3E,0x30,0x28,0x24,0x18,0x20,0x3E,0x30
	.DB  0x2A,0x24,0x18,0x60,0x90,0x98,0x94,0x94
	.DB  0x62,0x90,0x98,0x94,0x94,0x20,0x20,0x20
	.DB  0x20,0x60,0x90,0x80,0x84,0x80,0xA0,0xD0
	.DB  0x60,0x30,0x4A,0x82,0x80,0x8C,0x52,0x3C
	.DB  0x18,0x24,0x20,0x2C,0x2A,0x2A,0x2A,0x12
	.DB  0x30,0x48,0x40,0x40,0x20,0x1E,0x60,0x90
	.DB  0x8,0x1C,0x22,0x24,0x18,0x70,0x88,0x80
	.DB  0x82,0x40,0x38,0xC,0x12,0x14,0x8,0x80
	.DB  0x88,0x54,0x38,0x8,0x14,0x12,0xC,0x10
	.DB  0x20,0x10,0x29,0x25,0x18,0x20,0x40,0x38
	.DB  0x44,0x80,0x8C,0x92,0x92,0x64,0x70,0x88
	.DB  0x80,0x80,0x90,0xA8,0x64,0x4,0x4,0x72
	.DB  0x4,0x20,0x28,0x34,0x2C,0x20,0x60,0x94
	.DB  0x8A,0x96,0x20,0x20,0x22,0x18,0x20,0x20
	.DB  0x1E,0x22,0x28,0x34,0x24,0x10,0x22,0x28
	.DB  0x34,0x2C,0x20,0x10,0x10,0x54,0x10,0x10
	.DB  0x20,0x20,0x18,0x24,0x18,0x20,0x2C,0x2A
	.DB  0x2B,0x2B,0x13,0x20,0xA0,0xA0,0xA4,0x18
	.DB  0x20,0x40,0x50,0x2A,0x54,0x48,0x30,0x0
_PEmap:
	.DB  0xC1,0xC1,0xC1,0xC1,0x0,0x0,0xC2,0xC2
	.DB  0x2,0x2,0x1,0x0,0xC3,0xC3,0x1,0x1
	.DB  0x1,0x0,0xC4,0xC4,0xC4,0xC4,0x0,0x0
	.DB  0xC5,0xC5,0x3,0x3,0x1,0x0,0xC6,0xC6
	.DB  0xC6,0xC6,0x0,0x0,0xC7,0xC7,0x0,0x0
	.DB  0x1,0x0,0xC8,0x4,0xC8,0x4,0x1,0x1
	.DB  0xC9,0xFE,0xE9,0x95,0x1,0x1,0xCA,0x5
	.DB  0xCA,0x5,0x1,0x1,0xCB,0x6,0xCB,0x6
	.DB  0x1,0x1,0xCC,0x7,0x8,0x7,0x1,0x1
	.DB  0xCD,0x9,0x9A,0x9,0x1,0x1,0xCE,0xB
	.DB  0xC,0xB,0x1,0x1,0xCF,0xCF,0xCF,0xCF
	.DB  0x1,0x0,0xD0,0xD0,0xD0,0xD0,0x1,0x0
	.DB  0xD1,0xD1,0xD1,0xD1,0x1,0x0,0xD2,0xD2
	.DB  0xD2,0xD2,0x1,0x0,0xD3,0x8A,0xD3,0x8A
	.DB  0x1,0x1,0xD4,0xE,0xD4,0xE,0x1,0x1
	.DB  0xD5,0xF,0xD5,0xF,0x1,0x1,0xD6,0x1A
	.DB  0xD6,0x1A,0x1,0x1,0xD7,0xD7,0xD7,0xD7
	.DB  0x0,0x0,0xD8,0xD8,0xD8,0xD8,0x1,0x1
	.DB  0xD9,0xD9,0xD9,0xD9,0x1,0x1,0xDA,0x1B
	.DB  0xF1,0xF0,0x1,0x1,0xDB,0xF5,0x7F,0xF6
	.DB  0x1,0x1,0xDC,0xDC,0xDC,0xDC,0x1,0x1
	.DB  0xDD,0x80,0xDD,0x80,0x1,0x1,0xDE,0x83
	.DB  0xDE,0x83,0x1,0x1,0xDF,0x8C,0xDF,0x8C
	.DB  0x1,0x1,0xE0,0xE0,0xE0,0xE0,0x0,0x0
	.DB  0xE1,0xF3,0xE1,0xF3,0x1,0x1,0xE2,0xE2
	.DB  0xE2,0xE2,0x0,0x0,0xE3,0xF8,0xE3,0xF8
	.DB  0x1,0x1,0xE4,0xF2,0xE4,0xF2,0x1,0x1
	.DB  0xE5,0xFE,0xE7,0x95,0x1,0x1,0xE6,0xE6
	.DB  0xE6,0xE6,0x1,0x0,0xE7,0xE7,0xE7,0xE7
	.DB  0x0,0x0,0xE8,0xE8,0xE8,0xE8,0x0,0x0
	.DB  0xE9,0xE9,0xE9,0xE9,0x0,0x0,0x81,0xFD
	.DB  0x81,0xFD,0x1,0x1,0x8D,0x9D,0x9E,0x9D
	.DB  0x1,0x1,0xEC,0xC0,0xA0,0xC0,0x1,0x1
	.DB  0xED,0xC0,0x9C,0xC0,0x1,0x1,0x8E,0x8E
	.DB  0x8E,0x8E,0x1,0x0,0x90,0xFA,0x90,0xFA
	.DB  0x1,0x1,0xF0,0xF0,0xF0,0xF0,0x0,0x0
	.DB  0xF1,0xF1,0xF1,0xF1,0x0,0x0,0xF2,0xF2
	.DB  0xF2,0xF2,0x0,0x0,0xF3,0xF3,0xF3,0xF3
	.DB  0x0,0x0,0xF4,0xF4,0xF4,0xF4,0x0,0x0
	.DB  0xF5,0xF5,0xF5,0xF5,0x0,0x0,0xF6,0xF6
	.DB  0xF6,0xF6,0x0,0x0,0xF7,0xF7,0xF7,0xF7
	.DB  0x0,0x0,0xF8,0xF8,0xF8,0xF8,0x0,0x0
	.DB  0xF9,0xF9,0xF9,0xF9,0x0,0x0,0xFA,0xFA
	.DB  0xFA,0xFA,0x0,0x0,0xA5,0xA5,0x9F,0x9F
	.DB  0x1,0x0,0xFC,0xFC,0xFC,0xFC,0x0,0x0
	.DB  0xFD,0xFD,0xFD,0xFD,0x0,0x0,0xFE,0xFE
	.DB  0xFE,0xFE,0x0,0x0,0xFF,0xFF,0xFF,0xFF
	.DB  0x0,0x0
__glcd_mask:
	.DB  0x0,0x1,0x3,0x7,0xF,0x1F,0x3F,0x7F
	.DB  0xFF
_st7920_init_4bit_G101:
	.DB  0x30,0x30,0x20,0x0,0x20,0x0
_st7920_base_y_G101:
	.DB  0x80,0x90,0x88,0x98

;REGISTER BIT VARIABLES INITIALIZATION
__REG_BIT_VARS:
	.DW  0x0001

;GLOBAL REGISTER VARIABLES INITIALIZATION
__REG_VARS:
	.DB  0xFA,0x1,0x0,0x0
	.DB  0x0,0x0,0x0,0x0
	.DB  0x0

_0x3:
	.DB  0x53,0x61,0x74,0x0,0x53,0x75,0x6E,0x0
	.DB  0x4D,0x6F,0x6E,0x0,0x54,0x75,0x65,0x0
	.DB  0x57,0x65,0x64,0x0,0x54,0x68,0x75,0x0
	.DB  0x46,0x72,0x69
_0x0:
	.DB  0x68,0x65,0x6C,0x6C,0x6F,0x20,0x77,0x6F
	.DB  0x72,0x6C,0x64,0x21,0x0,0x74,0x65,0x73
	.DB  0x74,0x20,0x31,0x32,0x33,0x34,0x35,0x0
	.DB  0xC8,0xE5,0x20,0xE4,0xC7,0xE3,0x20,0xCE
	.DB  0xCF,0xC7,0x0,0xD3,0xE1,0xC7,0xE3,0x0
	.DB  0xE3,0xCD,0xE3,0xCF,0x20,0xCD,0xD3,0xE4
	.DB  0x20,0xC8,0xC7,0xD1,0xE6,0xED,0x0,0xC7
	.DB  0xCE,0xD3,0xC7,0xE4,0x20,0xDB,0xDD,0xE6
	.DB  0xD1,0xED,0xC7,0xE4,0x0,0xE3,0xED,0x98
	.DB  0xD1,0xE6,0xE4,0xED,0x98,0x0,0x45,0x6D
	.DB  0x74,0x65,0x63,0x68,0x6E,0x69,0x63,0x2E
	.DB  0x69,0x72,0x0,0x76,0x61,0x6C,0x75,0x65
	.DB  0x3D,0x25,0x64,0x20,0x0,0x25,0x30,0x32
	.DB  0x64,0x3A,0x25,0x30,0x32,0x64,0x3A,0x25
	.DB  0x30,0x32,0x64,0x0,0x25,0x34,0x64,0x2F
	.DB  0x25,0x30,0x32,0x64,0x2F,0x25,0x30,0x32
	.DB  0x64,0x0
_0x40003:
	.DB  0x1
_0x40004:
	.DB  0x1
_0x40005:
	.DB  0x1
_0x40006:
	.DB  0x1
_0x40007:
	.DB  0x1
_0x40008:
	.DB  0xFF
_0x40009:
	.DB  0xFF
_0x4000A:
	.DB  0x0,0x0,0x0,0x0,0x0,0x0,0x0,0x0
	.DB  0x0,0x0,0x0,0x0
_0x4003A:
	.DB  0x0,0x0,0x0,0x0,0x0,0x0,0x0,0x0
	.DB  0x0,0x0,0x0,0x0
_0x2080060:
	.DB  0x1
_0x2080000:
	.DB  0x2D,0x4E,0x41,0x4E,0x0,0x49,0x4E,0x46
	.DB  0x0
_0x20A0000:
	.DB  0x2D,0x4E,0x41,0x4E,0x0

__GLOBAL_INI_TBL:
	.DW  0x01
	.DW  0x02
	.DW  __REG_BIT_VARS*2

	.DW  0x09
	.DW  0x04
	.DW  __REG_VARS*2

	.DW  0x1B
	.DW  __weekday
	.DW  _0x3*2

	.DW  0x0D
	.DW  _0x4
	.DW  _0x0*2

	.DW  0x0B
	.DW  _0x4+13
	.DW  _0x0*2+13

	.DW  0x0B
	.DW  _0x4+24
	.DW  _0x0*2+24

	.DW  0x05
	.DW  _0x4+35
	.DW  _0x0*2+35

	.DW  0x0F
	.DW  _0x4+40
	.DW  _0x0*2+40

	.DW  0x0E
	.DW  _0x4+55
	.DW  _0x0*2+55

	.DW  0x09
	.DW  _0x4+69
	.DW  _0x0*2+69

	.DW  0x01
	.DW  _Horizontal
	.DW  _0x40003*2

	.DW  0x01
	.DW  _FgColor
	.DW  _0x40004*2

	.DW  0x01
	.DW  _FontXScale
	.DW  _0x40005*2

	.DW  0x01
	.DW  _FontYScale
	.DW  _0x40006*2

	.DW  0x01
	.DW  _FontSpaceX
	.DW  _0x40007*2

	.DW  0x01
	.DW  _prevLet
	.DW  _0x40008*2

	.DW  0x01
	.DW  _nextLet
	.DW  _0x40009*2

	.DW  0x01
	.DW  __seed_G104
	.DW  _0x2080060*2

_0xFFFFFFFF:
	.DW  0

#define __GLOBAL_INI_TBL_PRESENT 1

__RESET:
	CLI
	CLR  R30
	OUT  EECR,R30

;INTERRUPT VECTORS ARE PLACED
;AT THE START OF FLASH
	LDI  R31,1
	OUT  MCUCR,R31
	OUT  MCUCR,R30

;CLEAR R2-R14
	LDI  R24,(14-2)+1
	LDI  R26,2
	CLR  R27
__CLEAR_REG:
	ST   X+,R30
	DEC  R24
	BRNE __CLEAR_REG

;CLEAR SRAM
	LDI  R24,LOW(__CLEAR_SRAM_SIZE)
	LDI  R25,HIGH(__CLEAR_SRAM_SIZE)
	LDI  R26,__SRAM_START
__CLEAR_SRAM:
	ST   X+,R30
	SBIW R24,1
	BRNE __CLEAR_SRAM

;GLOBAL VARIABLES INITIALIZATION
	LDI  R30,LOW(__GLOBAL_INI_TBL*2)
	LDI  R31,HIGH(__GLOBAL_INI_TBL*2)
__GLOBAL_INI_NEXT:
	LPM  R24,Z+
	LPM  R25,Z+
	SBIW R24,0
	BREQ __GLOBAL_INI_END
	LPM  R26,Z+
	LPM  R27,Z+
	LPM  R0,Z+
	LPM  R1,Z+
	MOVW R22,R30
	MOVW R30,R0
__GLOBAL_INI_LOOP:
	LPM  R0,Z+
	ST   X+,R0
	SBIW R24,1
	BRNE __GLOBAL_INI_LOOP
	MOVW R30,R22
	RJMP __GLOBAL_INI_NEXT
__GLOBAL_INI_END:

;HARDWARE STACK POINTER INITIALIZATION
	LDI  R30,LOW(__SRAM_END-__HEAP_SIZE)
	OUT  SPL,R30
	LDI  R30,HIGH(__SRAM_END-__HEAP_SIZE)
	OUT  SPH,R30

;DATA STACK POINTER INITIALIZATION
	LDI  R28,LOW(__SRAM_START+__DSTACK_SIZE)
	LDI  R29,HIGH(__SRAM_START+__DSTACK_SIZE)

	JMP  _main

	.ESEG
	.ORG 0

	.DSEG
	.ORG 0x260

	.CSEG
;#include <mega32a.h>
	#ifndef __SLEEP_DEFINED__
	#define __SLEEP_DEFINED__
	.EQU __se_bit=0x80
	.EQU __sm_mask=0x70
	.EQU __sm_powerdown=0x20
	.EQU __sm_powersave=0x30
	.EQU __sm_standby=0x60
	.EQU __sm_ext_standby=0x70
	.EQU __sm_adc_noise_red=0x10
	.SET power_ctrl_reg=mcucr
	#endif
;
;#include <ds1307.h>
;#include <glcd.h>
;#include <font5x7.h>
;#include <mhbfont.c>
;/****************************************************************************
;Font created by the LCD Vision V1.05 font & image editor/converter
;(C) Copyright 2011-2013 Pavel Haiduc, HP InfoTech s.r.l.
;http://www.hpinfotech.com
;
;Font name: New font
;Fixed font width: 8 pixels
;Font height: 8 pixels
;First character: 0xA0
;Last character: 0xFF
;
;Exported font data size:
;772 bytes for displays organized as horizontal rows of bytes
;772 bytes for displays organized as rows of vertical bytes.
;****************************************************************************/
;
;flash unsigned char mhbfont[]=
;{
;0x08, /* Fixed font width */
;0x08, /* Font height */
;0xA0, /* First character */
;0x60, /* Number of characters in font */
;
;#ifndef _GLCD_DATA_BYTEY_
;/* Font data for displays organized as
;   horizontal rows of bytes */
;
;/* Code: 0xA0, ASCII Character: ' ' */
;0x00, 0x00, 0x31, 0x22, 0xFC, 0xDA, 0x01, 0x00,
;
;/* Code: 0xA1, ASCII Character: '¡' */
;0x00, 0x00, 0x00, 0x00, 0x00, 0x00, 0x00, 0x00,
;
;/* Code: 0xA2, ASCII Character: '¢' */
;0x00, 0x00, 0x00, 0x00, 0x00, 0x00, 0x00, 0x00,
;
;/* Code: 0xA3, ASCII Character: '£' */
;0xFF, 0x81, 0xA1, 0x9D, 0x95, 0xF5, 0x05, 0x07,
;
;/* Code: 0xA4, ASCII Character: '¤' */
;0x00, 0x00, 0x00, 0x00, 0x00, 0x00, 0x00, 0x00,
;
;/* Code: 0xA5, ASCII Character: '¥' */
;0x00, 0x00, 0x00, 0x00, 0x00, 0x00, 0x00, 0x00,
;
;/* Code: 0xA6, ASCII Character: '¦' */
;0x00, 0x00, 0x00, 0x00, 0x00, 0x00, 0x00, 0x00,
;
;/* Code: 0xA7, ASCII Character: '§' */
;0x00, 0x00, 0x00, 0x00, 0x00, 0x00, 0x00, 0x00,
;
;/* Code: 0xA8, ASCII Character: '¨' */
;0x00, 0x00, 0x00, 0x00, 0x00, 0x00, 0x00, 0x00,
;
;/* Code: 0xA9, ASCII Character: '©' */
;0x00, 0x00, 0x00, 0x00, 0x00, 0x00, 0x00, 0x00,
;
;/* Code: 0xAA, ASCII Character: 'ª' */
;0x00, 0x00, 0x00, 0x00, 0x00, 0x00, 0x00, 0x00,
;
;/* Code: 0xAB, ASCII Character: '«' */
;0x00, 0x00, 0x00, 0x00, 0x00, 0x00, 0x00, 0x00,
;
;/* Code: 0xAC, ASCII Character: '¬' */
;0x00, 0x00, 0x00, 0x00, 0x00, 0x00, 0x00, 0x00,
;
;/* Code: 0xAD, ASCII Character: '­' */
;0x00, 0x00, 0x00, 0x00, 0x00, 0x00, 0x00, 0x00,
;
;/* Code: 0xAE, ASCII Character: '®' */
;0x00, 0x00, 0x00, 0x00, 0x00, 0x00, 0x00, 0x00,
;
;/* Code: 0xAF, ASCII Character: '¯' */
;0x00, 0x00, 0x00, 0x00, 0x00, 0x00, 0x00, 0x00,
;
;/* Code: 0xB0, ASCII Character: '°' */
;0x00, 0x00, 0x00, 0x00, 0x00, 0x00, 0x00, 0x00,
;
;/* Code: 0xB1, ASCII Character: '±' */
;0x00, 0x00, 0x00, 0x00, 0x00, 0x00, 0x00, 0x00,
;
;/* Code: 0xB2, ASCII Character: '²' */
;0x00, 0x00, 0x00, 0x00, 0x00, 0x00, 0x00, 0x00,
;
;/* Code: 0xB3, ASCII Character: '³' */
;0x00, 0x00, 0x00, 0x00, 0x00, 0x00, 0x00, 0x00,
;
;/* Code: 0xB4, ASCII Character: '´' */
;0x00, 0x00, 0x00, 0x00, 0x00, 0x00, 0x00, 0x00,
;
;/* Code: 0xB5, ASCII Character: 'µ' */
;0x00, 0x00, 0x00, 0x00, 0x00, 0x00, 0x00, 0x00,
;
;/* Code: 0xB6, ASCII Character: '¶' */
;0x00, 0x00, 0x00, 0x00, 0x00, 0x00, 0x00, 0x00,
;
;/* Code: 0xB7, ASCII Character: '·' */
;0x00, 0x00, 0x00, 0x00, 0x00, 0x00, 0x00, 0x00,
;
;/* Code: 0xB8, ASCII Character: '¸' */
;0x00, 0x00, 0x00, 0x00, 0x00, 0x00, 0x00, 0x00,
;
;/* Code: 0xB9, ASCII Character: '¹' */
;0x00, 0x00, 0x00, 0x00, 0x00, 0x00, 0x00, 0x00,
;
;/* Code: 0xBA, ASCII Character: 'º' */
;0x00, 0x00, 0x00, 0x00, 0x00, 0x00, 0x00, 0x00,
;
;/* Code: 0xBB, ASCII Character: '»' */
;0x00, 0x00, 0x00, 0x00, 0x00, 0x00, 0x00, 0x00,
;
;/* Code: 0xBC, ASCII Character: '¼' */
;0x00, 0x00, 0x00, 0x00, 0x00, 0x00, 0x00, 0x00,
;
;/* Code: 0xBD, ASCII Character: '½' */
;0x00, 0x00, 0x00, 0x00, 0x00, 0x00, 0x00, 0x00,
;
;/* Code: 0xBE, ASCII Character: '¾' */
;0x00, 0x00, 0x00, 0x00, 0x00, 0x00, 0x00, 0x00,
;
;/* Code: 0xBF, ASCII Character: '¿' */
;0x00, 0x00, 0x00, 0x00, 0x00, 0x00, 0x00, 0x00,
;
;/* Code: 0xC0, ASCII Character: 'À' */
;0x00, 0x00, 0x00, 0x00, 0x00, 0x00, 0x00, 0x00,
;
;/* Code: 0xC1, ASCII Character: 'Á' */
;0x00, 0x00, 0x00, 0x00, 0x00, 0x00, 0x00, 0x00,
;
;/* Code: 0xC2, ASCII Character: 'Â' */
;0x00, 0x00, 0x00, 0x00, 0x00, 0x00, 0x00, 0x00,
;
;/* Code: 0xC3, ASCII Character: 'Ã' */
;0x00, 0x00, 0x00, 0x00, 0x00, 0x00, 0x00, 0x00,
;
;/* Code: 0xC4, ASCII Character: 'Ä' */
;0x00, 0x00, 0x00, 0x00, 0x00, 0x00, 0x00, 0x00,
;
;/* Code: 0xC5, ASCII Character: 'Å' */
;0x00, 0x00, 0x00, 0x00, 0x00, 0x00, 0x00, 0x00,
;
;/* Code: 0xC6, ASCII Character: 'Æ' */
;0x00, 0x00, 0x00, 0x00, 0x00, 0x00, 0x00, 0x00,
;
;/* Code: 0xC7, ASCII Character: 'Ç' */
;0x00, 0x00, 0x00, 0x00, 0x00, 0x00, 0x00, 0x00,
;
;/* Code: 0xC8, ASCII Character: 'È' */
;0x00, 0x00, 0x00, 0x00, 0x00, 0x00, 0x00, 0x00,
;
;/* Code: 0xC9, ASCII Character: 'É' */
;0x00, 0x00, 0x00, 0x00, 0x00, 0x00, 0x00, 0x00,
;
;/* Code: 0xCA, ASCII Character: 'Ê' */
;0x00, 0x00, 0x00, 0x00, 0x00, 0x00, 0x00, 0x00,
;
;/* Code: 0xCB, ASCII Character: 'Ë' */
;0x00, 0x00, 0x00, 0x00, 0x00, 0x00, 0x00, 0x00,
;
;/* Code: 0xCC, ASCII Character: 'Ì' */
;0x00, 0x00, 0x00, 0x00, 0x00, 0x00, 0x00, 0x00,
;
;/* Code: 0xCD, ASCII Character: 'Í' */
;0x00, 0x00, 0x00, 0x00, 0x00, 0x00, 0x00, 0x00,
;
;/* Code: 0xCE, ASCII Character: 'Î' */
;0x00, 0x00, 0x00, 0x00, 0x00, 0x00, 0x00, 0x00,
;
;/* Code: 0xCF, ASCII Character: 'Ï' */
;0x00, 0x00, 0x00, 0x00, 0x00, 0x00, 0x00, 0x00,
;
;/* Code: 0xD0, ASCII Character: 'Ð' */
;0x00, 0x00, 0x00, 0x00, 0x00, 0x00, 0x00, 0x00,
;
;/* Code: 0xD1, ASCII Character: 'Ñ' */
;0x00, 0x00, 0x00, 0x00, 0x00, 0x00, 0x00, 0x00,
;
;/* Code: 0xD2, ASCII Character: 'Ò' */
;0x00, 0x00, 0x00, 0x00, 0x00, 0x00, 0x00, 0x00,
;
;/* Code: 0xD3, ASCII Character: 'Ó' */
;0x00, 0x00, 0x00, 0x00, 0x00, 0x00, 0x00, 0x00,
;
;/* Code: 0xD4, ASCII Character: 'Ô' */
;0x00, 0x00, 0x00, 0x00, 0x00, 0x00, 0x00, 0x00,
;
;/* Code: 0xD5, ASCII Character: 'Õ' */
;0x00, 0x00, 0x00, 0x00, 0x00, 0x00, 0x00, 0x00,
;
;/* Code: 0xD6, ASCII Character: 'Ö' */
;0x00, 0x00, 0x00, 0x00, 0x00, 0x00, 0x00, 0x00,
;
;/* Code: 0xD7, ASCII Character: '×' */
;0x00, 0x00, 0x00, 0x00, 0x00, 0x00, 0x00, 0x00,
;
;/* Code: 0xD8, ASCII Character: 'Ø' */
;0x00, 0x00, 0x00, 0x00, 0x00, 0x00, 0x00, 0x00,
;
;/* Code: 0xD9, ASCII Character: 'Ù' */
;0x00, 0x00, 0x00, 0x00, 0x00, 0x00, 0x00, 0x00,
;
;/* Code: 0xDA, ASCII Character: 'Ú' */
;0x00, 0x00, 0x00, 0x00, 0x00, 0x00, 0x00, 0x00,
;
;/* Code: 0xDB, ASCII Character: 'Û' */
;0x00, 0x00, 0x00, 0x00, 0x00, 0x00, 0x00, 0x00,
;
;/* Code: 0xDC, ASCII Character: 'Ü' */
;0x00, 0x00, 0x00, 0x00, 0x00, 0x00, 0x00, 0x00,
;
;/* Code: 0xDD, ASCII Character: 'Ý' */
;0x00, 0x00, 0x00, 0x00, 0x00, 0x00, 0x00, 0x00,
;
;/* Code: 0xDE, ASCII Character: 'Þ' */
;0x00, 0x00, 0x00, 0x00, 0x00, 0x00, 0x00, 0x00,
;
;/* Code: 0xDF, ASCII Character: 'ß' */
;0x00, 0x00, 0x00, 0x00, 0x00, 0x00, 0x00, 0x00,
;
;/* Code: 0xE0, ASCII Character: 'à' */
;0x00, 0x00, 0x00, 0x00, 0x00, 0x00, 0x00, 0x00,
;
;/* Code: 0xE1, ASCII Character: 'á' */
;0x00, 0x00, 0x00, 0x00, 0x00, 0x00, 0x00, 0x00,
;
;/* Code: 0xE2, ASCII Character: 'â' */
;0x00, 0x00, 0x00, 0x00, 0x00, 0x00, 0x00, 0x00,
;
;/* Code: 0xE3, ASCII Character: 'ã' */
;0x00, 0x00, 0x00, 0x00, 0x00, 0x00, 0x00, 0x00,
;
;/* Code: 0xE4, ASCII Character: 'ä' */
;0x00, 0x00, 0x00, 0x00, 0x00, 0x00, 0x00, 0x00,
;
;/* Code: 0xE5, ASCII Character: 'å' */
;0x00, 0x00, 0x00, 0x00, 0x00, 0x00, 0x00, 0x00,
;
;/* Code: 0xE6, ASCII Character: 'æ' */
;0x00, 0x00, 0x00, 0x00, 0x00, 0x00, 0x00, 0x00,
;
;/* Code: 0xE7, ASCII Character: 'ç' */
;0x00, 0x00, 0x00, 0x00, 0x00, 0x00, 0x00, 0x00,
;
;/* Code: 0xE8, ASCII Character: 'è' */
;0x00, 0x00, 0x00, 0x00, 0x00, 0x00, 0x00, 0x00,
;
;/* Code: 0xE9, ASCII Character: 'é' */
;0x00, 0x00, 0x00, 0x00, 0x00, 0x00, 0x00, 0x00,
;
;/* Code: 0xEA, ASCII Character: 'ê' */
;0x00, 0x00, 0x00, 0x00, 0x00, 0x00, 0x00, 0x00,
;
;/* Code: 0xEB, ASCII Character: 'ë' */
;0x00, 0x00, 0x00, 0x00, 0x00, 0x00, 0x00, 0x00,
;
;/* Code: 0xEC, ASCII Character: 'ì' */
;0x00, 0x00, 0x00, 0x00, 0x00, 0x00, 0x00, 0x00,
;
;/* Code: 0xED, ASCII Character: 'í' */
;0x00, 0x00, 0x00, 0x00, 0x00, 0x00, 0x00, 0x00,
;
;/* Code: 0xEE, ASCII Character: 'î' */
;0x00, 0x00, 0x00, 0x00, 0x00, 0x00, 0x00, 0x00,
;
;/* Code: 0xEF, ASCII Character: 'ï' */
;0x00, 0x00, 0x00, 0x00, 0x00, 0x00, 0x00, 0x00,
;
;/* Code: 0xF0, ASCII Character: 'ð' */
;0x00, 0x00, 0x00, 0x00, 0x00, 0x00, 0x00, 0x00,
;
;/* Code: 0xF1, ASCII Character: 'ñ' */
;0x00, 0x00, 0x00, 0x00, 0x00, 0x00, 0x00, 0x00,
;
;/* Code: 0xF2, ASCII Character: 'ò' */
;0x00, 0x00, 0x00, 0x00, 0x00, 0x00, 0x00, 0x00,
;
;/* Code: 0xF3, ASCII Character: 'ó' */
;0x00, 0x00, 0x00, 0x00, 0x00, 0x00, 0x00, 0x00,
;
;/* Code: 0xF4, ASCII Character: 'ô' */
;0x00, 0x00, 0x00, 0x00, 0x00, 0x00, 0x00, 0x00,
;
;/* Code: 0xF5, ASCII Character: 'õ' */
;0x00, 0x00, 0x00, 0x00, 0x00, 0x00, 0x00, 0x00,
;
;/* Code: 0xF6, ASCII Character: 'ö' */
;0x00, 0x00, 0x00, 0x00, 0x00, 0x00, 0x00, 0x00,
;
;/* Code: 0xF7, ASCII Character: '÷' */
;0x00, 0x00, 0x00, 0x00, 0x00, 0x00, 0x00, 0x00,
;
;/* Code: 0xF8, ASCII Character: 'ø' */
;0x00, 0x00, 0x00, 0x00, 0x00, 0x00, 0x00, 0x00,
;
;/* Code: 0xF9, ASCII Character: 'ù' */
;0x00, 0x00, 0x00, 0x00, 0x00, 0x00, 0x00, 0x00,
;
;/* Code: 0xFA, ASCII Character: 'ú' */
;0x00, 0x00, 0x00, 0x00, 0x00, 0x00, 0x00, 0x00,
;
;/* Code: 0xFB, ASCII Character: 'û' */
;0x00, 0x00, 0x00, 0x00, 0x00, 0x00, 0x00, 0x00,
;
;/* Code: 0xFC, ASCII Character: 'ü' */
;0x00, 0x00, 0x00, 0x00, 0x00, 0x00, 0x00, 0x00,
;
;/* Code: 0xFD, ASCII Character: 'ý' */
;0x00, 0x00, 0x00, 0x00, 0x00, 0x00, 0x00, 0x00,
;
;/* Code: 0xFE, ASCII Character: 'þ' */
;0x00, 0x00, 0x00, 0x00, 0x00, 0x00, 0x00, 0x00,
;
;/* Code: 0xFF, ASCII Character: 'ÿ' */
;0x00, 0x00, 0x00, 0x00, 0x00, 0x00, 0x00, 0x00,
;
;#else
;/* Font data for displays organized as
;   rows of vertical bytes */
;
;/* Code: 0xA0, ASCII Character: ' ' */
;0x44, 0x28, 0x10, 0x30, 0x34, 0x1C, 0x30, 0x30,
;
;/* Code: 0xA1, ASCII Character: '¡' */
;0x00, 0x00, 0x00, 0x00, 0x00, 0x00, 0x00, 0x00,
;
;/* Code: 0xA2, ASCII Character: '¢' */
;0x00, 0x00, 0x00, 0x00, 0x00, 0x00, 0x00, 0x00,
;
;/* Code: 0xA3, ASCII Character: '£' */
;0xFF, 0x81, 0xF9, 0x09, 0x39, 0x25, 0x21, 0x3F,
;
;/* Code: 0xA4, ASCII Character: '¤' */
;0x00, 0x00, 0x00, 0x00, 0x00, 0x00, 0x00, 0x00,
;
;/* Code: 0xA5, ASCII Character: '¥' */
;0x00, 0x00, 0x00, 0x00, 0x00, 0x00, 0x00, 0x00,
;
;/* Code: 0xA6, ASCII Character: '¦' */
;0x00, 0x00, 0x00, 0x00, 0x00, 0x00, 0x00, 0x00,
;
;/* Code: 0xA7, ASCII Character: '§' */
;0x00, 0x00, 0x00, 0x00, 0x00, 0x00, 0x00, 0x00,
;
;/* Code: 0xA8, ASCII Character: '¨' */
;0x00, 0x00, 0x00, 0x00, 0x00, 0x00, 0x00, 0x00,
;
;/* Code: 0xA9, ASCII Character: '©' */
;0x00, 0x00, 0x00, 0x00, 0x00, 0x00, 0x00, 0x00,
;
;/* Code: 0xAA, ASCII Character: 'ª' */
;0x00, 0x00, 0x00, 0x00, 0x00, 0x00, 0x00, 0x00,
;
;/* Code: 0xAB, ASCII Character: '«' */
;0x00, 0x00, 0x00, 0x00, 0x00, 0x00, 0x00, 0x00,
;
;/* Code: 0xAC, ASCII Character: '¬' */
;0x00, 0x00, 0x00, 0x00, 0x00, 0x00, 0x00, 0x00,
;
;/* Code: 0xAD, ASCII Character: '­' */
;0x00, 0x00, 0x00, 0x00, 0x00, 0x00, 0x00, 0x00,
;
;/* Code: 0xAE, ASCII Character: '®' */
;0x00, 0x00, 0x00, 0x00, 0x00, 0x00, 0x00, 0x00,
;
;/* Code: 0xAF, ASCII Character: '¯' */
;0x00, 0x00, 0x00, 0x00, 0x00, 0x00, 0x00, 0x00,
;
;/* Code: 0xB0, ASCII Character: '°' */
;0x00, 0x00, 0x00, 0x00, 0x00, 0x00, 0x00, 0x00,
;
;/* Code: 0xB1, ASCII Character: '±' */
;0x00, 0x00, 0x00, 0x00, 0x00, 0x00, 0x00, 0x00,
;
;/* Code: 0xB2, ASCII Character: '²' */
;0x00, 0x00, 0x00, 0x00, 0x00, 0x00, 0x00, 0x00,
;
;/* Code: 0xB3, ASCII Character: '³' */
;0x00, 0x00, 0x00, 0x00, 0x00, 0x00, 0x00, 0x00,
;
;/* Code: 0xB4, ASCII Character: '´' */
;0x00, 0x00, 0x00, 0x00, 0x00, 0x00, 0x00, 0x00,
;
;/* Code: 0xB5, ASCII Character: 'µ' */
;0x00, 0x00, 0x00, 0x00, 0x00, 0x00, 0x00, 0x00,
;
;/* Code: 0xB6, ASCII Character: '¶' */
;0x00, 0x00, 0x00, 0x00, 0x00, 0x00, 0x00, 0x00,
;
;/* Code: 0xB7, ASCII Character: '·' */
;0x00, 0x00, 0x00, 0x00, 0x00, 0x00, 0x00, 0x00,
;
;/* Code: 0xB8, ASCII Character: '¸' */
;0x00, 0x00, 0x00, 0x00, 0x00, 0x00, 0x00, 0x00,
;
;/* Code: 0xB9, ASCII Character: '¹' */
;0x00, 0x00, 0x00, 0x00, 0x00, 0x00, 0x00, 0x00,
;
;/* Code: 0xBA, ASCII Character: 'º' */
;0x00, 0x00, 0x00, 0x00, 0x00, 0x00, 0x00, 0x00,
;
;/* Code: 0xBB, ASCII Character: '»' */
;0x00, 0x00, 0x00, 0x00, 0x00, 0x00, 0x00, 0x00,
;
;/* Code: 0xBC, ASCII Character: '¼' */
;0x00, 0x00, 0x00, 0x00, 0x00, 0x00, 0x00, 0x00,
;
;/* Code: 0xBD, ASCII Character: '½' */
;0x00, 0x00, 0x00, 0x00, 0x00, 0x00, 0x00, 0x00,
;
;/* Code: 0xBE, ASCII Character: '¾' */
;0x00, 0x00, 0x00, 0x00, 0x00, 0x00, 0x00, 0x00,
;
;/* Code: 0xBF, ASCII Character: '¿' */
;0x00, 0x00, 0x00, 0x00, 0x00, 0x00, 0x00, 0x00,
;
;/* Code: 0xC0, ASCII Character: 'À' */
;0x00, 0x00, 0x00, 0x00, 0x00, 0x00, 0x00, 0x00,
;
;/* Code: 0xC1, ASCII Character: 'Á' */
;0x00, 0x00, 0x00, 0x00, 0x00, 0x00, 0x00, 0x00,
;
;/* Code: 0xC2, ASCII Character: 'Â' */
;0x00, 0x00, 0x00, 0x00, 0x00, 0x00, 0x00, 0x00,
;
;/* Code: 0xC3, ASCII Character: 'Ã' */
;0x00, 0x00, 0x00, 0x00, 0x00, 0x00, 0x00, 0x00,
;
;/* Code: 0xC4, ASCII Character: 'Ä' */
;0x00, 0x00, 0x00, 0x00, 0x00, 0x00, 0x00, 0x00,
;
;/* Code: 0xC5, ASCII Character: 'Å' */
;0x00, 0x00, 0x00, 0x00, 0x00, 0x00, 0x00, 0x00,
;
;/* Code: 0xC6, ASCII Character: 'Æ' */
;0x00, 0x00, 0x00, 0x00, 0x00, 0x00, 0x00, 0x00,
;
;/* Code: 0xC7, ASCII Character: 'Ç' */
;0x00, 0x00, 0x00, 0x00, 0x00, 0x00, 0x00, 0x00,
;
;/* Code: 0xC8, ASCII Character: 'È' */
;0x00, 0x00, 0x00, 0x00, 0x00, 0x00, 0x00, 0x00,
;
;/* Code: 0xC9, ASCII Character: 'É' */
;0x00, 0x00, 0x00, 0x00, 0x00, 0x00, 0x00, 0x00,
;
;/* Code: 0xCA, ASCII Character: 'Ê' */
;0x00, 0x00, 0x00, 0x00, 0x00, 0x00, 0x00, 0x00,
;
;/* Code: 0xCB, ASCII Character: 'Ë' */
;0x00, 0x00, 0x00, 0x00, 0x00, 0x00, 0x00, 0x00,
;
;/* Code: 0xCC, ASCII Character: 'Ì' */
;0x00, 0x00, 0x00, 0x00, 0x00, 0x00, 0x00, 0x00,
;
;/* Code: 0xCD, ASCII Character: 'Í' */
;0x00, 0x00, 0x00, 0x00, 0x00, 0x00, 0x00, 0x00,
;
;/* Code: 0xCE, ASCII Character: 'Î' */
;0x00, 0x00, 0x00, 0x00, 0x00, 0x00, 0x00, 0x00,
;
;/* Code: 0xCF, ASCII Character: 'Ï' */
;0x00, 0x00, 0x00, 0x00, 0x00, 0x00, 0x00, 0x00,
;
;/* Code: 0xD0, ASCII Character: 'Ð' */
;0x00, 0x00, 0x00, 0x00, 0x00, 0x00, 0x00, 0x00,
;
;/* Code: 0xD1, ASCII Character: 'Ñ' */
;0x00, 0x00, 0x00, 0x00, 0x00, 0x00, 0x00, 0x00,
;
;/* Code: 0xD2, ASCII Character: 'Ò' */
;0x00, 0x00, 0x00, 0x00, 0x00, 0x00, 0x00, 0x00,
;
;/* Code: 0xD3, ASCII Character: 'Ó' */
;0x00, 0x00, 0x00, 0x00, 0x00, 0x00, 0x00, 0x00,
;
;/* Code: 0xD4, ASCII Character: 'Ô' */
;0x00, 0x00, 0x00, 0x00, 0x00, 0x00, 0x00, 0x00,
;
;/* Code: 0xD5, ASCII Character: 'Õ' */
;0x00, 0x00, 0x00, 0x00, 0x00, 0x00, 0x00, 0x00,
;
;/* Code: 0xD6, ASCII Character: 'Ö' */
;0x00, 0x00, 0x00, 0x00, 0x00, 0x00, 0x00, 0x00,
;
;/* Code: 0xD7, ASCII Character: '×' */
;0x00, 0x00, 0x00, 0x00, 0x00, 0x00, 0x00, 0x00,
;
;/* Code: 0xD8, ASCII Character: 'Ø' */
;0x00, 0x00, 0x00, 0x00, 0x00, 0x00, 0x00, 0x00,
;
;/* Code: 0xD9, ASCII Character: 'Ù' */
;0x00, 0x00, 0x00, 0x00, 0x00, 0x00, 0x00, 0x00,
;
;/* Code: 0xDA, ASCII Character: 'Ú' */
;0x00, 0x00, 0x00, 0x00, 0x00, 0x00, 0x00, 0x00,
;
;/* Code: 0xDB, ASCII Character: 'Û' */
;0x00, 0x00, 0x00, 0x00, 0x00, 0x00, 0x00, 0x00,
;
;/* Code: 0xDC, ASCII Character: 'Ü' */
;0x00, 0x00, 0x00, 0x00, 0x00, 0x00, 0x00, 0x00,
;
;/* Code: 0xDD, ASCII Character: 'Ý' */
;0x00, 0x00, 0x00, 0x00, 0x00, 0x00, 0x00, 0x00,
;
;/* Code: 0xDE, ASCII Character: 'Þ' */
;0x00, 0x00, 0x00, 0x00, 0x00, 0x00, 0x00, 0x00,
;
;/* Code: 0xDF, ASCII Character: 'ß' */
;0x00, 0x00, 0x00, 0x00, 0x00, 0x00, 0x00, 0x00,
;
;/* Code: 0xE0, ASCII Character: 'à' */
;0x00, 0x00, 0x00, 0x00, 0x00, 0x00, 0x00, 0x00,
;
;/* Code: 0xE1, ASCII Character: 'á' */
;0x00, 0x00, 0x00, 0x00, 0x00, 0x00, 0x00, 0x00,
;
;/* Code: 0xE2, ASCII Character: 'â' */
;0x00, 0x00, 0x00, 0x00, 0x00, 0x00, 0x00, 0x00,
;
;/* Code: 0xE3, ASCII Character: 'ã' */
;0x00, 0x00, 0x00, 0x00, 0x00, 0x00, 0x00, 0x00,
;
;/* Code: 0xE4, ASCII Character: 'ä' */
;0x00, 0x00, 0x00, 0x00, 0x00, 0x00, 0x00, 0x00,
;
;/* Code: 0xE5, ASCII Character: 'å' */
;0x00, 0x00, 0x00, 0x00, 0x00, 0x00, 0x00, 0x00,
;
;/* Code: 0xE6, ASCII Character: 'æ' */
;0x00, 0x00, 0x00, 0x00, 0x00, 0x00, 0x00, 0x00,
;
;/* Code: 0xE7, ASCII Character: 'ç' */
;0x00, 0x00, 0x00, 0x00, 0x00, 0x00, 0x00, 0x00,
;
;/* Code: 0xE8, ASCII Character: 'è' */
;0x00, 0x00, 0x00, 0x00, 0x00, 0x00, 0x00, 0x00,
;
;/* Code: 0xE9, ASCII Character: 'é' */
;0x00, 0x00, 0x00, 0x00, 0x00, 0x00, 0x00, 0x00,
;
;/* Code: 0xEA, ASCII Character: 'ê' */
;0x00, 0x00, 0x00, 0x00, 0x00, 0x00, 0x00, 0x00,
;
;/* Code: 0xEB, ASCII Character: 'ë' */
;0x00, 0x00, 0x00, 0x00, 0x00, 0x00, 0x00, 0x00,
;
;/* Code: 0xEC, ASCII Character: 'ì' */
;0x00, 0x00, 0x00, 0x00, 0x00, 0x00, 0x00, 0x00,
;
;/* Code: 0xED, ASCII Character: 'í' */
;0x00, 0x00, 0x00, 0x00, 0x00, 0x00, 0x00, 0x00,
;
;/* Code: 0xEE, ASCII Character: 'î' */
;0x00, 0x00, 0x00, 0x00, 0x00, 0x00, 0x00, 0x00,
;
;/* Code: 0xEF, ASCII Character: 'ï' */
;0x00, 0x00, 0x00, 0x00, 0x00, 0x00, 0x00, 0x00,
;
;/* Code: 0xF0, ASCII Character: 'ð' */
;0x00, 0x00, 0x00, 0x00, 0x00, 0x00, 0x00, 0x00,
;
;/* Code: 0xF1, ASCII Character: 'ñ' */
;0x00, 0x00, 0x00, 0x00, 0x00, 0x00, 0x00, 0x00,
;
;/* Code: 0xF2, ASCII Character: 'ò' */
;0x00, 0x00, 0x00, 0x00, 0x00, 0x00, 0x00, 0x00,
;
;/* Code: 0xF3, ASCII Character: 'ó' */
;0x00, 0x00, 0x00, 0x00, 0x00, 0x00, 0x00, 0x00,
;
;/* Code: 0xF4, ASCII Character: 'ô' */
;0x00, 0x00, 0x00, 0x00, 0x00, 0x00, 0x00, 0x00,
;
;/* Code: 0xF5, ASCII Character: 'õ' */
;0x00, 0x00, 0x00, 0x00, 0x00, 0x00, 0x00, 0x00,
;
;/* Code: 0xF6, ASCII Character: 'ö' */
;0x00, 0x00, 0x00, 0x00, 0x00, 0x00, 0x00, 0x00,
;
;/* Code: 0xF7, ASCII Character: '÷' */
;0x00, 0x00, 0x00, 0x00, 0x00, 0x00, 0x00, 0x00,
;
;/* Code: 0xF8, ASCII Character: 'ø' */
;0x00, 0x00, 0x00, 0x00, 0x00, 0x00, 0x00, 0x00,
;
;/* Code: 0xF9, ASCII Character: 'ù' */
;0x00, 0x00, 0x00, 0x00, 0x00, 0x00, 0x00, 0x00,
;
;/* Code: 0xFA, ASCII Character: 'ú' */
;0x00, 0x00, 0x00, 0x00, 0x00, 0x00, 0x00, 0x00,
;
;/* Code: 0xFB, ASCII Character: 'û' */
;0x00, 0x00, 0x00, 0x00, 0x00, 0x00, 0x00, 0x00,
;
;/* Code: 0xFC, ASCII Character: 'ü' */
;0x00, 0x00, 0x00, 0x00, 0x00, 0x00, 0x00, 0x00,
;
;/* Code: 0xFD, ASCII Character: 'ý' */
;0x00, 0x00, 0x00, 0x00, 0x00, 0x00, 0x00, 0x00,
;
;/* Code: 0xFE, ASCII Character: 'þ' */
;0x00, 0x00, 0x00, 0x00, 0x00, 0x00, 0x00, 0x00,
;
;/* Code: 0xFF, ASCII Character: 'ÿ' */
;0x00, 0x00, 0x00, 0x00, 0x00, 0x00, 0x00, 0x00,
;
;#endif
;};
;
;#include "arial.h"
;#include "Image\pic.h"
;#include "FONT\Font.h"
;#include "FONT\font\AF8x8.h"
;//#include "FONT\font\AF9x10.h"
;//#include "FONT\font\AF9x11.h"
;//#include "FONT\font\AF12x16.h"
;
;//#include "FONT\font\f5x7.h"
;//#include "FONT\font\f9x14.h"
;//#include "FONT\font\f10x20.h"
;
;#include <defines.c>
;//float temp=0;
;//char i=0;
;//char a=0;
;//char buffer[16];
;
;char c=1;
;char j=250;
;char _hour=0;
;char _min=0;
;char _sec=0;
;char _wday,_year,_month,_day;
;int sh_year;
;char _weekday[7][4]={{"Sat"},{"Sun"},{"Mon"},{"Tue"},{"Wed"},{"Thu"},{"Fri"}};

	.DSEG
;char lastsec=0;
;char strsec[12];
;bit a=1;
;
;//#define led1 PORTD.6;
;#define mhb 0xa3
;#define ant 0xa3
;#define ant1 0x99
;#define ant2 0xa4
;#define ant3 0xa8
;#define ant4 0xaa
;#define bat 0xac
;#define bat1 0xad
;#define bat2 0xaf
;#define bat3 0xb2
;#define like 0x88
;#define unlike 0x89
;#define alarm 0x8b
;#define speaker 0x8f
;#define music 0x91
;#define plugin 0x92
;#define temp 0x93
;#define hum 0x94
;#define lock 0xa6
;#define unlock 0xa7
;
;// Declare your global variables here
;unsigned char str[20];
;unsigned char i=0;
;
;void main(void)
; 0000 002E {

	.CSEG
_main:
; .FSTART _main
; 0000 002F // Declare your local variables here
; 0000 0030 // Variable used to store graphic display
; 0000 0031 // controller initialization data
; 0000 0032 GLCDINIT_t glcd_init_data;
; 0000 0033 
; 0000 0034 // Input/Output Ports initialization
; 0000 0035 // Port A initialization
; 0000 0036 // Function: Bit7=In Bit6=In Bit5=In Bit4=In Bit3=In Bit2=In Bit1=In Bit0=In
; 0000 0037 DDRA=(0<<DDA7) | (0<<DDA6) | (0<<DDA5) | (0<<DDA4) | (0<<DDA3) | (0<<DDA2) | (0<<DDA1) | (0<<DDA0);
	SBIW R28,6
;	glcd_init_data -> Y+0
	LDI  R30,LOW(0)
	OUT  0x1A,R30
; 0000 0038 // State: Bit7=T Bit6=T Bit5=T Bit4=T Bit3=T Bit2=T Bit1=T Bit0=T
; 0000 0039 PORTA=(0<<PORTA7) | (0<<PORTA6) | (0<<PORTA5) | (0<<PORTA4) | (0<<PORTA3) | (0<<PORTA2) | (0<<PORTA1) | (0<<PORTA0);
	OUT  0x1B,R30
; 0000 003A 
; 0000 003B // Port B initialization
; 0000 003C // Function: Bit7=In Bit6=In Bit5=In Bit4=In Bit3=In Bit2=In Bit1=In Bit0=In
; 0000 003D DDRB=(0<<DDB7) | (0<<DDB6) | (0<<DDB5) | (0<<DDB4) | (0<<DDB3) | (0<<DDB2) | (0<<DDB1) | (0<<DDB0);
	OUT  0x17,R30
; 0000 003E // State: Bit7=T Bit6=T Bit5=T Bit4=T Bit3=T Bit2=T Bit1=T Bit0=T
; 0000 003F PORTB=(0<<PORTB7) | (0<<PORTB6) | (0<<PORTB5) | (0<<PORTB4) | (0<<PORTB3) | (0<<PORTB2) | (0<<PORTB1) | (0<<PORTB0);
	OUT  0x18,R30
; 0000 0040 
; 0000 0041 // Port C initialization
; 0000 0042 // Function: Bit7=In Bit6=In Bit5=In Bit4=In Bit3=In Bit2=In Bit1=In Bit0=In
; 0000 0043 DDRC=(0<<DDC7) | (0<<DDC6) | (0<<DDC5) | (0<<DDC4) | (0<<DDC3) | (0<<DDC2) | (0<<DDC1) | (0<<DDC0);
	OUT  0x14,R30
; 0000 0044 // State: Bit7=T Bit6=T Bit5=T Bit4=T Bit3=T Bit2=T Bit1=T Bit0=T
; 0000 0045 PORTC=(0<<PORTC7) | (0<<PORTC6) | (0<<PORTC5) | (0<<PORTC4) | (0<<PORTC3) | (0<<PORTC2) | (0<<PORTC1) | (0<<PORTC0);
	OUT  0x15,R30
; 0000 0046 
; 0000 0047 // Port D initialization
; 0000 0048 // Function: Bit7=In Bit6=In Bit5=In Bit4=In Bit3=In Bit2=In Bit1=In Bit0=In
; 0000 0049 DDRD=(0<<DDD7) | (0<<DDD6) | (0<<DDD5) | (0<<DDD4) | (0<<DDD3) | (0<<DDD2) | (0<<DDD1) | (0<<DDD0);
	OUT  0x11,R30
; 0000 004A // State: Bit7=T Bit6=T Bit5=T Bit4=T Bit3=T Bit2=T Bit1=T Bit0=T
; 0000 004B PORTD=(0<<PORTD7) | (0<<PORTD6) | (0<<PORTD5) | (0<<PORTD4) | (0<<PORTD3) | (0<<PORTD2) | (0<<PORTD1) | (0<<PORTD0);
	OUT  0x12,R30
; 0000 004C 
; 0000 004D // Timer/Counter 0 initialization
; 0000 004E // Clock source: System Clock
; 0000 004F // Clock value: Timer 0 Stopped
; 0000 0050 // Mode: Normal top=0xFF
; 0000 0051 // OC0 output: Disconnected
; 0000 0052 TCCR0=(0<<WGM00) | (0<<COM01) | (0<<COM00) | (0<<WGM01) | (0<<CS02) | (0<<CS01) | (0<<CS00);
	OUT  0x33,R30
; 0000 0053 TCNT0=0x00;
	OUT  0x32,R30
; 0000 0054 OCR0=0x00;
	OUT  0x3C,R30
; 0000 0055 
; 0000 0056 // Timer/Counter 1 initialization
; 0000 0057 // Clock source: System Clock
; 0000 0058 // Clock value: Timer1 Stopped
; 0000 0059 // Mode: Normal top=0xFFFF
; 0000 005A // OC1A output: Disconnected
; 0000 005B // OC1B output: Disconnected
; 0000 005C // Noise Canceler: Off
; 0000 005D // Input Capture on Falling Edge
; 0000 005E // Timer1 Overflow Interrupt: Off
; 0000 005F // Input Capture Interrupt: Off
; 0000 0060 // Compare A Match Interrupt: Off
; 0000 0061 // Compare B Match Interrupt: Off
; 0000 0062 TCCR1A=(0<<COM1A1) | (0<<COM1A0) | (0<<COM1B1) | (0<<COM1B0) | (0<<WGM11) | (0<<WGM10);
	OUT  0x2F,R30
; 0000 0063 TCCR1B=(0<<ICNC1) | (0<<ICES1) | (0<<WGM13) | (0<<WGM12) | (0<<CS12) | (0<<CS11) | (0<<CS10);
	OUT  0x2E,R30
; 0000 0064 TCNT1H=0x00;
	OUT  0x2D,R30
; 0000 0065 TCNT1L=0x00;
	OUT  0x2C,R30
; 0000 0066 ICR1H=0x00;
	OUT  0x27,R30
; 0000 0067 ICR1L=0x00;
	OUT  0x26,R30
; 0000 0068 OCR1AH=0x00;
	OUT  0x2B,R30
; 0000 0069 OCR1AL=0x00;
	OUT  0x2A,R30
; 0000 006A OCR1BH=0x00;
	OUT  0x29,R30
; 0000 006B OCR1BL=0x00;
	OUT  0x28,R30
; 0000 006C 
; 0000 006D // Timer/Counter 2 initialization
; 0000 006E // Clock source: System Clock
; 0000 006F // Clock value: Timer2 Stopped
; 0000 0070 // Mode: Normal top=0xFF
; 0000 0071 // OC2 output: Disconnected
; 0000 0072 ASSR=0<<AS2;
	OUT  0x22,R30
; 0000 0073 TCCR2=(0<<PWM2) | (0<<COM21) | (0<<COM20) | (0<<CTC2) | (0<<CS22) | (0<<CS21) | (0<<CS20);
	OUT  0x25,R30
; 0000 0074 TCNT2=0x00;
	OUT  0x24,R30
; 0000 0075 OCR2=0x00;
	OUT  0x23,R30
; 0000 0076 
; 0000 0077 // Timer(s)/Counter(s) Interrupt(s) initialization
; 0000 0078 TIMSK=(0<<OCIE2) | (0<<TOIE2) | (0<<TICIE1) | (0<<OCIE1A) | (0<<OCIE1B) | (0<<TOIE1) | (0<<OCIE0) | (0<<TOIE0);
	OUT  0x39,R30
; 0000 0079 
; 0000 007A // External Interrupt(s) initialization
; 0000 007B // INT0: Off
; 0000 007C // INT1: Off
; 0000 007D // INT2: Off
; 0000 007E MCUCR=(0<<ISC11) | (0<<ISC10) | (0<<ISC01) | (0<<ISC00);
	OUT  0x35,R30
; 0000 007F MCUCSR=(0<<ISC2);
	OUT  0x34,R30
; 0000 0080 
; 0000 0081 // USART initialization
; 0000 0082 // USART disabled
; 0000 0083 UCSRB=(0<<RXCIE) | (0<<TXCIE) | (0<<UDRIE) | (0<<RXEN) | (0<<TXEN) | (0<<UCSZ2) | (0<<RXB8) | (0<<TXB8);
	OUT  0xA,R30
; 0000 0084 
; 0000 0085 // Analog Comparator initialization
; 0000 0086 // Analog Comparator: Off
; 0000 0087 // The Analog Comparator's positive input is
; 0000 0088 // connected to the AIN0 pin
; 0000 0089 // The Analog Comparator's negative input is
; 0000 008A // connected to the AIN1 pin
; 0000 008B ACSR=(1<<ACD) | (0<<ACBG) | (0<<ACO) | (0<<ACI) | (0<<ACIE) | (0<<ACIC) | (0<<ACIS1) | (0<<ACIS0);
	LDI  R30,LOW(128)
	OUT  0x8,R30
; 0000 008C SFIOR=(0<<ACME);
	LDI  R30,LOW(0)
	OUT  0x30,R30
; 0000 008D 
; 0000 008E // ADC initialization
; 0000 008F // ADC disabled
; 0000 0090 ADCSRA=(0<<ADEN) | (0<<ADSC) | (0<<ADATE) | (0<<ADIF) | (0<<ADIE) | (0<<ADPS2) | (0<<ADPS1) | (0<<ADPS0);
	OUT  0x6,R30
; 0000 0091 
; 0000 0092 // SPI initialization
; 0000 0093 // SPI disabled
; 0000 0094 SPCR=(0<<SPIE) | (0<<SPE) | (0<<DORD) | (0<<MSTR) | (0<<CPOL) | (0<<CPHA) | (0<<SPR1) | (0<<SPR0);
	OUT  0xD,R30
; 0000 0095 
; 0000 0096 // TWI initialization
; 0000 0097 // TWI disabled
; 0000 0098 TWCR=(0<<TWEA) | (0<<TWSTA) | (0<<TWSTO) | (0<<TWEN) | (0<<TWIE);
	OUT  0x36,R30
; 0000 0099 
; 0000 009A // Graphic Display Controller initialization
; 0000 009B // The ST7920 connections are specified in the
; 0000 009C // Project|Configure|C Compiler|Libraries|Graphic Display menu:
; 0000 009D // E - PORTA Bit 0
; 0000 009E // R /W - PORTA Bit 1
; 0000 009F // RS - PORTA Bit 2
; 0000 00A0 // /RST - PORTA Bit 3
; 0000 00A1 // DB4 - PORTA Bit 4
; 0000 00A2 // DB5 - PORTA Bit 5
; 0000 00A3 // DB6 - PORTA Bit 6
; 0000 00A4 // DB7 - PORTA Bit 7
; 0000 00A5 // Specify the current font for displaying text
; 0000 00A6 glcd_init_data.font=font5x7;
	LDI  R30,LOW(_font5x7*2)
	LDI  R31,HIGH(_font5x7*2)
	ST   Y,R30
	STD  Y+1,R31
; 0000 00A7 // No function is used for reading
; 0000 00A8 // image data from external memory
; 0000 00A9 glcd_init_data.readxmem=NULL;
	LDI  R30,LOW(0)
	STD  Y+2,R30
	STD  Y+2+1,R30
; 0000 00AA // No function is used for writing
; 0000 00AB // image data to external memory
; 0000 00AC glcd_init_data.writexmem=NULL;
	STD  Y+4,R30
	STD  Y+4+1,R30
; 0000 00AD 
; 0000 00AE glcd_init(&glcd_init_data);
	MOVW R26,R28
	CALL _glcd_init
; 0000 00AF glcd_clear();
	CALL _glcd_clear
; 0000 00B0 LcdFont(AF8x8);
	LDI  R26,LOW(_AF8x8_G000*2)
	LDI  R27,HIGH(_AF8x8_G000*2)
	CALL _LcdFont
; 0000 00B1 SetLetter(E_LETTER);
	LDI  R26,LOW(0)
	CALL SUBOPT_0x0
; 0000 00B2 
; 0000 00B3 SetLine(0,0);
; 0000 00B4 PutChar(ant);
	LDI  R26,LOW(163)
	CALL SUBOPT_0x1
; 0000 00B5 SetLine(0,1);
	LDI  R26,LOW(1)
	CALL _SetLine
; 0000 00B6 PutChar(ant4);
	LDI  R26,LOW(170)
	CALL SUBOPT_0x1
; 0000 00B7 SetLine(0,3);
	LDI  R26,LOW(3)
	CALL _SetLine
; 0000 00B8 PutChar(bat2);
	LDI  R26,LOW(175)
	CALL SUBOPT_0x1
; 0000 00B9 SetLine(0,4);
	LDI  R26,LOW(4)
	CALL _SetLine
; 0000 00BA PutChar(alarm);
	LDI  R26,LOW(139)
	CALL SUBOPT_0x1
; 0000 00BB SetLine(0,5);
	LDI  R26,LOW(5)
	CALL _SetLine
; 0000 00BC PutChar(speaker);
	LDI  R26,LOW(143)
	CALL SUBOPT_0x1
; 0000 00BD SetLine(0,6);
	LDI  R26,LOW(6)
	CALL _SetLine
; 0000 00BE PutChar(music);
	LDI  R26,LOW(145)
	CALL SUBOPT_0x1
; 0000 00BF SetLine(0,7);
	LDI  R26,LOW(7)
	CALL _SetLine
; 0000 00C0 PutChar(plugin);
	LDI  R26,LOW(146)
	CALL SUBOPT_0x1
; 0000 00C1 SetLine(0,8);
	LDI  R26,LOW(8)
	CALL _SetLine
; 0000 00C2 PutChar(temp);
	LDI  R26,LOW(147)
	CALL SUBOPT_0x1
; 0000 00C3 SetLine(0,9);
	LDI  R26,LOW(9)
	CALL _SetLine
; 0000 00C4 PutChar(hum);
	LDI  R26,LOW(148)
	CALL SUBOPT_0x1
; 0000 00C5 SetLine(0,10);
	LDI  R26,LOW(10)
	CALL _SetLine
; 0000 00C6 PutChar(lock);
	LDI  R26,LOW(166)
	CALL SUBOPT_0x1
; 0000 00C7 SetLine(0,11);
	LDI  R26,LOW(11)
	CALL _SetLine
; 0000 00C8 PutChar(unlock);
	LDI  R26,LOW(167)
	CALL SUBOPT_0x1
; 0000 00C9 SetLine(0,12);
	LDI  R26,LOW(12)
	CALL _SetLine
; 0000 00CA PutChar(like);
	LDI  R26,LOW(136)
	CALL SUBOPT_0x1
; 0000 00CB SetLine(0,13);
	LDI  R26,LOW(13)
	CALL _SetLine
; 0000 00CC PutChar(unlike);
	LDI  R26,LOW(137)
	CALL _PutChar
; 0000 00CD 
; 0000 00CE /*LcdFont(mhbfont);
; 0000 00CF delay_ms(2000);
; 0000 00D0 glcd_clear();
; 0000 00D1 delay_ms(2000);
; 0000 00D2 glcd_setfont(mhbfont);
; 0000 00D3 SetLine(0,0);
; 0000 00D4 PutChar(mhb);
; 0000 00D5 delay_ms(2000);
; 0000 00D6 glcd_clear();
; 0000 00D7 */
; 0000 00D8 
; 0000 00D9 SetLine(1,0);
	LDI  R30,LOW(1)
	CALL SUBOPT_0x2
; 0000 00DA Puts("hello world!");
	__POINTW2MN _0x4,0
	CALL _Puts
; 0000 00DB SetLine(2,0);
	LDI  R30,LOW(2)
	CALL SUBOPT_0x2
; 0000 00DC Puts("test 12345");
	__POINTW2MN _0x4,13
	CALL SUBOPT_0x3
; 0000 00DD 
; 0000 00DE 
; 0000 00DF delay_ms(2000);
; 0000 00E0 glcd_clear();
; 0000 00E1 
; 0000 00E2 SetLetter(P_LETTER);
	LDI  R26,LOW(1)
	CALL SUBOPT_0x0
; 0000 00E3 SetLine(0,0);
; 0000 00E4 Puts("Èå äÇã ÎÏÇ");
	__POINTW2MN _0x4,24
	CALL _Puts
; 0000 00E5 DrawStringAt(1,0,"ÓáÇã",BLACK,WHITE);
	LDI  R30,LOW(1)
	CALL SUBOPT_0x2
	CALL SUBOPT_0x4
	__POINTW2MN _0x4,35
	CALL _Puts
; 0000 00E6 DrawStringAt(2,0,"ãÍãÏ ÍÓä ÈÇÑæí",BLACK,WHITE);
	LDI  R30,LOW(2)
	CALL SUBOPT_0x2
	CALL SUBOPT_0x4
	__POINTW2MN _0x4,40
	CALL _Puts
; 0000 00E7 DrawStringAt(3,0,"ÇÎÓÇä ÛÝæÑíÇä",BLACK,WHITE);
	LDI  R30,LOW(3)
	CALL SUBOPT_0x2
	CALL SUBOPT_0x4
	__POINTW2MN _0x4,55
	CALL _Puts
; 0000 00E8 DrawStringAt(4,0,"ãíÑæäí",BLACK,WHITE);
	LDI  R30,LOW(4)
	CALL SUBOPT_0x2
	CALL SUBOPT_0x4
	__POINTW2MN _0x4,69
	CALL SUBOPT_0x3
; 0000 00E9 
; 0000 00EA delay_ms(2000);
; 0000 00EB glcd_clear();
; 0000 00EC 
; 0000 00ED glcd_putimagef(0,0, truck, 1);
	LDI  R30,LOW(0)
	ST   -Y,R30
	ST   -Y,R30
	LDI  R30,LOW(_truck*2)
	LDI  R31,HIGH(_truck*2)
	ST   -Y,R31
	ST   -Y,R30
	LDI  R26,LOW(1)
	CALL _glcd_putimagef
; 0000 00EE 
; 0000 00EF delay_ms(2000);
	LDI  R26,LOW(2000)
	LDI  R27,HIGH(2000)
	CALL _delay_ms
; 0000 00F0 glcd_clear();
	CALL _glcd_clear
; 0000 00F1 
; 0000 00F2 while (1)
_0x5:
; 0000 00F3       {
; 0000 00F4 
; 0000 00F5       for(i=0;i<=10;i++){
	LDI  R30,LOW(0)
	STS  _i,R30
_0x9:
	LDS  R26,_i
	CPI  R26,LOW(0xB)
	BRLO PC+2
	RJMP _0xA
; 0000 00F6         lcd_gotoxy(0,0);
	LDI  R30,LOW(0)
	CALL SUBOPT_0x5
; 0000 00F7         glcd_setfont(arial);
	LDI  R30,LOW(_arial*2)
	LDI  R31,HIGH(_arial*2)
	CALL SUBOPT_0x6
; 0000 00F8         glcd_outtextxyf(0,32,"Emtechnic.ir");
	LDI  R30,LOW(0)
	ST   -Y,R30
	LDI  R30,LOW(32)
	ST   -Y,R30
	__POINTW2FN _0x0,78
	CALL _glcd_outtextxyf
; 0000 00F9         sprintf(str,"value=%d ",i);
	LDI  R30,LOW(_str)
	LDI  R31,HIGH(_str)
	ST   -Y,R31
	ST   -Y,R30
	__POINTW1FN _0x0,91
	ST   -Y,R31
	ST   -Y,R30
	LDS  R30,_i
	CALL SUBOPT_0x7
	LDI  R24,4
	CALL _sprintf
	ADIW R28,8
; 0000 00FA         glcd_setcolor(0);
	LDI  R30,LOW(0)
	STS  _glcd_state,R30
; 0000 00FB         glcd_setbkcolor(1);
	LDI  R30,LOW(1)
	__PUTB1MN _glcd_state,1
; 0000 00FC        glcd_outtextxy(0,48,str);
	LDI  R30,LOW(0)
	ST   -Y,R30
	LDI  R30,LOW(48)
	ST   -Y,R30
	LDI  R26,LOW(_str)
	LDI  R27,HIGH(_str)
	CALL _glcd_outtextxy
; 0000 00FD        glcd_setcolor(1);
	CALL SUBOPT_0x8
; 0000 00FE        glcd_setbkcolor(0);
; 0000 00FF        delay_ms(250);
	LDI  R26,LOW(250)
	LDI  R27,0
	CALL _delay_ms
; 0000 0100 
; 0000 0101       rtc_get_time(&_hour,&_min,&_sec);
	LDI  R30,LOW(7)
	LDI  R31,HIGH(7)
	ST   -Y,R31
	ST   -Y,R30
	LDI  R30,LOW(6)
	LDI  R31,HIGH(6)
	ST   -Y,R31
	ST   -Y,R30
	LDI  R26,LOW(9)
	LDI  R27,HIGH(9)
	CALL _rtc_get_time
; 0000 0102       sprintf(strsec,"%02d:%02d:%02d",_hour,_min,_sec);
	CALL SUBOPT_0x9
	__POINTW1FN _0x0,101
	ST   -Y,R31
	ST   -Y,R30
	MOV  R30,R7
	CALL SUBOPT_0x7
	MOV  R30,R6
	CALL SUBOPT_0x7
	MOV  R30,R9
	CALL SUBOPT_0x7
	LDI  R24,12
	CALL _sprintf
	ADIW R28,16
; 0000 0103 
; 0000 0104 
; 0000 0105       lcd_gotoxy(0,1);
	LDI  R30,LOW(0)
	ST   -Y,R30
	LDI  R26,LOW(1)
	CALL _lcd_gotoxy
; 0000 0106       lcd_puts(strsec);
	CALL SUBOPT_0xA
; 0000 0107       rtc_get_date(&_wday,&_day,&_month,&_year);
	LDI  R30,LOW(8)
	LDI  R31,HIGH(8)
	ST   -Y,R31
	ST   -Y,R30
	LDI  R30,LOW(13)
	LDI  R31,HIGH(13)
	ST   -Y,R31
	ST   -Y,R30
	LDI  R30,LOW(10)
	LDI  R31,HIGH(10)
	ST   -Y,R31
	ST   -Y,R30
	LDI  R26,LOW(11)
	LDI  R27,HIGH(11)
	CALL _rtc_get_date
; 0000 0108       _wday--;
	DEC  R8
; 0000 0109       sh_year=_year+1400;
	MOV  R30,R11
	LDI  R31,0
	SUBI R30,LOW(-1400)
	SBCI R31,HIGH(-1400)
	STS  _sh_year,R30
	STS  _sh_year+1,R31
; 0000 010A       sprintf(strsec,"%4d/%02d/%02d",sh_year,_month,_day);
	CALL SUBOPT_0x9
	__POINTW1FN _0x0,116
	ST   -Y,R31
	ST   -Y,R30
	LDS  R30,_sh_year
	LDS  R31,_sh_year+1
	CALL __CWD1
	CALL __PUTPARD1
	MOV  R30,R10
	CALL SUBOPT_0x7
	MOV  R30,R13
	CALL SUBOPT_0x7
	LDI  R24,12
	CALL _sprintf
	ADIW R28,16
; 0000 010B       //switch(_wday){
; 0000 010C        //case(1):_weekday="SAT";
; 0000 010D        //case(2):_weekday="SUN";
; 0000 010E        //case(3):_weekday="MON";
; 0000 010F        //case(4):_weekday="TUE";
; 0000 0110        //case(5):_weekday="WED";
; 0000 0111        //case(6):_weekday="THU";
; 0000 0112        //case(7):_weekday="FRI";
; 0000 0113        //default:_weekday="___";
; 0000 0114       //}
; 0000 0115 
; 0000 0116       lcd_gotoxy(0,0);
	LDI  R30,LOW(0)
	CALL SUBOPT_0x5
; 0000 0117       lcd_puts(strsec);
	CALL SUBOPT_0xA
; 0000 0118       //_weekday[]="s";
; 0000 0119       //if (_sec==2) a^;
; 0000 011A       //glcd_display(a);
; 0000 011B 
; 0000 011C       strcpy(strsec,_weekday[_wday]);
	CALL SUBOPT_0x9
	MOV  R30,R8
	LDI  R26,LOW(__weekday)
	LDI  R27,HIGH(__weekday)
	LDI  R31,0
	CALL __LSLW2
	ADD  R26,R30
	ADC  R27,R31
	CALL _strcpy
; 0000 011D       lcd_gotoxy(11,0);
	LDI  R30,LOW(11)
	CALL SUBOPT_0x5
; 0000 011E       lcd_puts(strsec);
	CALL SUBOPT_0xA
; 0000 011F       /*lcd_gotoxy(0,0);
; 0000 0120       lcd_puts("11");
; 0000 0121       glcd_rectangle(0, 0, 18, 18);
; 0000 0122       delay_ms(2000);
; 0000 0123       glcd_clear();
; 0000 0124       delay_ms(750);
; 0000 0125       //glcd_setcolor(0);
; 0000 0126       //glcd_setbkcolor(1);
; 0000 0127       delay_ms(2000);
; 0000 0128       glcd_setfont(she);
; 0000 0129       delay_ms(2000);
; 0000 012A       glcd_outtext("!");
; 0000 012B       //lcd_puts("!");
; 0000 012C       //glcd_setcolor(1);
; 0000 012D       //glcd_setbkcolor(0);
; 0000 012E       //lcd_puts("!");
; 0000 012F       delay_ms(500);
; 0000 0130       glcd_clear();
; 0000 0131 
; 0000 0132 
; 0000 0133       glcd_rectangle(30, 30, 45, 45);
; 0000 0134       glcd_setfont(she);
; 0000 0135       glcd_setcolor(0);
; 0000 0136       glcd_setbkcolor(1);
; 0000 0137       glcd_outtextxy(33, 33, "!");
; 0000 0138       delay_ms(2000);
; 0000 0139       glcd_setcolor(1);
; 0000 013A       glcd_setbkcolor(0);
; 0000 013B       glcd_cleartext();
; 0000 013C       delay_ms(2000);
; 0000 013D       rtc_get_time(_hour,_min,_sec);
; 0000 013E       sprintf(strsec,"%d",_sec);
; 0000 013F       lcd_gotoxy(0,0);
; 0000 0140       lcd_puts(strsec);
; 0000 0141       delay_ms(2000);
; 0000 0142       glcd_clear();
; 0000 0143 
; 0000 0144 */
; 0000 0145   // Place your code here
; 0000 0146       //lcd_clear();
; 0000 0147       //delay_ms(500);
; 0000 0148 
; 0000 0149       /*
; 0000 014A       a=w1_init();
; 0000 014B       if (a>0) {
; 0000 014C       lcd_gotoxy(0,0);
; 0000 014D       lcd_puts("HI Ehsan");
; 0000 014E       lcd_gotoxy(0,1);
; 0000 014F         temp=ds18b20_temperature(0);
; 0000 0150         sprintf(buffer,"Temp=%2.1f%`C",temp,223);
; 0000 0151         lcd_puts(buffer);
; 0000 0152       }
; 0000 0153       delay_ms(500);
; 0000 0154       lcd_clear();
; 0000 0155       lcd_gotoxy(0,0);
; 0000 0156       glcd_putimagef(0,0,bfreeze,0);
; 0000 0157       delay_ms(2000);
; 0000 0158       glcd_putimagef(0,0,bfreeze,3);
; 0000 0159       delay_ms(2000);
; 0000 015A       lcd_clear();*/
; 0000 015B       }
	LDS  R30,_i
	SUBI R30,-LOW(1)
	STS  _i,R30
	RJMP _0x9
_0xA:
; 0000 015C       }
	RJMP _0x5
; 0000 015D }
_0xB:
	RJMP _0xB
; .FEND

	.DSEG
_0x4:
	.BYTE 0x4E
;
;
;/****************************************************************************
;Font created by the LCD Vision V1.05 font & image editor/converter
;(C) Copyright 2011-2013 Pavel Haiduc, HP InfoTech s.r.l.
;http://www.hpinfotech.com
;
;Font name: Arial
;The font is proportional (has variable width).
;Font height: 14 pixels
;First character: 0x20
;Last character: 0x7F
;
;Exported font data size:
;1500 bytes for displays organized as horizontal rows of bytes
;1190 bytes for displays organized as rows of vertical bytes.
;****************************************************************************/
;
;flash unsigned char arial[]=
;{
;0x00, /* Proportional font */
;0x0E, /* Font height */
;0x20, /* First character */
;0x60, /* Number of characters in font */
;
;/* Character widths */
;0x05, 0x02, 0x04, 0x06, 0x06, 0x0A, 0x07, 0x02,
;0x04, 0x04, 0x04, 0x06, 0x03, 0x04, 0x03, 0x03,
;0x06, 0x06, 0x06, 0x06, 0x06, 0x06, 0x06, 0x06,
;0x06, 0x06, 0x03, 0x03, 0x06, 0x06, 0x06, 0x06,
;0x0B, 0x08, 0x07, 0x07, 0x07, 0x06, 0x06, 0x08,
;0x07, 0x02, 0x05, 0x07, 0x06, 0x08, 0x07, 0x08,
;0x06, 0x08, 0x07, 0x07, 0x06, 0x07, 0x08, 0x0B,
;0x07, 0x08, 0x07, 0x03, 0x03, 0x03, 0x05, 0x06,
;0x04, 0x06, 0x06, 0x06, 0x06, 0x06, 0x04, 0x06,
;0x06, 0x02, 0x02, 0x05, 0x02, 0x08, 0x06, 0x06,
;0x06, 0x06, 0x04, 0x06, 0x03, 0x06, 0x06, 0x0A,
;0x06, 0x06, 0x06, 0x04, 0x02, 0x04, 0x06, 0x08,
;
;#ifndef _GLCD_DATA_BYTEY_
;/* Font data for displays organized as
;   horizontal rows of bytes */
;
;/* Code: 0x20, ASCII Character: ' ' */
;0x00, 0x00, 0x00, 0x00, 0x00, 0x00, 0x00, 0x00,
;0x00, 0x00, 0x00, 0x00, 0x00, 0x00,
;
;/* Code: 0x21, ASCII Character: '!' */
;0x00, 0x00, 0x00, 0x01, 0x01, 0x01, 0x01, 0x01,
;0x01, 0x00, 0x01, 0x00, 0x00, 0x00,
;
;/* Code: 0x22, ASCII Character: '"' */
;0x00, 0x00, 0x00, 0x05, 0x05, 0x05, 0x00, 0x00,
;0x00, 0x00, 0x00, 0x00, 0x00, 0x00,
;
;/* Code: 0x23, ASCII Character: '#' */
;0x00, 0x00, 0x00, 0x14, 0x14, 0x1F, 0x0A, 0x0A,
;0x1F, 0x05, 0x05, 0x00, 0x00, 0x00,
;
;/* Code: 0x24, ASCII Character: '$' */
;0x00, 0x00, 0x00, 0x0E, 0x15, 0x05, 0x0E, 0x14,
;0x14, 0x15, 0x0E, 0x04, 0x00, 0x00,
;
;/* Code: 0x25, ASCII Character: '%' */
;0x00, 0x00, 0x00, 0x00, 0x00, 0x00, 0x46, 0x00,
;0x29, 0x00, 0x29, 0x00, 0x16, 0x00, 0xD0, 0x00,
;0x28, 0x01, 0x28, 0x01, 0xC4, 0x00, 0x00, 0x00,
;0x00, 0x00, 0x00, 0x00,
;
;/* Code: 0x26, ASCII Character: '&' */
;0x00, 0x00, 0x00, 0x0C, 0x12, 0x12, 0x0C, 0x0A,
;0x31, 0x11, 0x2E, 0x00, 0x00, 0x00,
;
;/* Code: 0x27, ASCII Character: ''' */
;0x00, 0x00, 0x00, 0x01, 0x01, 0x01, 0x00, 0x00,
;0x00, 0x00, 0x00, 0x00, 0x00, 0x00,
;
;/* Code: 0x28, ASCII Character: '(' */
;0x00, 0x00, 0x00, 0x04, 0x02, 0x01, 0x01, 0x01,
;0x01, 0x01, 0x01, 0x02, 0x04, 0x00,
;
;/* Code: 0x29, ASCII Character: ')' */
;0x00, 0x00, 0x00, 0x01, 0x02, 0x04, 0x04, 0x04,
;0x04, 0x04, 0x04, 0x02, 0x01, 0x00,
;
;/* Code: 0x2A, ASCII Character: '*' */
;0x00, 0x00, 0x00, 0x02, 0x07, 0x02, 0x05, 0x00,
;0x00, 0x00, 0x00, 0x00, 0x00, 0x00,
;
;/* Code: 0x2B, ASCII Character: '+' */
;0x00, 0x00, 0x00, 0x00, 0x00, 0x04, 0x04, 0x1F,
;0x04, 0x04, 0x00, 0x00, 0x00, 0x00,
;
;/* Code: 0x2C, ASCII Character: ',' */
;0x00, 0x00, 0x00, 0x00, 0x00, 0x00, 0x00, 0x00,
;0x00, 0x00, 0x02, 0x02, 0x02, 0x00,
;
;/* Code: 0x2D, ASCII Character: '-' */
;0x00, 0x00, 0x00, 0x00, 0x00, 0x00, 0x00, 0x00,
;0x07, 0x00, 0x00, 0x00, 0x00, 0x00,
;
;/* Code: 0x2E, ASCII Character: '.' */
;0x00, 0x00, 0x00, 0x00, 0x00, 0x00, 0x00, 0x00,
;0x00, 0x00, 0x02, 0x00, 0x00, 0x00,
;
;/* Code: 0x2F, ASCII Character: '/' */
;0x00, 0x00, 0x00, 0x04, 0x04, 0x02, 0x02, 0x02,
;0x02, 0x01, 0x01, 0x00, 0x00, 0x00,
;
;/* Code: 0x30, ASCII Character: '0' */
;0x00, 0x00, 0x00, 0x0E, 0x11, 0x11, 0x11, 0x11,
;0x11, 0x11, 0x0E, 0x00, 0x00, 0x00,
;
;/* Code: 0x31, ASCII Character: '1' */
;0x00, 0x00, 0x00, 0x04, 0x06, 0x05, 0x04, 0x04,
;0x04, 0x04, 0x04, 0x00, 0x00, 0x00,
;
;/* Code: 0x32, ASCII Character: '2' */
;0x00, 0x00, 0x00, 0x0E, 0x11, 0x10, 0x10, 0x08,
;0x04, 0x02, 0x1F, 0x00, 0x00, 0x00,
;
;/* Code: 0x33, ASCII Character: '3' */
;0x00, 0x00, 0x00, 0x0E, 0x11, 0x10, 0x0C, 0x10,
;0x10, 0x11, 0x0E, 0x00, 0x00, 0x00,
;
;/* Code: 0x34, ASCII Character: '4' */
;0x00, 0x00, 0x00, 0x08, 0x0C, 0x0A, 0x0A, 0x09,
;0x1F, 0x08, 0x08, 0x00, 0x00, 0x00,
;
;/* Code: 0x35, ASCII Character: '5' */
;0x00, 0x00, 0x00, 0x1E, 0x02, 0x01, 0x0F, 0x10,
;0x10, 0x11, 0x0E, 0x00, 0x00, 0x00,
;
;/* Code: 0x36, ASCII Character: '6' */
;0x00, 0x00, 0x00, 0x0E, 0x11, 0x01, 0x0F, 0x11,
;0x11, 0x11, 0x0E, 0x00, 0x00, 0x00,
;
;/* Code: 0x37, ASCII Character: '7' */
;0x00, 0x00, 0x00, 0x1F, 0x08, 0x08, 0x04, 0x04,
;0x02, 0x02, 0x02, 0x00, 0x00, 0x00,
;
;/* Code: 0x38, ASCII Character: '8' */
;0x00, 0x00, 0x00, 0x0E, 0x11, 0x11, 0x0E, 0x11,
;0x11, 0x11, 0x0E, 0x00, 0x00, 0x00,
;
;/* Code: 0x39, ASCII Character: '9' */
;0x00, 0x00, 0x00, 0x0E, 0x11, 0x11, 0x11, 0x1E,
;0x10, 0x11, 0x0E, 0x00, 0x00, 0x00,
;
;/* Code: 0x3A, ASCII Character: ':' */
;0x00, 0x00, 0x00, 0x00, 0x00, 0x01, 0x00, 0x00,
;0x00, 0x00, 0x01, 0x00, 0x00, 0x00,
;
;/* Code: 0x3B, ASCII Character: ';' */
;0x00, 0x00, 0x00, 0x00, 0x00, 0x01, 0x00, 0x00,
;0x00, 0x00, 0x01, 0x01, 0x01, 0x00,
;
;/* Code: 0x3C, ASCII Character: '<' */
;0x00, 0x00, 0x00, 0x00, 0x00, 0x10, 0x0E, 0x01,
;0x0E, 0x10, 0x00, 0x00, 0x00, 0x00,
;
;/* Code: 0x3D, ASCII Character: '=' */
;0x00, 0x00, 0x00, 0x00, 0x00, 0x00, 0x1F, 0x00,
;0x1F, 0x00, 0x00, 0x00, 0x00, 0x00,
;
;/* Code: 0x3E, ASCII Character: '>' */
;0x00, 0x00, 0x00, 0x00, 0x00, 0x01, 0x0E, 0x10,
;0x0E, 0x01, 0x00, 0x00, 0x00, 0x00,
;
;/* Code: 0x3F, ASCII Character: '?' */
;0x00, 0x00, 0x00, 0x0E, 0x11, 0x10, 0x08, 0x04,
;0x04, 0x00, 0x04, 0x00, 0x00, 0x00,
;
;/* Code: 0x40, ASCII Character: '@' */
;0x00, 0x00, 0x00, 0x00, 0x00, 0x00, 0xF8, 0x00,
;0x06, 0x01, 0xB2, 0x02, 0xC9, 0x02, 0x45, 0x02,
;0x45, 0x02, 0x65, 0x01, 0xD9, 0x00, 0x02, 0x02,
;0xFC, 0x01, 0x00, 0x00,
;
;/* Code: 0x41, ASCII Character: 'A' */
;0x00, 0x00, 0x00, 0x08, 0x14, 0x14, 0x14, 0x22,
;0x3E, 0x41, 0x41, 0x00, 0x00, 0x00,
;
;/* Code: 0x42, ASCII Character: 'B' */
;0x00, 0x00, 0x00, 0x1F, 0x21, 0x21, 0x3F, 0x21,
;0x21, 0x21, 0x1F, 0x00, 0x00, 0x00,
;
;/* Code: 0x43, ASCII Character: 'C' */
;0x00, 0x00, 0x00, 0x1C, 0x22, 0x01, 0x01, 0x01,
;0x01, 0x22, 0x1C, 0x00, 0x00, 0x00,
;
;/* Code: 0x44, ASCII Character: 'D' */
;0x00, 0x00, 0x00, 0x0F, 0x11, 0x21, 0x21, 0x21,
;0x21, 0x11, 0x0F, 0x00, 0x00, 0x00,
;
;/* Code: 0x45, ASCII Character: 'E' */
;0x00, 0x00, 0x00, 0x1F, 0x01, 0x01, 0x1F, 0x01,
;0x01, 0x01, 0x1F, 0x00, 0x00, 0x00,
;
;/* Code: 0x46, ASCII Character: 'F' */
;0x00, 0x00, 0x00, 0x1F, 0x01, 0x01, 0x0F, 0x01,
;0x01, 0x01, 0x01, 0x00, 0x00, 0x00,
;
;/* Code: 0x47, ASCII Character: 'G' */
;0x00, 0x00, 0x00, 0x1C, 0x22, 0x41, 0x01, 0x71,
;0x41, 0x22, 0x1C, 0x00, 0x00, 0x00,
;
;/* Code: 0x48, ASCII Character: 'H' */
;0x00, 0x00, 0x00, 0x21, 0x21, 0x21, 0x3F, 0x21,
;0x21, 0x21, 0x21, 0x00, 0x00, 0x00,
;
;/* Code: 0x49, ASCII Character: 'I' */
;0x00, 0x00, 0x00, 0x01, 0x01, 0x01, 0x01, 0x01,
;0x01, 0x01, 0x01, 0x00, 0x00, 0x00,
;
;/* Code: 0x4A, ASCII Character: 'J' */
;0x00, 0x00, 0x00, 0x08, 0x08, 0x08, 0x08, 0x08,
;0x09, 0x09, 0x06, 0x00, 0x00, 0x00,
;
;/* Code: 0x4B, ASCII Character: 'K' */
;0x00, 0x00, 0x00, 0x21, 0x11, 0x09, 0x0D, 0x0B,
;0x11, 0x11, 0x21, 0x00, 0x00, 0x00,
;
;/* Code: 0x4C, ASCII Character: 'L' */
;0x00, 0x00, 0x00, 0x01, 0x01, 0x01, 0x01, 0x01,
;0x01, 0x01, 0x1F, 0x00, 0x00, 0x00,
;
;/* Code: 0x4D, ASCII Character: 'M' */
;0x00, 0x00, 0x00, 0x41, 0x63, 0x63, 0x55, 0x55,
;0x55, 0x49, 0x49, 0x00, 0x00, 0x00,
;
;/* Code: 0x4E, ASCII Character: 'N' */
;0x00, 0x00, 0x00, 0x21, 0x23, 0x25, 0x25, 0x29,
;0x29, 0x31, 0x21, 0x00, 0x00, 0x00,
;
;/* Code: 0x4F, ASCII Character: 'O' */
;0x00, 0x00, 0x00, 0x1C, 0x22, 0x41, 0x41, 0x41,
;0x41, 0x22, 0x1C, 0x00, 0x00, 0x00,
;
;/* Code: 0x50, ASCII Character: 'P' */
;0x00, 0x00, 0x00, 0x0F, 0x11, 0x11, 0x11, 0x0F,
;0x01, 0x01, 0x01, 0x00, 0x00, 0x00,
;
;/* Code: 0x51, ASCII Character: 'Q' */
;0x00, 0x00, 0x00, 0x1C, 0x22, 0x41, 0x41, 0x41,
;0x59, 0x22, 0x5C, 0x00, 0x00, 0x00,
;
;/* Code: 0x52, ASCII Character: 'R' */
;0x00, 0x00, 0x00, 0x1F, 0x21, 0x21, 0x1F, 0x09,
;0x11, 0x11, 0x21, 0x00, 0x00, 0x00,
;
;/* Code: 0x53, ASCII Character: 'S' */
;0x00, 0x00, 0x00, 0x1E, 0x21, 0x01, 0x06, 0x18,
;0x20, 0x21, 0x1E, 0x00, 0x00, 0x00,
;
;/* Code: 0x54, ASCII Character: 'T' */
;0x00, 0x00, 0x00, 0x1F, 0x04, 0x04, 0x04, 0x04,
;0x04, 0x04, 0x04, 0x00, 0x00, 0x00,
;
;/* Code: 0x55, ASCII Character: 'U' */
;0x00, 0x00, 0x00, 0x21, 0x21, 0x21, 0x21, 0x21,
;0x21, 0x21, 0x1E, 0x00, 0x00, 0x00,
;
;/* Code: 0x56, ASCII Character: 'V' */
;0x00, 0x00, 0x00, 0x41, 0x41, 0x22, 0x22, 0x14,
;0x14, 0x08, 0x08, 0x00, 0x00, 0x00,
;
;/* Code: 0x57, ASCII Character: 'W' */
;0x00, 0x00, 0x00, 0x00, 0x00, 0x00, 0x21, 0x04,
;0x51, 0x04, 0x52, 0x02, 0x52, 0x02, 0x8A, 0x02,
;0x8A, 0x02, 0x04, 0x01, 0x04, 0x01, 0x00, 0x00,
;0x00, 0x00, 0x00, 0x00,
;
;/* Code: 0x58, ASCII Character: 'X' */
;0x00, 0x00, 0x00, 0x21, 0x12, 0x12, 0x0C, 0x0C,
;0x12, 0x12, 0x21, 0x00, 0x00, 0x00,
;
;/* Code: 0x59, ASCII Character: 'Y' */
;0x00, 0x00, 0x00, 0x41, 0x22, 0x22, 0x14, 0x08,
;0x08, 0x08, 0x08, 0x00, 0x00, 0x00,
;
;/* Code: 0x5A, ASCII Character: 'Z' */
;0x00, 0x00, 0x00, 0x3E, 0x10, 0x08, 0x08, 0x04,
;0x04, 0x02, 0x3F, 0x00, 0x00, 0x00,
;
;/* Code: 0x5B, ASCII Character: '[' */
;0x00, 0x00, 0x00, 0x03, 0x01, 0x01, 0x01, 0x01,
;0x01, 0x01, 0x01, 0x01, 0x03, 0x00,
;
;/* Code: 0x5C, ASCII Character: '\' */
;0x00, 0x00, 0x00, 0x01, 0x01, 0x02, 0x02, 0x02,
;0x02, 0x04, 0x04, 0x00, 0x00, 0x00,
;
;/* Code: 0x5D, ASCII Character: ']' */
;0x00, 0x00, 0x00, 0x03, 0x02, 0x02, 0x02, 0x02,
;0x02, 0x02, 0x02, 0x02, 0x03, 0x00,
;
;/* Code: 0x5E, ASCII Character: '^' */
;0x00, 0x00, 0x00, 0x04, 0x0A, 0x0A, 0x11, 0x00,
;0x00, 0x00, 0x00, 0x00, 0x00, 0x00,
;
;/* Code: 0x5F, ASCII Character: '_' */
;0x00, 0x00, 0x00, 0x00, 0x00, 0x00, 0x00, 0x00,
;0x00, 0x00, 0x00, 0x00, 0x3F, 0x00,
;
;/* Code: 0x60, ASCII Character: '`' */
;0x00, 0x00, 0x00, 0x01, 0x02, 0x00, 0x00, 0x00,
;0x00, 0x00, 0x00, 0x00, 0x00, 0x00,
;
;/* Code: 0x61, ASCII Character: 'a' */
;0x00, 0x00, 0x00, 0x00, 0x00, 0x0E, 0x11, 0x1E,
;0x11, 0x19, 0x16, 0x00, 0x00, 0x00,
;
;/* Code: 0x62, ASCII Character: 'b' */
;0x00, 0x00, 0x00, 0x01, 0x01, 0x0D, 0x13, 0x11,
;0x11, 0x13, 0x0D, 0x00, 0x00, 0x00,
;
;/* Code: 0x63, ASCII Character: 'c' */
;0x00, 0x00, 0x00, 0x00, 0x00, 0x0E, 0x11, 0x01,
;0x01, 0x11, 0x0E, 0x00, 0x00, 0x00,
;
;/* Code: 0x64, ASCII Character: 'd' */
;0x00, 0x00, 0x00, 0x10, 0x10, 0x16, 0x19, 0x11,
;0x11, 0x19, 0x16, 0x00, 0x00, 0x00,
;
;/* Code: 0x65, ASCII Character: 'e' */
;0x00, 0x00, 0x00, 0x00, 0x00, 0x0E, 0x11, 0x1F,
;0x01, 0x11, 0x0E, 0x00, 0x00, 0x00,
;
;/* Code: 0x66, ASCII Character: 'f' */
;0x00, 0x00, 0x00, 0x04, 0x02, 0x07, 0x02, 0x02,
;0x02, 0x02, 0x02, 0x00, 0x00, 0x00,
;
;/* Code: 0x67, ASCII Character: 'g' */
;0x00, 0x00, 0x00, 0x00, 0x00, 0x16, 0x19, 0x11,
;0x11, 0x19, 0x16, 0x10, 0x0F, 0x00,
;
;/* Code: 0x68, ASCII Character: 'h' */
;0x00, 0x00, 0x00, 0x01, 0x01, 0x0D, 0x13, 0x11,
;0x11, 0x11, 0x11, 0x00, 0x00, 0x00,
;
;/* Code: 0x69, ASCII Character: 'i' */
;0x00, 0x00, 0x00, 0x01, 0x00, 0x01, 0x01, 0x01,
;0x01, 0x01, 0x01, 0x00, 0x00, 0x00,
;
;/* Code: 0x6A, ASCII Character: 'j' */
;0x00, 0x00, 0x00, 0x02, 0x00, 0x02, 0x02, 0x02,
;0x02, 0x02, 0x02, 0x02, 0x01, 0x00,
;
;/* Code: 0x6B, ASCII Character: 'k' */
;0x00, 0x00, 0x00, 0x01, 0x01, 0x09, 0x05, 0x03,
;0x05, 0x05, 0x09, 0x00, 0x00, 0x00,
;
;/* Code: 0x6C, ASCII Character: 'l' */
;0x00, 0x00, 0x00, 0x01, 0x01, 0x01, 0x01, 0x01,
;0x01, 0x01, 0x01, 0x00, 0x00, 0x00,
;
;/* Code: 0x6D, ASCII Character: 'm' */
;0x00, 0x00, 0x00, 0x00, 0x00, 0x3D, 0x4B, 0x49,
;0x49, 0x49, 0x49, 0x00, 0x00, 0x00,
;
;/* Code: 0x6E, ASCII Character: 'n' */
;0x00, 0x00, 0x00, 0x00, 0x00, 0x0F, 0x11, 0x11,
;0x11, 0x11, 0x11, 0x00, 0x00, 0x00,
;
;/* Code: 0x6F, ASCII Character: 'o' */
;0x00, 0x00, 0x00, 0x00, 0x00, 0x0E, 0x11, 0x11,
;0x11, 0x11, 0x0E, 0x00, 0x00, 0x00,
;
;/* Code: 0x70, ASCII Character: 'p' */
;0x00, 0x00, 0x00, 0x00, 0x00, 0x0D, 0x13, 0x11,
;0x11, 0x13, 0x0D, 0x01, 0x01, 0x00,
;
;/* Code: 0x71, ASCII Character: 'q' */
;0x00, 0x00, 0x00, 0x00, 0x00, 0x16, 0x19, 0x11,
;0x11, 0x19, 0x16, 0x10, 0x10, 0x00,
;
;/* Code: 0x72, ASCII Character: 'r' */
;0x00, 0x00, 0x00, 0x00, 0x00, 0x05, 0x03, 0x01,
;0x01, 0x01, 0x01, 0x00, 0x00, 0x00,
;
;/* Code: 0x73, ASCII Character: 's' */
;0x00, 0x00, 0x00, 0x00, 0x00, 0x0E, 0x11, 0x06,
;0x08, 0x11, 0x0E, 0x00, 0x00, 0x00,
;
;/* Code: 0x74, ASCII Character: 't' */
;0x00, 0x00, 0x00, 0x02, 0x02, 0x07, 0x02, 0x02,
;0x02, 0x02, 0x06, 0x00, 0x00, 0x00,
;
;/* Code: 0x75, ASCII Character: 'u' */
;0x00, 0x00, 0x00, 0x00, 0x00, 0x11, 0x11, 0x11,
;0x11, 0x19, 0x16, 0x00, 0x00, 0x00,
;
;/* Code: 0x76, ASCII Character: 'v' */
;0x00, 0x00, 0x00, 0x00, 0x00, 0x11, 0x11, 0x0A,
;0x0A, 0x04, 0x04, 0x00, 0x00, 0x00,
;
;/* Code: 0x77, ASCII Character: 'w' */
;0x00, 0x00, 0x00, 0x00, 0x00, 0x00, 0x00, 0x00,
;0x00, 0x00, 0x11, 0x01, 0x29, 0x01, 0xAA, 0x00,
;0xAA, 0x00, 0x44, 0x00, 0x44, 0x00, 0x00, 0x00,
;0x00, 0x00, 0x00, 0x00,
;
;/* Code: 0x78, ASCII Character: 'x' */
;0x00, 0x00, 0x00, 0x00, 0x00, 0x11, 0x0A, 0x04,
;0x04, 0x0A, 0x11, 0x00, 0x00, 0x00,
;
;/* Code: 0x79, ASCII Character: 'y' */
;0x00, 0x00, 0x00, 0x00, 0x00, 0x11, 0x11, 0x0A,
;0x0A, 0x04, 0x04, 0x04, 0x02, 0x00,
;
;/* Code: 0x7A, ASCII Character: 'z' */
;0x00, 0x00, 0x00, 0x00, 0x00, 0x1F, 0x08, 0x04,
;0x04, 0x02, 0x1F, 0x00, 0x00, 0x00,
;
;/* Code: 0x7B, ASCII Character: '{' */
;0x00, 0x00, 0x00, 0x04, 0x02, 0x02, 0x02, 0x01,
;0x02, 0x02, 0x02, 0x02, 0x04, 0x00,
;
;/* Code: 0x7C, ASCII Character: '|' */
;0x00, 0x00, 0x00, 0x01, 0x01, 0x01, 0x01, 0x01,
;0x01, 0x01, 0x01, 0x01, 0x01, 0x00,
;
;/* Code: 0x7D, ASCII Character: '}' */
;0x00, 0x00, 0x00, 0x02, 0x04, 0x04, 0x04, 0x08,
;0x04, 0x04, 0x04, 0x04, 0x02, 0x00,
;
;/* Code: 0x7E, ASCII Character: '~' */
;0x00, 0x00, 0x00, 0x00, 0x00, 0x00, 0x17, 0x0D,
;0x00, 0x00, 0x00, 0x00, 0x00, 0x00,
;
;/* Code: 0x7F, ASCII Character: '' */
;0x00, 0x00, 0x00, 0x7E, 0x42, 0x42, 0x42, 0x42,
;0x42, 0x42, 0x7E, 0x00, 0x00, 0x00,
;
;#else
;/* Font data for displays organized as
;   rows of vertical bytes */
;
;/* Code: 0x20, ASCII Character: ' ' */
;0x00, 0x00, 0x00, 0x00, 0x00, 0x00, 0x00, 0x00,
;0x00, 0x00,
;
;/* Code: 0x21, ASCII Character: '!' */
;0xF8, 0x00, 0x05, 0x00,
;
;/* Code: 0x22, ASCII Character: '"' */
;0x38, 0x00, 0x38, 0x00, 0x00, 0x00, 0x00, 0x00,
;
;/* Code: 0x23, ASCII Character: '#' */
;0x20, 0xE0, 0x38, 0xE0, 0x38, 0x00, 0x07, 0x01,
;0x07, 0x01, 0x01, 0x00,
;
;/* Code: 0x24, ASCII Character: '$' */
;0x30, 0x48, 0xF8, 0x48, 0x90, 0x00, 0x02, 0x04,
;0x0F, 0x04, 0x03, 0x00,
;
;/* Code: 0x25, ASCII Character: '%' */
;0x30, 0x48, 0x48, 0x30, 0xC0, 0x30, 0x88, 0x80,
;0x00, 0x00, 0x00, 0x00, 0x04, 0x03, 0x00, 0x03,
;0x04, 0x04, 0x03, 0x00,
;
;/* Code: 0x26, ASCII Character: '&' */
;0x00, 0xB0, 0x48, 0xC8, 0x30, 0x00, 0x00, 0x03,
;0x04, 0x04, 0x04, 0x03, 0x05, 0x00,
;
;/* Code: 0x27, ASCII Character: ''' */
;0x38, 0x00, 0x00, 0x00,
;
;/* Code: 0x28, ASCII Character: '(' */
;0xE0, 0x10, 0x08, 0x00, 0x07, 0x08, 0x10, 0x00,
;
;/* Code: 0x29, ASCII Character: ')' */
;0x08, 0x10, 0xE0, 0x00, 0x10, 0x08, 0x07, 0x00,
;
;/* Code: 0x2A, ASCII Character: '*' */
;0x50, 0x38, 0x50, 0x00, 0x00, 0x00, 0x00, 0x00,
;
;/* Code: 0x2B, ASCII Character: '+' */
;0x80, 0x80, 0xE0, 0x80, 0x80, 0x00, 0x00, 0x00,
;0x03, 0x00, 0x00, 0x00,
;
;/* Code: 0x2C, ASCII Character: ',' */
;0x00, 0x00, 0x00, 0x00, 0x1C, 0x00,
;
;/* Code: 0x2D, ASCII Character: '-' */
;0x00, 0x00, 0x00, 0x00, 0x01, 0x01, 0x01, 0x00,
;
;/* Code: 0x2E, ASCII Character: '.' */
;0x00, 0x00, 0x00, 0x00, 0x04, 0x00,
;
;/* Code: 0x2F, ASCII Character: '/' */
;0x00, 0xE0, 0x18, 0x06, 0x01, 0x00,
;
;/* Code: 0x30, ASCII Character: '0' */
;0xF0, 0x08, 0x08, 0x08, 0xF0, 0x00, 0x03, 0x04,
;0x04, 0x04, 0x03, 0x00,
;
;/* Code: 0x31, ASCII Character: '1' */
;0x20, 0x10, 0xF8, 0x00, 0x00, 0x00, 0x00, 0x00,
;0x07, 0x00, 0x00, 0x00,
;
;/* Code: 0x32, ASCII Character: '2' */
;0x10, 0x08, 0x08, 0x88, 0x70, 0x00, 0x04, 0x06,
;0x05, 0x04, 0x04, 0x00,
;
;/* Code: 0x33, ASCII Character: '3' */
;0x10, 0x08, 0x48, 0x48, 0xB0, 0x00, 0x02, 0x04,
;0x04, 0x04, 0x03, 0x00,
;
;/* Code: 0x34, ASCII Character: '4' */
;0x80, 0x60, 0x10, 0xF8, 0x00, 0x00, 0x01, 0x01,
;0x01, 0x07, 0x01, 0x00,
;
;/* Code: 0x35, ASCII Character: '5' */
;0x60, 0x58, 0x48, 0x48, 0x88, 0x00, 0x02, 0x04,
;0x04, 0x04, 0x03, 0x00,
;
;/* Code: 0x36, ASCII Character: '6' */
;0xF0, 0x48, 0x48, 0x48, 0x90, 0x00, 0x03, 0x04,
;0x04, 0x04, 0x03, 0x00,
;
;/* Code: 0x37, ASCII Character: '7' */
;0x08, 0x08, 0xC8, 0x38, 0x08, 0x00, 0x00, 0x07,
;0x00, 0x00, 0x00, 0x00,
;
;/* Code: 0x38, ASCII Character: '8' */
;0xB0, 0x48, 0x48, 0x48, 0xB0, 0x00, 0x03, 0x04,
;0x04, 0x04, 0x03, 0x00,
;
;/* Code: 0x39, ASCII Character: '9' */
;0x70, 0x88, 0x88, 0x88, 0xF0, 0x00, 0x02, 0x04,
;0x04, 0x04, 0x03, 0x00,
;
;/* Code: 0x3A, ASCII Character: ':' */
;0x20, 0x00, 0x00, 0x04, 0x00, 0x00,
;
;/* Code: 0x3B, ASCII Character: ';' */
;0x20, 0x00, 0x00, 0x1C, 0x00, 0x00,
;
;/* Code: 0x3C, ASCII Character: '<' */
;0x80, 0x40, 0x40, 0x40, 0x20, 0x00, 0x00, 0x01,
;0x01, 0x01, 0x02, 0x00,
;
;/* Code: 0x3D, ASCII Character: '=' */
;0x40, 0x40, 0x40, 0x40, 0x40, 0x00, 0x01, 0x01,
;0x01, 0x01, 0x01, 0x00,
;
;/* Code: 0x3E, ASCII Character: '>' */
;0x20, 0x40, 0x40, 0x40, 0x80, 0x00, 0x02, 0x01,
;0x01, 0x01, 0x00, 0x00,
;
;/* Code: 0x3F, ASCII Character: '?' */
;0x10, 0x08, 0x88, 0x48, 0x30, 0x00, 0x00, 0x00,
;0x05, 0x00, 0x00, 0x00,
;
;/* Code: 0x40, ASCII Character: '@' */
;0xC0, 0x30, 0x90, 0x48, 0x28, 0x28, 0xC8, 0x68,
;0x10, 0xE0, 0x00, 0x07, 0x08, 0x13, 0x14, 0x14,
;0x12, 0x17, 0x14, 0x12, 0x09, 0x00,
;
;/* Code: 0x41, ASCII Character: 'A' */
;0x00, 0x80, 0x70, 0x08, 0x70, 0x80, 0x00, 0x00,
;0x06, 0x01, 0x01, 0x01, 0x01, 0x01, 0x06, 0x00,
;
;/* Code: 0x42, ASCII Character: 'B' */
;0xF8, 0x48, 0x48, 0x48, 0x48, 0xF0, 0x00, 0x07,
;0x04, 0x04, 0x04, 0x04, 0x03, 0x00,
;
;/* Code: 0x43, ASCII Character: 'C' */
;0xE0, 0x10, 0x08, 0x08, 0x08, 0x10, 0x00, 0x01,
;0x02, 0x04, 0x04, 0x04, 0x02, 0x00,
;
;/* Code: 0x44, ASCII Character: 'D' */
;0xF8, 0x08, 0x08, 0x08, 0x10, 0xE0, 0x00, 0x07,
;0x04, 0x04, 0x04, 0x02, 0x01, 0x00,
;
;/* Code: 0x45, ASCII Character: 'E' */
;0xF8, 0x48, 0x48, 0x48, 0x48, 0x00, 0x07, 0x04,
;0x04, 0x04, 0x04, 0x00,
;
;/* Code: 0x46, ASCII Character: 'F' */
;0xF8, 0x48, 0x48, 0x48, 0x08, 0x00, 0x07, 0x00,
;0x00, 0x00, 0x00, 0x00,
;
;/* Code: 0x47, ASCII Character: 'G' */
;0xE0, 0x10, 0x08, 0x08, 0x88, 0x90, 0xA0, 0x00,
;0x01, 0x02, 0x04, 0x04, 0x04, 0x02, 0x01, 0x00,
;
;/* Code: 0x48, ASCII Character: 'H' */
;0xF8, 0x40, 0x40, 0x40, 0x40, 0xF8, 0x00, 0x07,
;0x00, 0x00, 0x00, 0x00, 0x07, 0x00,
;
;/* Code: 0x49, ASCII Character: 'I' */
;0xF8, 0x00, 0x07, 0x00,
;
;/* Code: 0x4A, ASCII Character: 'J' */
;0x00, 0x00, 0x00, 0xF8, 0x00, 0x03, 0x04, 0x04,
;0x03, 0x00,
;
;/* Code: 0x4B, ASCII Character: 'K' */
;0xF8, 0x80, 0x40, 0xE0, 0x10, 0x08, 0x00, 0x07,
;0x00, 0x00, 0x00, 0x03, 0x04, 0x00,
;
;/* Code: 0x4C, ASCII Character: 'L' */
;0xF8, 0x00, 0x00, 0x00, 0x00, 0x00, 0x07, 0x04,
;0x04, 0x04, 0x04, 0x00,
;
;/* Code: 0x4D, ASCII Character: 'M' */
;0xF8, 0x30, 0xC0, 0x00, 0xC0, 0x30, 0xF8, 0x00,
;0x07, 0x00, 0x01, 0x06, 0x01, 0x00, 0x07, 0x00,
;
;/* Code: 0x4E, ASCII Character: 'N' */
;0xF8, 0x10, 0x60, 0x80, 0x00, 0xF8, 0x00, 0x07,
;0x00, 0x00, 0x01, 0x02, 0x07, 0x00,
;
;/* Code: 0x4F, ASCII Character: 'O' */
;0xE0, 0x10, 0x08, 0x08, 0x08, 0x10, 0xE0, 0x00,
;0x01, 0x02, 0x04, 0x04, 0x04, 0x02, 0x01, 0x00,
;
;/* Code: 0x50, ASCII Character: 'P' */
;0xF8, 0x88, 0x88, 0x88, 0x70, 0x00, 0x07, 0x00,
;0x00, 0x00, 0x00, 0x00,
;
;/* Code: 0x51, ASCII Character: 'Q' */
;0xE0, 0x10, 0x08, 0x08, 0x08, 0x10, 0xE0, 0x00,
;0x01, 0x02, 0x04, 0x05, 0x05, 0x02, 0x05, 0x00,
;
;/* Code: 0x52, ASCII Character: 'R' */
;0xF8, 0x48, 0x48, 0xC8, 0x48, 0x30, 0x00, 0x07,
;0x00, 0x00, 0x00, 0x03, 0x04, 0x00,
;
;/* Code: 0x53, ASCII Character: 'S' */
;0x30, 0x48, 0x48, 0x88, 0x88, 0x10, 0x00, 0x02,
;0x04, 0x04, 0x04, 0x04, 0x03, 0x00,
;
;/* Code: 0x54, ASCII Character: 'T' */
;0x08, 0x08, 0xF8, 0x08, 0x08, 0x00, 0x00, 0x00,
;0x07, 0x00, 0x00, 0x00,
;
;/* Code: 0x55, ASCII Character: 'U' */
;0xF8, 0x00, 0x00, 0x00, 0x00, 0xF8, 0x00, 0x03,
;0x04, 0x04, 0x04, 0x04, 0x03, 0x00,
;
;/* Code: 0x56, ASCII Character: 'V' */
;0x18, 0x60, 0x80, 0x00, 0x80, 0x60, 0x18, 0x00,
;0x00, 0x00, 0x01, 0x06, 0x01, 0x00, 0x00, 0x00,
;
;/* Code: 0x57, ASCII Character: 'W' */
;0x18, 0xE0, 0x00, 0x80, 0x70, 0x08, 0x70, 0x80,
;0x00, 0xE0, 0x18, 0x00, 0x01, 0x06, 0x01, 0x00,
;0x00, 0x00, 0x01, 0x06, 0x01, 0x00,
;
;/* Code: 0x58, ASCII Character: 'X' */
;0x08, 0x30, 0xC0, 0xC0, 0x30, 0x08, 0x00, 0x04,
;0x03, 0x00, 0x00, 0x03, 0x04, 0x00,
;
;/* Code: 0x59, ASCII Character: 'Y' */
;0x08, 0x30, 0x40, 0x80, 0x40, 0x30, 0x08, 0x00,
;0x00, 0x00, 0x00, 0x07, 0x00, 0x00, 0x00, 0x00,
;
;/* Code: 0x5A, ASCII Character: 'Z' */
;0x00, 0x08, 0x88, 0x68, 0x18, 0x08, 0x00, 0x04,
;0x06, 0x05, 0x04, 0x04, 0x04, 0x00,
;
;/* Code: 0x5B, ASCII Character: '[' */
;0xF8, 0x08, 0x00, 0x1F, 0x10, 0x00,
;
;/* Code: 0x5C, ASCII Character: '\' */
;0x18, 0xE0, 0x00, 0x00, 0x01, 0x06,
;
;/* Code: 0x5D, ASCII Character: ']' */
;0x08, 0xF8, 0x00, 0x10, 0x1F, 0x00,
;
;/* Code: 0x5E, ASCII Character: '^' */
;0x40, 0x30, 0x08, 0x30, 0x40, 0x00, 0x00, 0x00,
;0x00, 0x00,
;
;/* Code: 0x5F, ASCII Character: '_' */
;0x00, 0x00, 0x00, 0x00, 0x00, 0x00, 0x10, 0x10,
;0x10, 0x10, 0x10, 0x10,
;
;/* Code: 0x60, ASCII Character: '`' */
;0x08, 0x10, 0x00, 0x00, 0x00, 0x00, 0x00, 0x00,
;
;/* Code: 0x61, ASCII Character: 'a' */
;0x40, 0xA0, 0xA0, 0xA0, 0xC0, 0x00, 0x03, 0x04,
;0x04, 0x02, 0x07, 0x00,
;
;/* Code: 0x62, ASCII Character: 'b' */
;0xF8, 0x40, 0x20, 0x20, 0xC0, 0x00, 0x07, 0x02,
;0x04, 0x04, 0x03, 0x00,
;
;/* Code: 0x63, ASCII Character: 'c' */
;0xC0, 0x20, 0x20, 0x20, 0x40, 0x00, 0x03, 0x04,
;0x04, 0x04, 0x02, 0x00,
;
;/* Code: 0x64, ASCII Character: 'd' */
;0xC0, 0x20, 0x20, 0x40, 0xF8, 0x00, 0x03, 0x04,
;0x04, 0x02, 0x07, 0x00,
;
;/* Code: 0x65, ASCII Character: 'e' */
;0xC0, 0xA0, 0xA0, 0xA0, 0xC0, 0x00, 0x03, 0x04,
;0x04, 0x04, 0x02, 0x00,
;
;/* Code: 0x66, ASCII Character: 'f' */
;0x20, 0xF0, 0x28, 0x00, 0x00, 0x07, 0x00, 0x00,
;
;/* Code: 0x67, ASCII Character: 'g' */
;0xC0, 0x20, 0x20, 0x40, 0xE0, 0x00, 0x13, 0x14,
;0x14, 0x12, 0x0F, 0x00,
;
;/* Code: 0x68, ASCII Character: 'h' */
;0xF8, 0x40, 0x20, 0x20, 0xC0, 0x00, 0x07, 0x00,
;0x00, 0x00, 0x07, 0x00,
;
;/* Code: 0x69, ASCII Character: 'i' */
;0xE8, 0x00, 0x07, 0x00,
;
;/* Code: 0x6A, ASCII Character: 'j' */
;0x00, 0xE8, 0x10, 0x0F,
;
;/* Code: 0x6B, ASCII Character: 'k' */
;0xF8, 0x80, 0x40, 0x20, 0x00, 0x07, 0x00, 0x03,
;0x04, 0x00,
;
;/* Code: 0x6C, ASCII Character: 'l' */
;0xF8, 0x00, 0x07, 0x00,
;
;/* Code: 0x6D, ASCII Character: 'm' */
;0xE0, 0x40, 0x20, 0xE0, 0x20, 0x20, 0xC0, 0x00,
;0x07, 0x00, 0x00, 0x07, 0x00, 0x00, 0x07, 0x00,
;
;/* Code: 0x6E, ASCII Character: 'n' */
;0xE0, 0x20, 0x20, 0x20, 0xC0, 0x00, 0x07, 0x00,
;0x00, 0x00, 0x07, 0x00,
;
;/* Code: 0x6F, ASCII Character: 'o' */
;0xC0, 0x20, 0x20, 0x20, 0xC0, 0x00, 0x03, 0x04,
;0x04, 0x04, 0x03, 0x00,
;
;/* Code: 0x70, ASCII Character: 'p' */
;0xE0, 0x40, 0x20, 0x20, 0xC0, 0x00, 0x1F, 0x02,
;0x04, 0x04, 0x03, 0x00,
;
;/* Code: 0x71, ASCII Character: 'q' */
;0xC0, 0x20, 0x20, 0x40, 0xE0, 0x00, 0x03, 0x04,
;0x04, 0x02, 0x1F, 0x00,
;
;/* Code: 0x72, ASCII Character: 'r' */
;0xE0, 0x40, 0x20, 0x00, 0x07, 0x00, 0x00, 0x00,
;
;/* Code: 0x73, ASCII Character: 's' */
;0x40, 0xA0, 0xA0, 0x20, 0x40, 0x00, 0x02, 0x04,
;0x04, 0x05, 0x02, 0x00,
;
;/* Code: 0x74, ASCII Character: 't' */
;0x20, 0xF8, 0x20, 0x00, 0x07, 0x04,
;
;/* Code: 0x75, ASCII Character: 'u' */
;0xE0, 0x00, 0x00, 0x00, 0xE0, 0x00, 0x03, 0x04,
;0x04, 0x02, 0x07, 0x00,
;
;/* Code: 0x76, ASCII Character: 'v' */
;0x60, 0x80, 0x00, 0x80, 0x60, 0x00, 0x00, 0x01,
;0x06, 0x01, 0x00, 0x00,
;
;/* Code: 0x77, ASCII Character: 'w' */
;0x60, 0x80, 0x00, 0xC0, 0x20, 0xC0, 0x00, 0x80,
;0x60, 0x00, 0x00, 0x01, 0x06, 0x01, 0x00, 0x01,
;0x06, 0x01, 0x00, 0x00,
;
;/* Code: 0x78, ASCII Character: 'x' */
;0x20, 0x40, 0x80, 0x40, 0x20, 0x00, 0x04, 0x02,
;0x01, 0x02, 0x04, 0x00,
;
;/* Code: 0x79, ASCII Character: 'y' */
;0x60, 0x80, 0x00, 0x80, 0x60, 0x00, 0x00, 0x11,
;0x0E, 0x01, 0x00, 0x00,
;
;/* Code: 0x7A, ASCII Character: 'z' */
;0x20, 0x20, 0xA0, 0x60, 0x20, 0x00, 0x04, 0x06,
;0x05, 0x04, 0x04, 0x00,
;
;/* Code: 0x7B, ASCII Character: '{' */
;0x80, 0x70, 0x08, 0x00, 0x00, 0x0F, 0x10, 0x00,
;
;/* Code: 0x7C, ASCII Character: '|' */
;0xF8, 0x00, 0x1F, 0x00,
;
;/* Code: 0x7D, ASCII Character: '}' */
;0x00, 0x08, 0x70, 0x80, 0x00, 0x10, 0x0F, 0x00,
;
;/* Code: 0x7E, ASCII Character: '~' */
;0xC0, 0x40, 0xC0, 0x80, 0x40, 0x00, 0x00, 0x00,
;0x00, 0x00, 0x00, 0x00,
;
;/* Code: 0x7F, ASCII Character: '' */
;0x00, 0xF8, 0x08, 0x08, 0x08, 0x08, 0xF8, 0x00,
;0x00, 0x07, 0x04, 0x04, 0x04, 0x04, 0x07, 0x00,
;
;#endif
;};
;
;//-----------------------------------------------------------------------------
;// Copyright:      RAD Electronic Co. LTD,
;// Author:         jaruwit supa, Base on FontEditor written by H. Reddmann
;//								 Modified by Sh. Nourbakhsh Rad for Persian and Arabic font
;//								 and fixed some errors
;// Remarks:
;// known Problems: none
;// Version:        3.3.0
;// Description:    Font Library
;//-----------------------------------------------------------------------------
;
;#include "Font.h"
	#ifndef __SLEEP_DEFINED__
	#define __SLEEP_DEFINED__
	.EQU __se_bit=0x80
	.EQU __sm_mask=0x70
	.EQU __sm_powerdown=0x20
	.EQU __sm_powersave=0x30
	.EQU __sm_standby=0x60
	.EQU __sm_ext_standby=0x70
	.EQU __sm_adc_noise_red=0x10
	.SET power_ctrl_reg=mcucr
	#endif
;#if (PersianSupport ==1)
;	#include "PE_Map.h"
;#endif
;
;
;const unsigned char 	   *FontPointer; 									// Font	Pointer
;
;
;unsigned char 						rot 						= 0;					// Rot 0=0°, 1=90°
;unsigned char 						Reverse					= 0;					// Reverse text direction on the display
;unsigned char							Horizontal			=	1;					// 1: Portrait - 240x320 ,   2: Landscape - 320x240

	.DSEG
;
;unsigned short 						FgColor 				= BLACK;			// Text fg color, 5-6-5 RGB
;unsigned short 						BkColor 				= WHITE;			// Text bk color, 5-6-5 RGB
;unsigned char 						FontFixed				= 0;					// Text type 0=Proportional , 1=Fixed
;unsigned char							NonTransparence = 0;					// Transparent 0=No, 1=Yes
;
;unsigned short 						fontSize;											// size of current font
;unsigned char 						firstchar;										// first character noumber of current font
;unsigned char 						lastchar;											// last character noumber of current font
;unsigned char 						charwidth;										// current character width register
;
;unsigned char							FontWidth;										// max width of font
;unsigned char							FontHeight;										// max height of font
;unsigned char 						FontXScale 			= 1;					// X size of font
;unsigned char 						FontYScale 			= 1;					// Y size of font
;
;unsigned char 						FontSpaceX 			= 1;					// space between char
;unsigned char 						FontSpaceY			= 0;					// space between lines
;
;unsigned int 							cursorX 				= 0;					// x position
;unsigned int 							cursorY 				= 0;					// y position
;
;#if (PersianSupport ==1)
;	Lt_Mode									peLETTER				= E_LETTER;		// English or Persian letter
;#endif
;
;unsigned char 						prevLet 				= 0xFF;				// previous persian character register
;unsigned char	 						nextLet 				= 0xFF; 			// next persian character register
;
;
;//*************************************************
;//******************* Functions *******************
;//*************************************************
;
;
;void PutCharEN(unsigned char c)
; 0002 003C {

	.CSEG
_PutCharEN:
; .FSTART _PutCharEN
; 0002 003D 	unsigned char 			byte 					= 0;
; 0002 003E 	unsigned char 			bitoffset 		= 0;
; 0002 003F 	unsigned char 			maske 				= 0;
; 0002 0040 	unsigned short 			bcounter 			= 0;
; 0002 0041 	unsigned short 			bitsbischar 	= 0;
; 0002 0042 	unsigned short 			bytesbischar	= 0;
; 0002 0043 	unsigned short 			xPos, yPos;
; 0002 0044 
; 0002 0045 	unsigned char 			Ccounter 			= 0;
; 0002 0046 	unsigned char 			xc						= 0;
; 0002 0047 	unsigned char 			yc						= 0;
; 0002 0048 	unsigned char 			sx 						= 0;
; 0002 0049 	unsigned char 			sy 						= 0;
; 0002 004A 
; 0002 004B    // get current character width
; 0002 004C 	charwidth	= pgm_read_byte(&FontPointer[(unsigned int)(c)+FONT_HEADER_SIZE-firstchar]);
	ST   -Y,R26
	SBIW R28,12
	LDI  R24,12
	LDI  R26,LOW(0)
	LDI  R27,HIGH(0)
	LDI  R30,LOW(_0x4000A*2)
	LDI  R31,HIGH(_0x4000A*2)
	CALL __INITLOCB
	CALL SUBOPT_0xB
;	c -> Y+18
;	byte -> R17
;	bitoffset -> R16
;	maske -> R19
;	bcounter -> R20,R21
;	bitsbischar -> Y+16
;	bytesbischar -> Y+14
;	xPos -> Y+12
;	yPos -> Y+10
;	Ccounter -> R18
;	xc -> Y+9
;	yc -> Y+8
;	sx -> Y+7
;	sy -> Y+6
; 0002 004D 
; 0002 004E 	// line feed, goto next line
; 0002 004F 	if(c == '\n')
	BRNE _0x4000B
; 0002 0050 	{
; 0002 0051 		cursorX = 0;
	CALL SUBOPT_0xC
; 0002 0052 		cursorY += (unsigned int)(FontHeight +FontSpaceY)*FontYScale;
	CALL SUBOPT_0xD
; 0002 0053 
; 0002 0054 		return;
	RJMP _0x2160017
; 0002 0055 	}
; 0002 0056 
; 0002 0057 	// character out of range.
; 0002 0058   if( (c < firstchar) || (c > lastchar) || (fontSize == 0))
_0x4000B:
	LDS  R30,_firstchar
	LDD  R26,Y+18
	CP   R26,R30
	BRLO _0x4000D
	LDS  R30,_lastchar
	CP   R30,R26
	BRLO _0x4000D
	LDS  R26,_fontSize
	LDS  R27,_fontSize+1
	SBIW R26,0
	BRNE _0x4000C
_0x4000D:
; 0002 0059   	return;
	RJMP _0x2160017
; 0002 005A 
; 0002 005B 	// character is not in list.
; 0002 005C 	if (charwidth == 0)
_0x4000C:
	LDS  R30,_charwidth
	CPI  R30,0
	BRNE _0x4000F
; 0002 005D 		return;
	RJMP _0x2160017
; 0002 005E 
; 0002 005F 	// sara thai font. line remain at last position
; 0002 0060 	if(FontFixed)
_0x4000F:
	LDS  R30,_FontFixed
	CPI  R30,0
	BREQ _0x40010
; 0002 0061 		charwidth = FontWidth;
	LDS  R30,_FontWidth
	STS  _charwidth,R30
; 0002 0062 	else
	RJMP _0x40011
_0x40010:
; 0002 0063 	{
; 0002 0064 		//english special fonts!
; 0002 0065 		if (((c >= 0xd4) && (c <= 0xda)) ||
; 0002 0066 	  	  ((c >= 0xe7) && (c <= 0xec)) ||
; 0002 0067 				 (c == 0xd1))
	LDD  R26,Y+18
	CPI  R26,LOW(0xD4)
	BRLO _0x40013
	CPI  R26,LOW(0xDB)
	BRLO _0x40015
_0x40013:
	LDD  R26,Y+18
	CPI  R26,LOW(0xE7)
	BRLO _0x40016
	CPI  R26,LOW(0xED)
	BRLO _0x40015
_0x40016:
	LDD  R26,Y+18
	CPI  R26,LOW(0xD1)
	BRNE _0x40012
_0x40015:
; 0002 0068 		{
; 0002 0069 			cursorX = cursorX - (unsigned int)charwidth * FontXScale;
	CALL SUBOPT_0xE
	CALL SUBOPT_0xF
	CALL SUBOPT_0x10
; 0002 006A 		}
; 0002 006B 	}
_0x40012:
_0x40011:
; 0002 006C 
; 0002 006D 	// fixed width for digit
; 0002 006E  	if((c >= '0') && (c <= '9'))		// english : 0 to 9
	LDD  R26,Y+18
	CPI  R26,LOW(0x30)
	BRLO _0x4001A
	CPI  R26,LOW(0x3A)
	BRLO _0x4001B
_0x4001A:
	RJMP _0x40019
_0x4001B:
; 0002 006F 		charwidth = pgm_read_byte(&FontPointer[(unsigned int)(FONT_HEADER_SIZE)+'0'-firstchar]);		//width reference = ZERO
	LDS  R30,_firstchar
	LDI  R31,0
	LDI  R26,LOW(55)
	LDI  R27,HIGH(55)
	CALL SUBOPT_0x11
	CALL SUBOPT_0x12
	LPM  R0,Z
	STS  _charwidth,R0
; 0002 0070 
; 0002 0071 	// line adjust
; 0002 0072 	if(((int)cursorX + charwidth * FontXScale) > GetMaxX())
_0x40019:
	CALL SUBOPT_0xE
	CALL SUBOPT_0x13
	ADD  R26,R30
	ADC  R27,R31
	CPI  R26,LOW(0x80)
	LDI  R30,HIGH(0x80)
	CPC  R27,R30
	BRLT _0x4001C
; 0002 0073 	{
; 0002 0074 		cursorY = cursorY + (unsigned int)FontHeight * FontYScale;
	CALL SUBOPT_0x14
; 0002 0075 		cursorX = 0;
	CALL SUBOPT_0xC
; 0002 0076 	}
; 0002 0077 
; 0002 0078 	// calculate current character position on the table
; 0002 0079 	for(Ccounter = 0; Ccounter < c-firstchar; Ccounter++)
_0x4001C:
	LDI  R18,LOW(0)
_0x4001E:
	CALL SUBOPT_0x15
	MOV  R26,R18
	LDI  R27,0
	CP   R26,R30
	CPC  R27,R31
	BRGE _0x4001F
; 0002 007A 		bitsbischar += (pgm_read_byte(&FontPointer[(unsigned int)(Ccounter)+FONT_HEADER_SIZE]));	//c0_width +...+ cn_width
	MOV  R30,R18
	LDI  R31,0
	ADIW R30,7
	CALL SUBOPT_0x12
	CALL SUBOPT_0x16
	SUBI R18,-1
	RJMP _0x4001E
_0x4001F:
; 0002 007D bitsbischar 		*= FontHeight;
	CALL SUBOPT_0x17
; 0002 007E 	bitsbischar 		+= (((unsigned short)(lastchar)-firstchar)+FONT_HEADER_SIZE)*8;		//plus font headers
	CALL SUBOPT_0x18
; 0002 007F 	bytesbischar 		 = bitsbischar/8;																//
; 0002 0080 	bitoffset 			 = bitsbischar % 8;															//
; 0002 0081 	maske						 = bitoffset % 8;																//
; 0002 0082 
; 0002 0083 	// draw character
; 0002 0084 	for(xc = 0; xc < charwidth; xc++)
_0x40021:
	LDS  R30,_charwidth
	LDD  R26,Y+9
	CP   R26,R30
	BRLO PC+2
	RJMP _0x40022
; 0002 0085 	{
; 0002 0086 		for(yc = 0; yc < FontHeight; yc++)
	LDI  R30,LOW(0)
	STD  Y+8,R30
_0x40024:
	LDS  R30,_FontHeight
	LDD  R26,Y+8
	CP   R26,R30
	BRLO PC+2
	RJMP _0x40025
; 0002 0087 		{
; 0002 0088 			if(maske > 7)
	CPI  R19,8
	BRLO _0x40026
; 0002 0089 			{
; 0002 008A 				maske = 0;
	LDI  R19,LOW(0)
; 0002 008B 				bcounter += 1;
	__ADDWRN 20,21,1
; 0002 008C 			}
; 0002 008D 			byte = pgm_read_byte(&FontPointer[bytesbischar + bcounter + 1]);
_0x40026:
	CALL SUBOPT_0x19
	CALL SUBOPT_0x1A
; 0002 008E 
; 0002 008F 			xPos = (unsigned short)xc*FontXScale + cursorX;
	CALL SUBOPT_0x1B
; 0002 0090 
; 0002 0091 			if(Horizontal)	//128x64
	BREQ _0x40027
; 0002 0092 			{
; 0002 0093 				if(Reverse)
	LDS  R30,_Reverse
	CPI  R30,0
	BREQ _0x40028
; 0002 0094 					yPos = (((unsigned short)FontHeight-yc)*FontYScale + cursorY);
	CALL SUBOPT_0x1C
	RJMP _0x40100
; 0002 0095 				else
_0x40028:
; 0002 0096 					yPos = (((unsigned short)yc)*FontYScale + cursorY);
	LDD  R26,Y+8
	CLR  R27
_0x40100:
	LDS  R30,_FontYScale
	CALL SUBOPT_0x1D
; 0002 0097 			}
; 0002 0098 			else						//64x128
	RJMP _0x4002A
_0x40027:
; 0002 0099 			{
; 0002 009A 				if(Reverse)
	LDS  R30,_Reverse
	CPI  R30,0
	BREQ _0x4002B
; 0002 009B 					yPos = (((unsigned short)FontHeight-yc)*FontYScale + cursorY);
	CALL SUBOPT_0x1C
	RJMP _0x40101
; 0002 009C 				else
_0x4002B:
; 0002 009D 					yPos = (((unsigned short)yc)*FontYScale + cursorY);
	LDD  R26,Y+8
	CLR  R27
_0x40101:
	LDS  R30,_FontYScale
	CALL SUBOPT_0x1D
; 0002 009E 
; 0002 009F 			}	//Horizontal
_0x4002A:
; 0002 00A0 
; 0002 00A1 			for(sx = 0; sx < FontXScale; sx++)
	LDI  R30,LOW(0)
	STD  Y+7,R30
_0x4002E:
	LDS  R30,_FontXScale
	LDD  R26,Y+7
	CP   R26,R30
	BRSH _0x4002F
; 0002 00A2 			{
; 0002 00A3 				for(sy = 0; sy < FontYScale; sy++)
	LDI  R30,LOW(0)
	STD  Y+6,R30
_0x40031:
	LDS  R30,_FontYScale
	LDD  R26,Y+6
	CP   R26,R30
	BRSH _0x40032
; 0002 00A4 				{
; 0002 00A5 					if(bit_is_set(byte, maske))
	CALL SUBOPT_0x1E
	BREQ _0x40033
; 0002 00A6 					{
; 0002 00A7 						if(rot)		PutPixel(yPos+sy, xPos+sx, FgColor);
	LDS  R30,_rot
	CPI  R30,0
	BREQ _0x40034
	CALL SUBOPT_0x1F
	RJMP _0x40102
; 0002 00A8 						else			PutPixel(xPos+sx, yPos+sy, FgColor);
_0x40034:
	CALL SUBOPT_0x20
_0x40102:
	ADD  R30,R26
	ST   -Y,R30
	LDS  R26,_FgColor
	CALL _glcd_putpixel
; 0002 00A9 					}
; 0002 00AA 					else
	RJMP _0x40036
_0x40033:
; 0002 00AB 					{
; 0002 00AC 						if(NonTransparence)
	LDS  R30,_NonTransparence
	CPI  R30,0
	BREQ _0x40037
; 0002 00AD 						{
; 0002 00AE 							if(rot)		PutPixel(yPos+sy, xPos+sx, BkColor);
	LDS  R30,_rot
	CPI  R30,0
	BREQ _0x40038
	CALL SUBOPT_0x1F
	RJMP _0x40103
; 0002 00AF 							else			PutPixel(xPos+sx, yPos+sy, BkColor);
_0x40038:
	CALL SUBOPT_0x20
_0x40103:
	ADD  R30,R26
	ST   -Y,R30
	LDS  R26,_BkColor
	CALL _glcd_putpixel
; 0002 00B0 						}
; 0002 00B1 					}
_0x40037:
_0x40036:
; 0002 00B2 				};//for sy
	LDD  R30,Y+6
	SUBI R30,-LOW(1)
	STD  Y+6,R30
	RJMP _0x40031
_0x40032:
; 0002 00B3 			};//for sx
	LDD  R30,Y+7
	SUBI R30,-LOW(1)
	STD  Y+7,R30
	RJMP _0x4002E
_0x4002F:
; 0002 00B4 
; 0002 00B5 			maske++;
	SUBI R19,-1
; 0002 00B6 		};//for yc
	LDD  R30,Y+8
	SUBI R30,-LOW(1)
	STD  Y+8,R30
	RJMP _0x40024
_0x40025:
; 0002 00B7 	};//for xc
	LDD  R30,Y+9
	SUBI R30,-LOW(1)
	STD  Y+9,R30
	RJMP _0x40021
_0x40022:
; 0002 00B8 
; 0002 00B9 	// adjust cursor to next position - english
; 0002 00BA 	cursorX	+= (unsigned int)charwidth * FontXScale + FontSpaceX;
	CALL SUBOPT_0xE
	CALL SUBOPT_0x21
	ADD  R30,R26
	ADC  R31,R27
	CALL SUBOPT_0x22
; 0002 00BB }	//*PutCharEN
	RJMP _0x2160017
; .FEND
;
;void PutCharPE(unsigned char c)
; 0002 00BE {
_PutCharPE:
; .FSTART _PutCharPE
; 0002 00BF 	#if (PersianSupport ==1)
; 0002 00C0 		unsigned char 			byte 					= 0;
; 0002 00C1 		unsigned char 			bitoffset 		= 0;
; 0002 00C2 		unsigned char 			maske 				= 0;
; 0002 00C3 		unsigned short 			bcounter 			= 0;
; 0002 00C4 		unsigned short 			bitsbischar 	= 0;
; 0002 00C5 		unsigned short 			bytesbischar	= 0;
; 0002 00C6 		unsigned short 			xPos, yPos;
; 0002 00C7 
; 0002 00C8 		unsigned char 			Ccounter 			= 0;
; 0002 00C9 		unsigned char 			xc 						= 0;
; 0002 00CA 		unsigned char 			yc 						= 0;
; 0002 00CB 		unsigned char 			sx 						= 0;
; 0002 00CC 		unsigned char 			sy 						= 0;
; 0002 00CD 
; 0002 00CE 		// get current character width
; 0002 00CF 		charwidth	= pgm_read_byte(&FontPointer[(unsigned int)(c)+FONT_HEADER_SIZE-firstchar]);
	ST   -Y,R26
	SBIW R28,12
	LDI  R24,12
	LDI  R26,LOW(0)
	LDI  R27,HIGH(0)
	LDI  R30,LOW(_0x4003A*2)
	LDI  R31,HIGH(_0x4003A*2)
	CALL __INITLOCB
	CALL SUBOPT_0xB
;	c -> Y+18
;	byte -> R17
;	bitoffset -> R16
;	maske -> R19
;	bcounter -> R20,R21
;	bitsbischar -> Y+16
;	bytesbischar -> Y+14
;	xPos -> Y+12
;	yPos -> Y+10
;	Ccounter -> R18
;	xc -> Y+9
;	yc -> Y+8
;	sx -> Y+7
;	sy -> Y+6
; 0002 00D0 
; 0002 00D1 		// line feed, goto next line
; 0002 00D2 		if(c == '\n')
	BRNE _0x4003B
; 0002 00D3 		{
; 0002 00D4 			cursorX = GetMaxX();
	LDI  R30,LOW(127)
	LDI  R31,HIGH(127)
	CALL SUBOPT_0x22
; 0002 00D5 			cursorY += (unsigned int)(FontHeight +FontSpaceY)* FontYScale;
	CALL SUBOPT_0xD
; 0002 00D6 
; 0002 00D7 			return;
	RJMP _0x2160017
; 0002 00D8 		}
; 0002 00D9 
; 0002 00DA 		// character out of range.
; 0002 00DB 	  if( (c < firstchar) || (c > lastchar) || (fontSize == 0))
_0x4003B:
	LDS  R30,_firstchar
	LDD  R26,Y+18
	CP   R26,R30
	BRLO _0x4003D
	LDS  R30,_lastchar
	CP   R30,R26
	BRLO _0x4003D
	LDS  R26,_fontSize
	LDS  R27,_fontSize+1
	SBIW R26,0
	BRNE _0x4003C
_0x4003D:
; 0002 00DC 	  	return;
	RJMP _0x2160017
; 0002 00DD 
; 0002 00DE 		// character is not in list.
; 0002 00DF 		if (charwidth == 0)
_0x4003C:
	LDS  R30,_charwidth
	CPI  R30,0
	BRNE _0x4003F
; 0002 00E0 			return;
	RJMP _0x2160017
; 0002 00E1 
; 0002 00E2 		// sara thai font. line remain at last position
; 0002 00E3 		if(FontFixed)
_0x4003F:
	LDS  R30,_FontFixed
	CPI  R30,0
	BREQ _0x40040
; 0002 00E4 			charwidth = FontWidth;
	LDS  R30,_FontWidth
	STS  _charwidth,R30
; 0002 00E5 
; 0002 00E6 		// line adjust
; 0002 00E7 		if(((int)cursorX - charwidth * FontXScale) < 0)
_0x40040:
	CALL SUBOPT_0xE
	CALL SUBOPT_0x13
	SUB  R26,R30
	SBC  R27,R31
	TST  R27
	BRPL _0x40041
; 0002 00E8 	  {
; 0002 00E9 			cursorY = cursorY   + (unsigned int)FontHeight * FontYScale;
	CALL SUBOPT_0x14
; 0002 00EA 			cursorX = GetMaxX() - (unsigned int)charwidth * FontXScale;
	CALL SUBOPT_0xE
	CALL SUBOPT_0x23
; 0002 00EB 		}
; 0002 00EC 
; 0002 00ED 		// adjust cursor to current position - persian
; 0002 00EE 		cursorX	-= (unsigned int)charwidth * FontXScale + FontSpaceX;
_0x40041:
	CALL SUBOPT_0xE
	CALL SUBOPT_0x21
	CALL SUBOPT_0x10
; 0002 00EF 
; 0002 00F0 		// calculate current character position on the table
; 0002 00F1 		for(Ccounter = 0; Ccounter < c-firstchar; Ccounter++)
	LDI  R18,LOW(0)
_0x40043:
	CALL SUBOPT_0x15
	MOV  R26,R18
	LDI  R27,0
	CP   R26,R30
	CPC  R27,R31
	BRGE _0x40044
; 0002 00F2 			bitsbischar += (pgm_read_byte(&FontPointer[(unsigned int)(Ccounter)+FONT_HEADER_SIZE]));	//c0_width +...+ cn_width
	MOV  R30,R18
	LDI  R31,0
	ADIW R30,7
	CALL SUBOPT_0x12
	CALL SUBOPT_0x16
	SUBI R18,-1
	RJMP _0x40043
_0x40044:
; 0002 00F5 bitsbischar 		*= FontHeight;
	CALL SUBOPT_0x17
; 0002 00F6 		bitsbischar 		+= (((unsigned short)(lastchar)-firstchar)+FONT_HEADER_SIZE)*8;		//plus font headers
	CALL SUBOPT_0x18
; 0002 00F7 		bytesbischar 		 = bitsbischar/8;									//
; 0002 00F8 		bitoffset 			 = bitsbischar % 8;								//
; 0002 00F9 		maske						 = bitoffset % 8;									//
; 0002 00FA 
; 0002 00FB 		// draw character
; 0002 00FC 		for(xc = 0; xc < charwidth; xc++)
_0x40046:
	LDS  R30,_charwidth
	LDD  R26,Y+9
	CP   R26,R30
	BRLO PC+2
	RJMP _0x40047
; 0002 00FD 		{
; 0002 00FE 			for(yc = 0; yc < FontHeight; yc++)
	LDI  R30,LOW(0)
	STD  Y+8,R30
_0x40049:
	LDS  R30,_FontHeight
	LDD  R26,Y+8
	CP   R26,R30
	BRLO PC+2
	RJMP _0x4004A
; 0002 00FF 			{
; 0002 0100 				if(maske > 7)
	CPI  R19,8
	BRLO _0x4004B
; 0002 0101 				{
; 0002 0102 					maske = 0;
	LDI  R19,LOW(0)
; 0002 0103 					bcounter+=1;
	__ADDWRN 20,21,1
; 0002 0104 				}
; 0002 0105 				byte = pgm_read_byte(&FontPointer[bytesbischar + bcounter + 1]);
_0x4004B:
	CALL SUBOPT_0x19
	CALL SUBOPT_0x1A
; 0002 0106 
; 0002 0107 				xPos = (unsigned short)xc*FontXScale + cursorX;
	CALL SUBOPT_0x1B
; 0002 0108 
; 0002 0109 				if(Horizontal)	//128x64
	BREQ _0x4004C
; 0002 010A 				{
; 0002 010B 					if(Reverse)
	LDS  R30,_Reverse
	CPI  R30,0
	BREQ _0x4004D
; 0002 010C 						yPos = (((unsigned short)FontHeight-yc)*FontYScale + cursorY);
	CALL SUBOPT_0x1C
	RJMP _0x40104
; 0002 010D 					else
_0x4004D:
; 0002 010E 						yPos = (((unsigned short)yc)*FontYScale + cursorY);
	LDD  R26,Y+8
	CLR  R27
_0x40104:
	LDS  R30,_FontYScale
	CALL SUBOPT_0x1D
; 0002 010F 				}
; 0002 0110 				else						//64x128
	RJMP _0x4004F
_0x4004C:
; 0002 0111 				{
; 0002 0112 					if(Reverse)
	LDS  R30,_Reverse
	CPI  R30,0
	BREQ _0x40050
; 0002 0113 						yPos = (((unsigned short)FontHeight-yc)*FontYScale + cursorY);
	CALL SUBOPT_0x1C
	RJMP _0x40105
; 0002 0114 					else
_0x40050:
; 0002 0115 						yPos = (((unsigned short)yc)*FontYScale + cursorY);
	LDD  R26,Y+8
	CLR  R27
_0x40105:
	LDS  R30,_FontYScale
	CALL SUBOPT_0x1D
; 0002 0116 
; 0002 0117 				}	//Horizontal
_0x4004F:
; 0002 0118 
; 0002 0119 				for(sx = 0; sx < FontXScale; sx++)
	LDI  R30,LOW(0)
	STD  Y+7,R30
_0x40053:
	LDS  R30,_FontXScale
	LDD  R26,Y+7
	CP   R26,R30
	BRSH _0x40054
; 0002 011A 				{
; 0002 011B 					for(sy = 0; sy < FontYScale; sy++)
	LDI  R30,LOW(0)
	STD  Y+6,R30
_0x40056:
	LDS  R30,_FontYScale
	LDD  R26,Y+6
	CP   R26,R30
	BRSH _0x40057
; 0002 011C 					{
; 0002 011D 						if(bit_is_set(byte,maske))
	CALL SUBOPT_0x1E
	BREQ _0x40058
; 0002 011E 						{
; 0002 011F 							if(rot)		PutPixel(yPos+sy, xPos+sx, FgColor);
	LDS  R30,_rot
	CPI  R30,0
	BREQ _0x40059
	CALL SUBOPT_0x1F
	RJMP _0x40106
; 0002 0120 							else			PutPixel(xPos+sx, yPos+sy, FgColor);
_0x40059:
	CALL SUBOPT_0x20
_0x40106:
	ADD  R30,R26
	ST   -Y,R30
	LDS  R26,_FgColor
	CALL _glcd_putpixel
; 0002 0121 						}
; 0002 0122 						else
	RJMP _0x4005B
_0x40058:
; 0002 0123 						{
; 0002 0124 							if(NonTransparence)
	LDS  R30,_NonTransparence
	CPI  R30,0
	BREQ _0x4005C
; 0002 0125 							{
; 0002 0126 								if(rot)		PutPixel(yPos+sy, xPos+sx, BkColor);
	LDS  R30,_rot
	CPI  R30,0
	BREQ _0x4005D
	CALL SUBOPT_0x1F
	RJMP _0x40107
; 0002 0127 								else			PutPixel(xPos+sx, yPos+sy, BkColor);
_0x4005D:
	CALL SUBOPT_0x20
_0x40107:
	ADD  R30,R26
	ST   -Y,R30
	LDS  R26,_BkColor
	CALL _glcd_putpixel
; 0002 0128 							}
; 0002 0129 						}
_0x4005C:
_0x4005B:
; 0002 012A 					}//for sy
	LDD  R30,Y+6
	SUBI R30,-LOW(1)
	STD  Y+6,R30
	RJMP _0x40056
_0x40057:
; 0002 012B 				}//for sx
	LDD  R30,Y+7
	SUBI R30,-LOW(1)
	STD  Y+7,R30
	RJMP _0x40053
_0x40054:
; 0002 012C 
; 0002 012D 				maske++;
	SUBI R19,-1
; 0002 012E 			}//for yc
	LDD  R30,Y+8
	SUBI R30,-LOW(1)
	STD  Y+8,R30
	RJMP _0x40049
_0x4004A:
; 0002 012F 		}//for xc
	LDD  R30,Y+9
	SUBI R30,-LOW(1)
	STD  Y+9,R30
	RJMP _0x40046
_0x40047:
; 0002 0130 	#endif
; 0002 0131 }	//*PutCharPE
_0x2160017:
	CALL __LOADLOCR6
	ADIW R28,19
	RET
; .FEND
;
;unsigned int CalcTextWidthEN(char *str)
; 0002 0134 {
; 0002 0135 	unsigned int 		strSize = 0;
; 0002 0136 	unsigned char 	c;
; 0002 0137 	unsigned int 		i = 0;
; 0002 0138 
; 0002 0139 	while(str[i])
;	*str -> Y+6
;	strSize -> R16,R17
;	c -> R19
;	i -> R20,R21
; 0002 013A 	{
; 0002 013B 		c = str[i++];
; 0002 013C 
; 0002 013D 		if(c == '\n')			continue;
; 0002 013E 
; 0002 013F 		if(FontFixed)
; 0002 0140 			strSize += (unsigned int)(FontWidth) * FontXScale;
; 0002 0141 		else
; 0002 0142 		{
; 0002 0143 		  if((c < firstchar) || (c > lastchar))
; 0002 0144 				charwidth = FontWidth;
; 0002 0145 			else
; 0002 0146 			{
; 0002 0147 				charwidth = pgm_read_byte(&FontPointer[(unsigned int)(c)+FONT_HEADER_SIZE-firstchar]);
; 0002 0148 
; 0002 0149 				//english spesial fonts!
; 0002 014A 				if (((c >= 0xd4) && (c <= 0xda)) ||
; 0002 014B 		    		((c >= 0xe7) && (c <= 0xec)) ||
; 0002 014C 				  	 (c == 0xd1))
; 0002 014D 
; 0002 014E 					charwidth = 0;
; 0002 014F 			}
; 0002 0150 
; 0002 0151 			strSize += (unsigned int)(charwidth) * FontXScale;
; 0002 0152 		}
; 0002 0153 
; 0002 0154 		strSize += FontSpaceX;
; 0002 0155 	}//while
; 0002 0156 
; 0002 0157 	return(strSize);
; 0002 0158 }	//*CalcTextWidthEN
;
;unsigned int CalcTextWidthPE(char *str)
; 0002 015B {
; 0002 015C 	#if (PersianSupport ==1)
; 0002 015D 		unsigned char 	curnLet, dumyLet;
; 0002 015E 		unsigned char 	Pstat, stat, Nstat;
; 0002 015F 
; 0002 0160 		unsigned char		backFontSpace = FontSpaceX;
; 0002 0161 		unsigned int 		strSize = 0;
; 0002 0162 		unsigned int		i = 0;
; 0002 0163 
; 0002 0164 	 	while(str[i])
;	*str -> Y+10
;	curnLet -> R17
;	dumyLet -> R16
;	Pstat -> R19
;	stat -> R18
;	Nstat -> R21
;	backFontSpace -> R20
;	strSize -> Y+8
;	i -> Y+6
; 0002 0165 		{
; 0002 0166 			curnLet = str[i++];
; 0002 0167 			if(curnLet == '\n')			continue;
; 0002 0168 
; 0002 0169 			if(FontFixed)
; 0002 016A 				strSize += (unsigned int)(FontWidth) * FontXScale;
; 0002 016B 			else
; 0002 016C 			{
; 0002 016D 			 	if((curnLet < firstchar) || (curnLet > lastchar))
; 0002 016E 					charwidth = FontWidth;
; 0002 016F 				else
; 0002 0170 				{
; 0002 0171 			 		switch(curnLet)
; 0002 0172 			 		{
; 0002 0173 			 			case 0x81:				//peh
; 0002 0174 			    		curnLet = 0xEA;
; 0002 0175 			 				break;
; 0002 0176 			 			case 0x8D:				//cheh
; 0002 0177 			    		curnLet = 0xEB;
; 0002 0178 			 				break;
; 0002 0179 			 			case 0x8E:				//zheh
; 0002 017A 			    		curnLet = 0xEE;
; 0002 017B 			 				break;
; 0002 017C 			 			case 0x90:				//geh
; 0002 017D 			    		curnLet = 0xEF;
; 0002 017E 			 				break;
; 0002 017F                         case 0x98:				//Ke
; 0002 0180 		    		    curnLet = 0xDF;
; 0002 0181 		 				break;
; 0002 0182 			 			case 0xE1:				//laa
; 0002 0183 			    		nextLet = str[i++];
; 0002 0184 
; 0002 0185 			    		if(nextLet == 0xC7)
; 0002 0186 			    			curnLet = 0xFB;
; 0002 0187 			    		else
; 0002 0188 			    		{
; 0002 0189 			    			i--;
; 0002 018A 			    			curnLet = 0xE1;
; 0002 018B 			    		}
; 0002 018C 			 				break;
; 0002 018D 			 			case 0x30:				//persian digits 0...9
; 0002 018E 						case 0x31:
; 0002 018F 						case 0x32:
; 0002 0190 						case 0x33:
; 0002 0191 						case 0x34:
; 0002 0192 						case 0x35:
; 0002 0193 						case 0x36:
; 0002 0194 						case 0x37:
; 0002 0195 						case 0x38:
; 0002 0196 						case 0x39:
; 0002 0197 							curnLet -= 0x20;
; 0002 0198 			 				break;
; 0002 0199 			 			case 0x3F:				//persian question mark
; 0002 019A 			    		curnLet = 0xBF;
; 0002 019B 			 				break;
; 0002 019C 			 			case 0x3B:				//persian semicolon
; 0002 019D 			    		curnLet = 0x1F;
; 0002 019E 			 				break;
; 0002 019F 			 			case 0x2C:				//persian comma
; 0002 01A0 			    		curnLet = 0x1D;
; 0002 01A1 			 				break;
; 0002 01A2 			 			case 0x2E:				//persian point
; 0002 01A3 			    		curnLet = 0x1C;
; 0002 01A4 			 				break;
; 0002 01A5 					}//switch curnLet
; 0002 01A6 
; 0002 01A7 					//--------------------------------
; 0002 01A8 			  	nextLet = str[i++];
; 0002 01A9 			  	i--;
; 0002 01AA 
; 0002 01AB 			 		switch(nextLet)
; 0002 01AC 			 		{
; 0002 01AD 			 			case 0x81:				//peh
; 0002 01AE 			    		nextLet = 0xEA;
; 0002 01AF 			 				break;
; 0002 01B0 			 			case 0x8D:				//cheh
; 0002 01B1 			    		nextLet = 0xEB;
; 0002 01B2 			 				break;
; 0002 01B3 			 			case 0x8E:				//zheh
; 0002 01B4 			    		nextLet = 0xEE;
; 0002 01B5 			 				break;
; 0002 01B6 			 			case 0x90:				//geh
; 0002 01B7 			    		nextLet = 0xEF;
; 0002 01B8 			 				break;
; 0002 01B9                          case 0x98:				//Ke
; 0002 01BA 		    		    nextLet = 0xDF;
; 0002 01BB 		 				break;
; 0002 01BC 			 			case 0x30:				//0...9
; 0002 01BD 						case 0x31:
; 0002 01BE 						case 0x32:
; 0002 01BF 						case 0x33:
; 0002 01C0 						case 0x34:
; 0002 01C1 						case 0x35:
; 0002 01C2 						case 0x36:
; 0002 01C3 						case 0x37:
; 0002 01C4 						case 0x38:
; 0002 01C5 						case 0x39:
; 0002 01C6 							nextLet -= 0x20;
; 0002 01C7 			 				break;
; 0002 01C8 			 			case 0x3F:				//persian question mark
; 0002 01C9 			    		nextLet = 0xBF;
; 0002 01CA 			 				break;
; 0002 01CB 			 			case 0x3B:				//persian semicolon
; 0002 01CC 			    		nextLet = 0x1F;
; 0002 01CD 			 				break;
; 0002 01CE 			 			case 0x2C:				//persian comma
; 0002 01CF 			    		nextLet = 0x1D;
; 0002 01D0 			 				break;
; 0002 01D1 			 			case 0x2E:				//persian point
; 0002 01D2 			    		nextLet = 0x1C;
; 0002 01D3 			 				break;
; 0002 01D4 					}//switch nextLet
; 0002 01D5 
; 0002 01D6 					if(curnLet > 0xC0)
; 0002 01D7 					{
; 0002 01D8 						if(prevLet > 0xC0)
; 0002 01D9 							Pstat = (pgm_read_byte(&PEmap[prevLet-0xC1][5]));
; 0002 01DA 						else
; 0002 01DB 							Pstat = 0;
; 0002 01DC 
; 0002 01DD 						if(nextLet > 0xC0)
; 0002 01DE 							Nstat = (pgm_read_byte(&PEmap[nextLet-0xC1][4]));
; 0002 01DF 						else
; 0002 01E0 							Nstat = 0;
; 0002 01E1 
; 0002 01E2 						stat = (Pstat<<1) | Nstat;
; 0002 01E3 
; 0002 01E4 						if(stat>1)	FontSpaceX = 0;
; 0002 01E5 						else 				FontSpaceX = backFontSpace;
; 0002 01E6 						////////////////
; 0002 01E7 						dumyLet = pgm_read_byte(&PEmap[curnLet-0xC1][stat]);
; 0002 01E8 
; 0002 01E9 						charwidth = pgm_read_byte(&FontPointer[(unsigned int)(dumyLet)+FONT_HEADER_SIZE-firstchar]);
; 0002 01EA 						strSize += (unsigned int)(charwidth) * FontXScale;
; 0002 01EB 						strSize += FontSpaceX;
; 0002 01EC 						////////////////
; 0002 01ED 						FontSpaceX = backFontSpace;
; 0002 01EE 					}
; 0002 01EF 					else
; 0002 01F0 					{
; 0002 01F1 						charwidth = pgm_read_byte(&FontPointer[(unsigned int)(curnLet)+FONT_HEADER_SIZE-firstchar]);
; 0002 01F2 						strSize += (unsigned int)(charwidth) * FontXScale;
; 0002 01F3 						strSize += FontSpaceX;
; 0002 01F4 					}
; 0002 01F5 
; 0002 01F6 					prevLet = curnLet;
; 0002 01F7 				}
; 0002 01F8 			}
; 0002 01F9 		}//while
; 0002 01FA 
; 0002 01FB 	 	prevLet = 0xFF;
; 0002 01FC 
; 0002 01FD 		return(strSize);
; 0002 01FE 	#endif
; 0002 01FF }	//*CalcTextWidthPE
;
;unsigned int CalcTextWidth(char *Text)
; 0002 0202 {
; 0002 0203 	#if (PersianSupport ==1)
; 0002 0204 		if(peLETTER == E_LETTER)
;	*Text -> Y+0
; 0002 0205 			return(CalcTextWidthEN(Text));
; 0002 0206 		else
; 0002 0207 	#endif
; 0002 0208 			return(CalcTextWidthPE(Text));
; 0002 0209 }	//*CalcTextWidth
;
;unsigned int CalcTextHeight(void)
; 0002 020C {
; 0002 020D 	return((unsigned int)(FontHeight) * FontYScale);
; 0002 020E }	//*CalcTextHeight
;
;void PutsPE(char *str)
; 0002 0211 {
_PutsPE:
; .FSTART _PutsPE
; 0002 0212 	#if (PersianSupport ==1)
; 0002 0213 		unsigned char 	curnLet;
; 0002 0214 		unsigned char 	Pstat, stat, Nstat;
; 0002 0215 
; 0002 0216 		unsigned char		backFontSpace = FontSpaceX;
; 0002 0217 		char 						strTemp[50];
; 0002 0218 		unsigned char 	i = 0, j = 0;
; 0002 0219 		unsigned int		k = 0;
; 0002 021A 
; 0002 021B 	 	while(str[k])
	ST   -Y,R27
	ST   -Y,R26
	SBIW R28,53
	CALL SUBOPT_0x24
	CALL __SAVELOCR6
;	*str -> Y+59
;	curnLet -> R17
;	Pstat -> R16
;	stat -> R19
;	Nstat -> R18
;	backFontSpace -> R21
;	strTemp -> Y+9
;	i -> R20
;	j -> Y+8
;	k -> Y+6
	LDS  R21,_FontSpaceX
	LDI  R20,0
_0x400C5:
	LDD  R30,Y+6
	LDD  R31,Y+6+1
	CALL SUBOPT_0x25
	LD   R30,X
	CPI  R30,0
	BRNE PC+2
	RJMP _0x400C7
; 0002 021C 		{
; 0002 021D 	 		curnLet = str[k++];
	CALL SUBOPT_0x26
	LD   R17,X
; 0002 021E 
; 0002 021F 	 		switch(curnLet)
	MOV  R30,R17
	LDI  R31,0
; 0002 0220 	 		{
; 0002 0221 	 			case 0x81:				//peh
	CPI  R30,LOW(0x81)
	LDI  R26,HIGH(0x81)
	CPC  R31,R26
	BRNE _0x400CB
; 0002 0222 	    		curnLet = 0xEA;
	LDI  R17,LOW(234)
; 0002 0223 	 				break;
	RJMP _0x400CA
; 0002 0224 	 			case 0x8D:				//cheh
_0x400CB:
	CPI  R30,LOW(0x8D)
	LDI  R26,HIGH(0x8D)
	CPC  R31,R26
	BRNE _0x400CC
; 0002 0225 	    		curnLet = 0xEB;
	LDI  R17,LOW(235)
; 0002 0226 	 				break;
	RJMP _0x400CA
; 0002 0227 	 			case 0x8E:				//zheh
_0x400CC:
	CPI  R30,LOW(0x8E)
	LDI  R26,HIGH(0x8E)
	CPC  R31,R26
	BRNE _0x400CD
; 0002 0228 	    		curnLet = 0xEE;
	LDI  R17,LOW(238)
; 0002 0229 	 				break;
	RJMP _0x400CA
; 0002 022A 	 			case 0x90:				//geh
_0x400CD:
	CPI  R30,LOW(0x90)
	LDI  R26,HIGH(0x90)
	CPC  R31,R26
	BRNE _0x400CE
; 0002 022B 	    		curnLet = 0xEF;
	LDI  R17,LOW(239)
; 0002 022C 	 				break;
	RJMP _0x400CA
; 0002 022D                  case 0x98:				//Ke
_0x400CE:
	CPI  R30,LOW(0x98)
	LDI  R26,HIGH(0x98)
	CPC  R31,R26
	BRNE _0x400CF
; 0002 022E 		    		    curnLet = 0xDF;
	LDI  R17,LOW(223)
; 0002 022F 		 				break;
	RJMP _0x400CA
; 0002 0230 	 			case 0xE1:				//laa
_0x400CF:
	CPI  R30,LOW(0xE1)
	LDI  R26,HIGH(0xE1)
	CPC  R31,R26
	BRNE _0x400D0
; 0002 0231 	    		nextLet = str[k++];
	CALL SUBOPT_0x26
	LD   R30,X
	STS  _nextLet,R30
; 0002 0232 
; 0002 0233 	    		if(nextLet == 0xC7)
	LDS  R26,_nextLet
	CPI  R26,LOW(0xC7)
	BRNE _0x400D1
; 0002 0234 	    			curnLet = 0xFB;
	LDI  R17,LOW(251)
; 0002 0235 	    		else
	RJMP _0x400D2
_0x400D1:
; 0002 0236 	    		{
; 0002 0237 	    			k--;
	LDD  R30,Y+6
	LDD  R31,Y+6+1
	SBIW R30,1
	STD  Y+6,R30
	STD  Y+6+1,R31
; 0002 0238 	    			curnLet = 0xE1;
	LDI  R17,LOW(225)
; 0002 0239 	    		}
_0x400D2:
; 0002 023A 	 				break;
	RJMP _0x400CA
; 0002 023B 	 			case 0x3F:				//persian question mark
_0x400D0:
	CPI  R30,LOW(0x3F)
	LDI  R26,HIGH(0x3F)
	CPC  R31,R26
	BRNE _0x400D3
; 0002 023C 	    		curnLet = 0xBF;
	LDI  R17,LOW(191)
; 0002 023D 	 				break;
	RJMP _0x400CA
; 0002 023E 	 			case 0x3B:				//persian semicolon
_0x400D3:
	CPI  R30,LOW(0x3B)
	LDI  R26,HIGH(0x3B)
	CPC  R31,R26
	BRNE _0x400D4
; 0002 023F 	    		curnLet = 0x1F;
	LDI  R17,LOW(31)
; 0002 0240 	 				break;
	RJMP _0x400CA
; 0002 0241 	 			case 0x2C:				//persian comma
_0x400D4:
	CPI  R30,LOW(0x2C)
	LDI  R26,HIGH(0x2C)
	CPC  R31,R26
	BRNE _0x400D5
; 0002 0242 	    		curnLet = 0x1D;
	LDI  R17,LOW(29)
; 0002 0243 	 				break;
	RJMP _0x400CA
; 0002 0244 	 			case 0x2E:				//persian point
_0x400D5:
	CPI  R30,LOW(0x2E)
	LDI  R26,HIGH(0x2E)
	CPC  R31,R26
	BRNE _0x400CA
; 0002 0245 	    		curnLet = 0x1C;
	LDI  R17,LOW(28)
; 0002 0246 	 				break;
; 0002 0247 			}//switch curnLet
_0x400CA:
; 0002 0248 
; 0002 0249 			//--------------------------------
; 0002 024A 	  	nextLet = str[k++];
	CALL SUBOPT_0x26
	LD   R30,X
	STS  _nextLet,R30
; 0002 024B 	  	k--;
	LDD  R30,Y+6
	LDD  R31,Y+6+1
	SBIW R30,1
	STD  Y+6,R30
	STD  Y+6+1,R31
; 0002 024C 
; 0002 024D 	 		switch(nextLet)
	LDS  R30,_nextLet
	LDI  R31,0
; 0002 024E 	 		{
; 0002 024F 	 			case 0x81:				//peh
	CPI  R30,LOW(0x81)
	LDI  R26,HIGH(0x81)
	CPC  R31,R26
	BRNE _0x400DA
; 0002 0250 	    		nextLet = 0xEA;
	LDI  R30,LOW(234)
	RJMP _0x4010B
; 0002 0251 	 				break;
; 0002 0252 	 			case 0x8D:				//cheh
_0x400DA:
	CPI  R30,LOW(0x8D)
	LDI  R26,HIGH(0x8D)
	CPC  R31,R26
	BRNE _0x400DB
; 0002 0253 	    		nextLet = 0xEB;
	LDI  R30,LOW(235)
	RJMP _0x4010B
; 0002 0254 	 				break;
; 0002 0255 	 			case 0x8E:				//zheh
_0x400DB:
	CPI  R30,LOW(0x8E)
	LDI  R26,HIGH(0x8E)
	CPC  R31,R26
	BRNE _0x400DC
; 0002 0256 	    		nextLet = 0xEE;
	LDI  R30,LOW(238)
	RJMP _0x4010B
; 0002 0257 	 				break;
; 0002 0258 	 			case 0x90:				//geh
_0x400DC:
	CPI  R30,LOW(0x90)
	LDI  R26,HIGH(0x90)
	CPC  R31,R26
	BRNE _0x400DD
; 0002 0259 	    		nextLet = 0xEF;
	LDI  R30,LOW(239)
	RJMP _0x4010B
; 0002 025A 	 				break;
; 0002 025B                  case 0x98:				//Ke
_0x400DD:
	CPI  R30,LOW(0x98)
	LDI  R26,HIGH(0x98)
	CPC  R31,R26
	BRNE _0x400DE
; 0002 025C 		    		    nextLet = 0xDF;
	LDI  R30,LOW(223)
	RJMP _0x4010B
; 0002 025D 		 				break;
; 0002 025E 	 			case 0x3F:				//persian question mark
_0x400DE:
	CPI  R30,LOW(0x3F)
	LDI  R26,HIGH(0x3F)
	CPC  R31,R26
	BRNE _0x400DF
; 0002 025F 	    		nextLet = 0xBF;
	LDI  R30,LOW(191)
	RJMP _0x4010B
; 0002 0260 	 				break;
; 0002 0261 	 			case 0x3B:				//persian semicolon
_0x400DF:
	CPI  R30,LOW(0x3B)
	LDI  R26,HIGH(0x3B)
	CPC  R31,R26
	BRNE _0x400E0
; 0002 0262 	    		nextLet = 0x1F;
	LDI  R30,LOW(31)
	RJMP _0x4010B
; 0002 0263 	 				break;
; 0002 0264 	 			case 0x2C:				//persian comma
_0x400E0:
	CPI  R30,LOW(0x2C)
	LDI  R26,HIGH(0x2C)
	CPC  R31,R26
	BRNE _0x400E1
; 0002 0265 	    		nextLet = 0x1D;
	LDI  R30,LOW(29)
	RJMP _0x4010B
; 0002 0266 	 				break;
; 0002 0267 	 			case 0x2E:				//persian point
_0x400E1:
	CPI  R30,LOW(0x2E)
	LDI  R26,HIGH(0x2E)
	CPC  R31,R26
	BRNE _0x400D9
; 0002 0268 	    		nextLet = 0x1C;
	LDI  R30,LOW(28)
_0x4010B:
	STS  _nextLet,R30
; 0002 0269 	 				break;
; 0002 026A 			}//switch nextLet
_0x400D9:
; 0002 026B 
; 0002 026C 			if(curnLet > 0xC0)
	CPI  R17,193
	BRLO _0x400E3
; 0002 026D 			{
; 0002 026E 				if(prevLet > 0xC0)
	LDS  R26,_prevLet
	CPI  R26,LOW(0xC1)
	BRLO _0x400E4
; 0002 026F 					Pstat = (pgm_read_byte(&PEmap[prevLet-0xC1][5]));		// 1: prevLet attach to curnLet -- 0: prevLet don't attach to cu ...
	LDS  R30,_prevLet
	CALL SUBOPT_0x27
	ADIW R30,5
	LPM  R16,Z
; 0002 0270 				else
	RJMP _0x400E5
_0x400E4:
; 0002 0271 					Pstat = 0;
	LDI  R16,LOW(0)
; 0002 0272 
; 0002 0273 				if(nextLet > 0xC0)
_0x400E5:
	LDS  R26,_nextLet
	CPI  R26,LOW(0xC1)
	BRLO _0x400E6
; 0002 0274 					Nstat = (pgm_read_byte(&PEmap[nextLet-0xC1][4]));		// 1: nextLet attach to curnLet -- 0: nextLet don't attach to cu ...
	LDS  R30,_nextLet
	CALL SUBOPT_0x27
	ADIW R30,4
	LPM  R18,Z
; 0002 0275 				else
	RJMP _0x400E7
_0x400E6:
; 0002 0276 					Nstat = 0;
	LDI  R18,LOW(0)
; 0002 0277 
; 0002 0278 				//			Pstat	|	Nstat	|	stat
; 0002 0279 				//		 -------+-------+------
; 0002 027A 				//				0		|		0		|		0				curnLet, don't attach to prevLet and nextLet
; 0002 027B 				//				0		|		1		|		1				curnLet, don't attach to prevLet and attach to nextLet
; 0002 027C 				//				1		|		0		|		2				curnLet, attach to prevLet and don't attach to nextLet
; 0002 027D 				//				1		|		1		|		3				curnLet, attach to prevLet and nextLet
; 0002 027E 
; 0002 027F 				stat = (Pstat<<1) | Nstat;
_0x400E7:
	MOV  R30,R16
	LSL  R30
	OR   R30,R18
	MOV  R19,R30
; 0002 0280 
; 0002 0281 				if(stat>1)	FontSpaceX = 0;
	CPI  R19,2
	BRLO _0x400E8
	LDI  R30,LOW(0)
	STS  _FontSpaceX,R30
; 0002 0282 				else 				FontSpaceX = backFontSpace;
	RJMP _0x400E9
_0x400E8:
	STS  _FontSpaceX,R21
; 0002 0283 
; 0002 0284 				PutCharPE(pgm_read_byte(&PEmap[curnLet-0xC1][stat]));
_0x400E9:
	MOV  R30,R17
	CALL SUBOPT_0x27
	MOVW R26,R30
	MOV  R30,R19
	LDI  R31,0
	ADD  R30,R26
	ADC  R31,R27
	LPM  R26,Z
	RCALL _PutCharPE
; 0002 0285 				FontSpaceX = backFontSpace;
	STS  _FontSpaceX,R21
; 0002 0286 			}
; 0002 0287 			else	//Original 'curnLet' below 193 without (     )  -- for digits and symbols!
	RJMP _0x400EA
_0x400E3:
; 0002 0288 			{
; 0002 0289 	  		if((curnLet >= '0') && (curnLet <= '9'))		// 0 to 9
	CPI  R17,48
	BRLO _0x400EC
	CPI  R17,58
	BRLO _0x400ED
_0x400EC:
	RJMP _0x400EB
_0x400ED:
; 0002 028A 	  		{
; 0002 028B 	  			i++;
	SUBI R20,-1
; 0002 028C 	  			strTemp[i] 	 = curnLet;
	MOV  R30,R20
	LDI  R31,0
	MOVW R26,R28
	ADIW R26,9
	ADD  R30,R26
	ADC  R31,R27
	ST   Z,R17
; 0002 028D 
; 0002 028E 	  			if(!((nextLet >= '0') && (nextLet <= '9')))
	LDS  R26,_nextLet
	CPI  R26,LOW(0x30)
	BRLO _0x400EF
	CPI  R26,LOW(0x3A)
	BRLO _0x400EE
_0x400EF:
; 0002 028F 					{
; 0002 0290 						for(j=i; j>0; j--)
	__PUTBSR 20,8
_0x400F2:
	LDD  R26,Y+8
	CPI  R26,LOW(0x1)
	BRLO _0x400F3
; 0002 0291 							PutCharPE(strTemp[j]-0x20);
	LDD  R30,Y+8
	LDI  R31,0
	MOVW R26,R28
	ADIW R26,9
	ADD  R26,R30
	ADC  R27,R31
	LD   R30,X
	SUBI R30,LOW(32)
	MOV  R26,R30
	RCALL _PutCharPE
	LDD  R30,Y+8
	SUBI R30,LOW(1)
	STD  Y+8,R30
	RJMP _0x400F2
_0x400F3:
; 0002 0293 i = 0;
	LDI  R20,LOW(0)
; 0002 0294 					}
; 0002 0295 				}
_0x400EE:
; 0002 0296 				else
	RJMP _0x400F4
_0x400EB:
; 0002 0297 					PutCharPE(curnLet);
	MOV  R26,R17
	RCALL _PutCharPE
; 0002 0298 			}
_0x400F4:
_0x400EA:
; 0002 0299 
; 0002 029A 			prevLet = curnLet;
	STS  _prevLet,R17
; 0002 029B 		}//while
	RJMP _0x400C5
_0x400C7:
; 0002 029C 
; 0002 029D 	 	prevLet = 0xFF;
	LDI  R30,LOW(255)
	STS  _prevLet,R30
; 0002 029E 	#endif
; 0002 029F }	//*PutsPE
	CALL __LOADLOCR6
	ADIW R28,61
	RET
; .FEND
;
;//-------------------------------------------------
;//**** select font
;void LcdFont(const unsigned char *pointer)
; 0002 02A4 {
_LcdFont:
; .FSTART _LcdFont
; 0002 02A5 	FontPointer 			= pointer;
	ST   -Y,R27
	ST   -Y,R26
;	*pointer -> Y+0
	LD   R30,Y
	LDD  R31,Y+1
	STS  _FontPointer,R30
	STS  _FontPointer+1,R31
; 0002 02A6 
; 0002 02A7 	FontWidth 				= pgm_read_byte(&FontPointer[2]);
	CALL SUBOPT_0x28
	ADIW R30,2
	LPM  R0,Z
	STS  _FontWidth,R0
; 0002 02A8 	FontHeight				= pgm_read_byte(&FontPointer[3]);
	CALL SUBOPT_0x28
	ADIW R30,3
	LPM  R0,Z
	STS  _FontHeight,R0
; 0002 02A9 
; 0002 02AA 	fontSize					=	pgm_read_word(&FontPointer[0]);
	CALL SUBOPT_0x28
	CALL __GETW1PF
	STS  _fontSize,R30
	STS  _fontSize+1,R31
; 0002 02AB 	firstchar 				=	pgm_read_byte(&FontPointer[5]);
	CALL SUBOPT_0x28
	ADIW R30,5
	LPM  R0,Z
	STS  _firstchar,R0
; 0002 02AC 	lastchar 					=	pgm_read_byte(&FontPointer[6]);
	CALL SUBOPT_0x28
	ADIW R30,6
	LPM  R0,Z
	STS  _lastchar,R0
; 0002 02AD }	//*LcdFont
	JMP  _0x216000F
; .FEND
;
;void SetLetter(Lt_Mode L)
; 0002 02B0 {
_SetLetter:
; .FSTART _SetLetter
; 0002 02B1 	#if (PersianSupport ==1)
; 0002 02B2 		peLETTER = L;
	ST   -Y,R26
;	L -> Y+0
	LD   R30,Y
	STS  _peLETTER,R30
; 0002 02B3 
; 0002 02B4 		if(L == P_LETTER)
	LD   R26,Y
	CPI  R26,LOW(0x1)
	BRNE _0x400F5
; 0002 02B5 			cursorX = GetMaxX();
	LDI  R30,LOW(127)
	LDI  R31,HIGH(127)
	CALL SUBOPT_0x22
; 0002 02B6 		else
	RJMP _0x400F6
_0x400F5:
; 0002 02B7 			cursorX = 0;
	CALL SUBOPT_0xC
; 0002 02B8 	#endif
; 0002 02B9 }	//*SetLetter
_0x400F6:
	JMP  _0x2160011
; .FEND
;
;void SetLine(unsigned char line,unsigned char column)
; 0002 02BC {
_SetLine:
; .FSTART _SetLine
; 0002 02BD 	#if (PersianSupport ==1)
; 0002 02BE 		if(peLETTER == P_LETTER)
	ST   -Y,R26
;	line -> Y+1
;	column -> Y+0
	LDS  R26,_peLETTER
	CPI  R26,LOW(0x1)
	BRNE _0x400F7
; 0002 02BF 			cursorX =GetMaxX() - (unsigned int)FontWidth  * FontXScale * column;
	CALL SUBOPT_0x29
	CALL SUBOPT_0x23
; 0002 02C0 		else
	RJMP _0x400F8
_0x400F7:
; 0002 02C1 	#endif
; 0002 02C2 			cursorX =(unsigned int)FontWidth  * FontXScale * column;
	CALL SUBOPT_0x29
	CALL __MULW12U
	CALL SUBOPT_0x22
; 0002 02C3 
; 0002 02C4 	cursorY =(unsigned int)(FontHeight +FontSpaceY)* FontYScale * line;
_0x400F8:
	LDS  R26,_FontHeight
	CLR  R27
	LDS  R30,_FontSpaceY
	LDI  R31,0
	ADD  R26,R30
	ADC  R27,R31
	LDS  R30,_FontYScale
	LDI  R31,0
	CALL __MULW12U
	MOVW R26,R30
	LDD  R30,Y+1
	LDI  R31,0
	CALL __MULW12U
	STS  _cursorY,R30
	STS  _cursorY+1,R31
; 0002 02C5 }	//*SetLine
	JMP  _0x216000F
; .FEND
;
;
;//-------------------------------------------------
;//**** draw char
;void PutChar(unsigned char c)
; 0002 02CB {
_PutChar:
; .FSTART _PutChar
; 0002 02CC 	#if (PersianSupport ==1)
; 0002 02CD 	  if(peLETTER == P_LETTER)
	ST   -Y,R26
;	c -> Y+0
	LDS  R26,_peLETTER
	CPI  R26,LOW(0x1)
	BRNE _0x400F9
; 0002 02CE 			PutCharPE(c);
	LD   R26,Y
	RCALL _PutCharPE
; 0002 02CF 		else
	RJMP _0x400FA
_0x400F9:
; 0002 02D0 	#endif
; 0002 02D1 			PutCharEN(c);
	LD   R26,Y
	RCALL _PutCharEN
; 0002 02D2 }	//*PutChar
_0x400FA:
	JMP  _0x2160011
; .FEND
;
;//**** draw string
;void Puts(char *Text)
; 0002 02D6 {
_Puts:
; .FSTART _Puts
; 0002 02D7 	unsigned int		i = 0;
; 0002 02D8 
; 0002 02D9 	#if (PersianSupport ==1)
; 0002 02DA 	  if(peLETTER == P_LETTER)
	ST   -Y,R27
	ST   -Y,R26
	ST   -Y,R17
	ST   -Y,R16
;	*Text -> Y+2
;	i -> R16,R17
	__GETWRN 16,17,0
	LDS  R26,_peLETTER
	CPI  R26,LOW(0x1)
	BRNE _0x400FB
; 0002 02DB 	  {
; 0002 02DC 			PutsPE(Text);
	LDD  R26,Y+2
	LDD  R27,Y+2+1
	RCALL _PutsPE
; 0002 02DD 		}
; 0002 02DE 		else
	RJMP _0x400FC
_0x400FB:
; 0002 02DF 	#endif
; 0002 02E0 		{
; 0002 02E1 			while(Text[i])
_0x400FD:
	MOVW R30,R16
	LDD  R26,Y+2
	LDD  R27,Y+2+1
	ADD  R26,R30
	ADC  R27,R31
	LD   R30,X
	CPI  R30,0
	BREQ _0x400FF
; 0002 02E2 				PutCharEN(Text[i++]);
	MOVW R30,R16
	__ADDWRN 16,17,1
	LDD  R26,Y+2
	LDD  R27,Y+2+1
	ADD  R26,R30
	ADC  R27,R31
	LD   R26,X
	RCALL _PutCharEN
	RJMP _0x400FD
_0x400FF:
; 0002 02E3 }
_0x400FC:
; 0002 02E4 }	//*Puts
	LDD  R17,Y+1
	LDD  R16,Y+0
	RJMP _0x2160015
; .FEND
;
;
;/****************************************************************************
;Image data created by the LCD Vision V1.05 font & image editor/converter
;(C) Copyright 2011-2013 Pavel Haiduc, HP InfoTech s.r.l.
;http://www.hpinfotech.com
;
;Graphic LCD controller: ST7920 128x64 8bit Bus /RST PSB=1
;Image width: 128 pixels
;Image height: 64 pixels
;Color depth: 1 bits/pixel
;Imported image file name: truck.bmp
;
;Exported monochrome image data size:
;1028 bytes for displays organized as horizontal rows of bytes
;1028 bytes for displays organized as rows of vertical bytes.
;****************************************************************************/
;
;flash unsigned char truck[]=
;{
;/* Image width: 128 pixels */
;0x80, 0x00,
;/* Image height: 64 pixels */
;0x40, 0x00,
;#ifndef _GLCD_DATA_BYTEY_
;/* Image data for monochrome displays organized
;   as horizontal rows of bytes */
;0x00, 0x00, 0x00, 0x00, 0x00, 0x00, 0x00, 0x00,
;0x00, 0x00, 0x00, 0x00, 0x00, 0x00, 0x00, 0x00,
;0x00, 0x00, 0x00, 0x00, 0x00, 0x00, 0x00, 0x00,
;0x00, 0x00, 0x00, 0x00, 0x00, 0x00, 0x00, 0x00,
;0x00, 0x00, 0x00, 0x00, 0x00, 0x00, 0x00, 0x00,
;0x00, 0x00, 0x00, 0x00, 0x00, 0x00, 0x00, 0x00,
;0x00, 0x00, 0x00, 0x00, 0x00, 0x00, 0x00, 0x00,
;0x00, 0x00, 0x00, 0x00, 0x00, 0x00, 0x00, 0x00,
;0x00, 0x00, 0x00, 0x00, 0x00, 0x00, 0x00, 0x00,
;0x00, 0x00, 0x00, 0x00, 0x00, 0x00, 0x00, 0x00,
;0x00, 0x00, 0x00, 0x00, 0x00, 0x00, 0x00, 0x00,
;0x00, 0x00, 0x00, 0x00, 0x00, 0x00, 0x00, 0x00,
;0x00, 0x00, 0x00, 0x00, 0x00, 0x00, 0x00, 0x00,
;0x00, 0x00, 0x00, 0x00, 0x00, 0x00, 0x00, 0x00,
;0x00, 0x00, 0x00, 0x00, 0x00, 0x00, 0x00, 0x00,
;0x00, 0x00, 0x00, 0x00, 0x00, 0x00, 0x00, 0x00,
;0x00, 0x00, 0x00, 0x00, 0x00, 0x00, 0x00, 0x00,
;0x00, 0x00, 0x00, 0x00, 0x00, 0x00, 0x00, 0x00,
;0x00, 0x00, 0x00, 0x00, 0x00, 0x00, 0x00, 0x00,
;0x00, 0x00, 0x00, 0x00, 0x00, 0x00, 0x00, 0x00,
;0x00, 0x00, 0x00, 0x00, 0x00, 0x00, 0x00, 0x00,
;0x00, 0x00, 0x00, 0x00, 0x00, 0x00, 0x00, 0x00,
;0x00, 0x00, 0x00, 0x00, 0x00, 0x00, 0x00, 0x00,
;0x00, 0x00, 0x00, 0x00, 0x00, 0x00, 0x00, 0x00,
;0x00, 0x00, 0x00, 0x00, 0x00, 0x00, 0x00, 0x00,
;0x00, 0x00, 0x00, 0x00, 0x00, 0x00, 0x00, 0x00,
;0x00, 0x00, 0x80, 0xFF, 0xFF, 0xFF, 0xFF, 0xFF,
;0xFF, 0xEF, 0x3F, 0x00, 0x00, 0x00, 0x00, 0x00,
;0x00, 0x00, 0x7E, 0x00, 0x00, 0x00, 0x00, 0x00,
;0xE0, 0x07, 0x00, 0x07, 0x00, 0x00, 0x00, 0x00,
;0x00, 0xF0, 0x01, 0x00, 0x00, 0x00, 0x00, 0x00,
;0xDC, 0x00, 0x00, 0x10, 0x00, 0x00, 0x00, 0x00,
;0x80, 0xFF, 0xFF, 0xFF, 0xFF, 0xFF, 0xFF, 0xFF,
;0x13, 0x00, 0x00, 0x30, 0x00, 0x00, 0x00, 0x00,
;0x20, 0x00, 0x00, 0x00, 0x00, 0x00, 0x00, 0x20,
;0x08, 0x00, 0x00, 0x0C, 0x00, 0x00, 0x00, 0x00,
;0x20, 0xF0, 0xC0, 0xC3, 0x03, 0x7C, 0xF8, 0x27,
;0x08, 0x00, 0x80, 0x51, 0x00, 0x00, 0x00, 0x00,
;0x20, 0xF0, 0xC0, 0xC3, 0x07, 0x7E, 0xF8, 0x27,
;0xE8, 0xFF, 0x4F, 0x00, 0x00, 0x00, 0x00, 0x00,
;0x20, 0xF0, 0xC0, 0xC3, 0x0F, 0x7E, 0xF8, 0x2F,
;0x08, 0x00, 0x50, 0xA0, 0x00, 0x00, 0x00, 0x00,
;0x20, 0xF0, 0xC0, 0xC3, 0x1F, 0x7F, 0x78, 0x20,
;0x28, 0x00, 0xA0, 0x80, 0x1D, 0x00, 0x00, 0x00,
;0x20, 0xF0, 0xC0, 0xC3, 0xBF, 0x7F, 0xF8, 0x23,
;0x08, 0x00, 0x20, 0xE0, 0x0E, 0x0F, 0x00, 0x00,
;0x20, 0xF0, 0xC0, 0xC3, 0xFF, 0x7F, 0xF8, 0x23,
;0x28, 0x00, 0x20, 0x09, 0xC3, 0x07, 0x02, 0x00,
;0x20, 0xF0, 0xC0, 0xC3, 0xFF, 0x7F, 0xF8, 0x23,
;0x20, 0x00, 0x00, 0x40, 0x00, 0xE0, 0x0C, 0x00,
;0x20, 0xF0, 0xC0, 0xC3, 0xFB, 0x7B, 0x78, 0x20,
;0xD0, 0xFF, 0x7F, 0xE0, 0x00, 0x00, 0x64, 0x00,
;0x20, 0xF0, 0xCF, 0xC3, 0xFB, 0x79, 0xF8, 0x2F,
;0xD8, 0x01, 0x80, 0x10, 0xF8, 0x00, 0x68, 0x00,
;0x20, 0xF0, 0xCF, 0xC3, 0xF3, 0x78, 0xF8, 0x27,
;0x48, 0x00, 0x80, 0x00, 0x00, 0xE0, 0x60, 0x01,
;0x20, 0xF0, 0xCF, 0xC3, 0x63, 0x78, 0xF8, 0x2F,
;0x18, 0x00, 0xC0, 0x06, 0x80, 0x1F, 0x31, 0x01,
;0xE0, 0xFF, 0xFF, 0xFF, 0xFF, 0xFF, 0xFF, 0x3F,
;0x1E, 0x00, 0xC0, 0x01, 0x00, 0x80, 0x73, 0x01,
;0xC0, 0xFF, 0xFF, 0xFF, 0xFF, 0xFF, 0xFF, 0xFF,
;0x1D, 0x00, 0x60, 0x00, 0x00, 0x00, 0x35, 0x00,
;0x00, 0x02, 0x00, 0x00, 0x00, 0x00, 0x00, 0x00,
;0x1A, 0x00, 0x00, 0x00, 0x00, 0x00, 0xD0, 0x00,
;0x00, 0xFE, 0xFF, 0xFF, 0xFF, 0xFF, 0xFF, 0xFF,
;0x1F, 0x00, 0x10, 0x00, 0x00, 0x00, 0x11, 0x00,
;0x00, 0x00, 0xFC, 0x1F, 0x62, 0xFF, 0xFF, 0xFF,
;0x0F, 0x00, 0x10, 0x00, 0x00, 0x00, 0x81, 0x00,
;0x00, 0x00, 0xFC, 0xF9, 0x87, 0xFD, 0xFF, 0xFF,
;0x1F, 0x00, 0x10, 0x00, 0xFE, 0x07, 0x21, 0x00,
;0x00, 0x00, 0xFC, 0xFE, 0x0F, 0xF7, 0xFF, 0xFF,
;0xFF, 0xFF, 0x07, 0x80, 0xFF, 0x3F, 0x4F, 0x00,
;0x00, 0x00, 0xFC, 0xFF, 0x7F, 0xDE, 0xFF, 0xFF,
;0xFF, 0xFF, 0x07, 0xC0, 0xFF, 0x3F, 0x14, 0x00,
;0x00, 0x00, 0xFC, 0xCF, 0xF3, 0xDC, 0xFF, 0xFF,
;0xFF, 0xFF, 0x0F, 0xC0, 0x93, 0x7C, 0x12, 0x03,
;0x00, 0x00, 0xFC, 0x77, 0xEC, 0xB9, 0xFF, 0xFF,
;0xFF, 0xFF, 0x0F, 0xC0, 0x1D, 0xFB, 0x64, 0x02,
;0x00, 0x00, 0xC0, 0x8B, 0xD1, 0xF1, 0x7F, 0x80,
;0x03, 0x04, 0x1E, 0xE0, 0x16, 0xB0, 0x0F, 0x01,
;0x00, 0x00, 0xE0, 0x8B, 0xE5, 0xF1, 0x9F, 0xBF,
;0x3F, 0x00, 0xF0, 0xEB, 0x0E, 0x20, 0x80, 0x00,
;0x00, 0xFC, 0xFF, 0x6F, 0xA0, 0xF1, 0xFF, 0xFF,
;0xFF, 0xFF, 0xFF, 0x7F, 0x9A, 0x68, 0x30, 0x00,
;0x00, 0xFE, 0xFF, 0xEF, 0xA0, 0xF7, 0xFF, 0xFF,
;0xFF, 0xFF, 0xFF, 0xFF, 0x1E, 0xED, 0x00, 0x00,
;0xE0, 0xFF, 0xFF, 0xCB, 0xC1, 0xF7, 0xFF, 0xFF,
;0xFF, 0xFF, 0xFF, 0xFF, 0xFE, 0xF0, 0x01, 0x00,
;0xE0, 0xFF, 0xFF, 0x37, 0xEC, 0xFF, 0xFF, 0xFF,
;0xFF, 0xFF, 0xFF, 0xFF, 0x1D, 0xF2, 0xFD, 0x00,
;0xE0, 0xFF, 0xFF, 0xEF, 0xF1, 0xBB, 0xFF, 0xFF,
;0xFF, 0xFF, 0xFF, 0xFF, 0xB3, 0x7C, 0xFE, 0x01,
;0xF0, 0xFF, 0xFF, 0x3F, 0xFC, 0xFF, 0xFF, 0xFF,
;0xFF, 0xFF, 0xFF, 0xEF, 0x1F, 0x7F, 0x7F, 0x00,
;0xF8, 0xFF, 0xFF, 0xFF, 0xFF, 0xEF, 0xFF, 0xFF,
;0xFF, 0xFF, 0xFF, 0xFF, 0xFF, 0x9F, 0xFF, 0x00,
;0xF8, 0xFF, 0xFF, 0xFD, 0xFF, 0xFB, 0xFF, 0xFF,
;0xFF, 0xFF, 0xFF, 0x7F, 0xFF, 0xFF, 0xFF, 0x03,
;0x80, 0xFF, 0xFF, 0xF7, 0x7F, 0xFE, 0xFF, 0xFF,
;0xFF, 0xFF, 0xFF, 0xFF, 0xFD, 0xFB, 0xFF, 0x03,
;0x00, 0xFC, 0xFF, 0x3F, 0xF8, 0xFF, 0xFF, 0xFF,
;0xFF, 0xFF, 0xFF, 0xFF, 0xDF, 0xFF, 0x7F, 0x00,
;0x00, 0x80, 0x3B, 0xFF, 0xFF, 0xFF, 0xFF, 0xFF,
;0xFF, 0xFF, 0xFF, 0xFF, 0xFF, 0xFF, 0x1F, 0x00,
;0x00, 0x00, 0x00, 0x00, 0xC0, 0xFF, 0xE3, 0xFF,
;0xFF, 0xFF, 0xFF, 0xFF, 0xFF, 0xFF, 0x07, 0x00,
;0x00, 0x00, 0x00, 0xE0, 0xFF, 0xFF, 0xFF, 0xFF,
;0xFF, 0xFF, 0xFF, 0xFF, 0xFF, 0x0F, 0x04, 0x00,
;0x00, 0x00, 0x00, 0x00, 0xF0, 0xFF, 0x5C, 0xFF,
;0xFF, 0xFF, 0xFF, 0xC3, 0xFF, 0x07, 0x00, 0x00,
;0x00, 0x00, 0x00, 0x00, 0xE0, 0xFF, 0xFF, 0xFF,
;0xFF, 0xFF, 0x0F, 0xFF, 0xFF, 0x01, 0x00, 0x00,
;0x00, 0x00, 0x00, 0x00, 0x00, 0x60, 0x03, 0xF0,
;0xFF, 0x1F, 0xF8, 0x3F, 0xFE, 0x00, 0x00, 0x00,
;0x00, 0x00, 0x00, 0x00, 0x00, 0x00, 0x00, 0x00,
;0xF0, 0xFF, 0x7F, 0xF8, 0xFF, 0x01, 0x00, 0x00,
;0x00, 0x00, 0x00, 0x00, 0x00, 0x00, 0x00, 0x00,
;0x00, 0xE8, 0xC1, 0xC1, 0x7F, 0x00, 0x00, 0x00,
;0x00, 0x00, 0x00, 0x00, 0x00, 0x00, 0x00, 0x00,
;0x80, 0x27, 0x00, 0x00, 0xF7, 0x00, 0x00, 0x00,
;0x00, 0x00, 0x00, 0x00, 0x00, 0x00, 0x00, 0x00,
;0x00, 0x00, 0xDC, 0x1B, 0x00, 0x00, 0x00, 0x00,
;0x00, 0x00, 0x00, 0x00, 0x00, 0x00, 0x00, 0x00,
;0x00, 0x00, 0x00, 0x00, 0x00, 0x00, 0x00, 0x00,
;0x00, 0x00, 0x00, 0x00, 0x00, 0x00, 0x00, 0x00,
;0x00, 0x00, 0x00, 0x00, 0x00, 0x00, 0x00, 0x00,
;0x00, 0x00, 0x00, 0x00, 0x00, 0x00, 0x00, 0x00,
;0x00, 0x00, 0x00, 0x00, 0x00, 0x00, 0x00, 0x00,
;#else
;/* Image data for monochrome displays organized
;   as rows of vertical bytes */
;0x00, 0x00, 0x00, 0x00, 0x00, 0x00, 0x00, 0x00,
;0x00, 0x00, 0x00, 0x00, 0x00, 0x00, 0x00, 0x00,
;0x00, 0x00, 0x00, 0x00, 0x00, 0x00, 0x00, 0x00,
;0x00, 0x00, 0x00, 0x00, 0x00, 0x00, 0x00, 0x00,
;0x00, 0x00, 0x00, 0x00, 0x00, 0x00, 0x00, 0x00,
;0x00, 0x00, 0x00, 0x00, 0x00, 0x00, 0x00, 0x00,
;0x00, 0x00, 0x00, 0x00, 0x00, 0x00, 0x00, 0x00,
;0x00, 0x00, 0x00, 0x00, 0x00, 0x00, 0x00, 0x00,
;0x00, 0x00, 0x00, 0x00, 0x00, 0x00, 0x00, 0x00,
;0x00, 0x00, 0x00, 0x00, 0x00, 0x00, 0x00, 0x00,
;0x00, 0x00, 0x00, 0x00, 0x00, 0x00, 0x00, 0x00,
;0x00, 0x00, 0x00, 0x00, 0x00, 0x00, 0x00, 0x00,
;0x00, 0x00, 0x00, 0x00, 0x00, 0x00, 0x00, 0x00,
;0x00, 0x00, 0x00, 0x00, 0x00, 0x00, 0x00, 0x00,
;0x00, 0x00, 0x00, 0x00, 0x00, 0x00, 0x00, 0x00,
;0x00, 0x00, 0x00, 0x00, 0x00, 0x00, 0x00, 0x00,
;0x00, 0x00, 0x00, 0x00, 0x00, 0x00, 0x00, 0x00,
;0x00, 0x00, 0x00, 0x00, 0x80, 0x80, 0x80, 0x80,
;0x80, 0x40, 0x40, 0x40, 0x40, 0x40, 0x40, 0x20,
;0x20, 0x20, 0x20, 0x20, 0x20, 0x20, 0x20, 0x20,
;0x20, 0x20, 0x20, 0x20, 0x20, 0x20, 0x20, 0x20,
;0x20, 0x20, 0x20, 0x20, 0x20, 0x20, 0x20, 0x20,
;0x20, 0x20, 0x20, 0x20, 0x20, 0x20, 0x20, 0x20,
;0x20, 0x20, 0x20, 0x20, 0x20, 0x20, 0x20, 0x20,
;0x20, 0x20, 0xA0, 0xA0, 0xA0, 0x60, 0xE0, 0xE0,
;0x60, 0x60, 0x60, 0x20, 0x00, 0x20, 0x20, 0x20,
;0x20, 0x20, 0x20, 0x20, 0x20, 0x20, 0x00, 0x00,
;0x40, 0x40, 0x40, 0x00, 0x80, 0x00, 0x00, 0x00,
;0x00, 0x00, 0x00, 0x00, 0x00, 0x00, 0x00, 0x00,
;0x00, 0x00, 0x00, 0x00, 0x00, 0x00, 0x00, 0x00,
;0x00, 0x00, 0x00, 0x00, 0x00, 0x00, 0x00, 0x00,
;0x00, 0x00, 0x00, 0x00, 0x00, 0x00, 0x00, 0x00,
;0x00, 0x00, 0x00, 0x00, 0x00, 0xFE, 0x00, 0x01,
;0x01, 0x01, 0x01, 0x01, 0xFD, 0xFD, 0xFD, 0xFD,
;0x01, 0x01, 0x01, 0x01, 0x01, 0x01, 0xFD, 0xFD,
;0xFD, 0xFD, 0x01, 0x01, 0x01, 0x01, 0xFD, 0xFD,
;0xFD, 0xFD, 0xF9, 0xF1, 0xE1, 0xC1, 0x81, 0xC1,
;0xE1, 0xF9, 0xFD, 0xFD, 0xFD, 0xFD, 0xFD, 0x01,
;0x01, 0x01, 0x01, 0xFD, 0xFD, 0xFD, 0xFD, 0xDD,
;0xDD, 0xDD, 0x1D, 0x11, 0x01, 0xFF, 0x01, 0x01,
;0x01, 0x01, 0x00, 0xFE, 0x01, 0xA8, 0x08, 0x08,
;0x08, 0x08, 0x08, 0x08, 0x08, 0x08, 0x08, 0x08,
;0x08, 0x08, 0x08, 0x08, 0x10, 0xE0, 0x18, 0x24,
;0x84, 0x00, 0x02, 0x82, 0x05, 0x51, 0x44, 0x70,
;0xA0, 0xC0, 0x60, 0x60, 0x20, 0x00, 0x80, 0x80,
;0xC0, 0xC0, 0xC0, 0x40, 0x00, 0x00, 0x00, 0x00,
;0x00, 0x80, 0x00, 0x00, 0x00, 0x00, 0x00, 0x00,
;0x00, 0x00, 0x00, 0x00, 0x00, 0x00, 0x00, 0x00,
;0x00, 0x00, 0x00, 0x00, 0x00, 0x3F, 0x60, 0x60,
;0x60, 0xE0, 0x60, 0x60, 0x7F, 0x7F, 0x7F, 0x7F,
;0x7C, 0x7C, 0x7C, 0x7C, 0x60, 0x60, 0x7F, 0x7F,
;0x7F, 0x7F, 0x60, 0x60, 0x60, 0x60, 0x7F, 0x7F,
;0x7F, 0x7F, 0x61, 0x67, 0x6F, 0x7F, 0x7F, 0x6F,
;0x67, 0x63, 0x61, 0x7F, 0x7F, 0x7F, 0x7F, 0x60,
;0x60, 0x60, 0x60, 0x7F, 0x7F, 0x7F, 0x7F, 0x7D,
;0x7D, 0x7D, 0x7C, 0x74, 0x60, 0x7F, 0x40, 0x40,
;0x40, 0xA0, 0x60, 0xFC, 0xF6, 0x01, 0x0E, 0x06,
;0x06, 0x02, 0x02, 0x02, 0x02, 0x02, 0x02, 0x02,
;0x02, 0x02, 0x02, 0x02, 0x02, 0x42, 0x72, 0x3C,
;0x20, 0x10, 0x10, 0x00, 0x04, 0x02, 0x03, 0x02,
;0x00, 0x00, 0x00, 0x04, 0x04, 0x04, 0x04, 0x14,
;0x10, 0x10, 0x10, 0x10, 0x10, 0x09, 0x09, 0x29,
;0x70, 0x20, 0x43, 0x05, 0xF0, 0x7E, 0xAE, 0x80,
;0x38, 0x00, 0x00, 0x00, 0x00, 0x00, 0x00, 0x00,
;0x00, 0x00, 0x00, 0x00, 0x00, 0x00, 0x00, 0x00,
;0x00, 0x01, 0x01, 0x01, 0x01, 0x01, 0x01, 0x01,
;0x01, 0x01, 0x7F, 0x7F, 0x7F, 0x7F, 0xFF, 0xFF,
;0xF7, 0xFB, 0x7B, 0xBF, 0x5F, 0x5D, 0x7D, 0xBD,
;0xBD, 0x3F, 0x5D, 0x59, 0xB1, 0x73, 0xF3, 0xE5,
;0xCF, 0x1B, 0x3F, 0x77, 0xFF, 0xCF, 0xBF, 0xFF,
;0xFF, 0xFF, 0xFF, 0xFF, 0xFF, 0xFF, 0xFF, 0x7F,
;0x7F, 0x7F, 0x7F, 0x7F, 0x7F, 0x7F, 0x7F, 0xFF,
;0xFF, 0xFF, 0x7F, 0x7F, 0x7D, 0x78, 0x78, 0x78,
;0x78, 0x78, 0xF8, 0x78, 0x78, 0x78, 0x78, 0x78,
;0x78, 0xF8, 0xF8, 0xE0, 0x87, 0x00, 0x00, 0x00,
;0x00, 0x00, 0x00, 0x00, 0x00, 0x80, 0xF0, 0xF8,
;0x78, 0xBC, 0xDC, 0x5C, 0xFC, 0x1C, 0x1C, 0x3C,
;0x5C, 0x5C, 0x3C, 0x78, 0xF8, 0xF8, 0x60, 0xC0,
;0x8F, 0xA8, 0xD8, 0x88, 0x31, 0x44, 0x48, 0x02,
;0xA0, 0x60, 0x00, 0x00, 0x00, 0x00, 0x00, 0x00,
;0x00, 0x00, 0x00, 0x80, 0xC0, 0xF8, 0xF8, 0xF8,
;0xF8, 0xFC, 0xFE, 0xFE, 0xFE, 0xFE, 0xFE, 0xFE,
;0xFE, 0xFE, 0xFE, 0xFE, 0xFE, 0xFF, 0xFF, 0xFF,
;0xFF, 0xFF, 0xF6, 0xEF, 0xD0, 0xF6, 0xAE, 0xAD,
;0xA9, 0x80, 0xD1, 0xD0, 0xE0, 0xF7, 0xF9, 0xFF,
;0xFF, 0xFC, 0xDC, 0xF0, 0x7F, 0xFF, 0xDF, 0xFF,
;0xFF, 0xFF, 0xFF, 0xFF, 0xFF, 0xFE, 0xFE, 0xFF,
;0xFF, 0xFF, 0xFF, 0xFF, 0xFF, 0xFF, 0xFE, 0xFF,
;0xFF, 0xFF, 0xFF, 0xFF, 0xFF, 0xFF, 0xFE, 0xFE,
;0xFE, 0xFE, 0xFE, 0xFE, 0xFE, 0xFE, 0xFE, 0xFE,
;0xFE, 0xFE, 0xFE, 0xFE, 0xFF, 0xFF, 0xFF, 0xFF,
;0xFF, 0xFF, 0xFE, 0xFF, 0xBE, 0xFF, 0xFF, 0xFD,
;0xF0, 0xEF, 0xDD, 0xDF, 0xFE, 0xA8, 0x88, 0xAA,
;0xC4, 0xD0, 0xE4, 0xE6, 0xF8, 0x7F, 0x7E, 0x9C,
;0xD8, 0xE0, 0xF0, 0xF0, 0xF2, 0xF2, 0xF0, 0xB1,
;0x20, 0x00, 0x00, 0x00, 0x00, 0x00, 0x00, 0x00,
;0x00, 0x00, 0x00, 0x01, 0x01, 0x01, 0x01, 0x03,
;0x03, 0x03, 0x07, 0x07, 0x07, 0x07, 0x07, 0x0F,
;0x0F, 0x0F, 0x07, 0x0F, 0x0F, 0x0F, 0x07, 0x07,
;0x0F, 0x0E, 0x0F, 0x0D, 0x0F, 0x2F, 0x2B, 0x2B,
;0x2B, 0x2B, 0x2B, 0x2F, 0x6F, 0xEF, 0xFF, 0xFD,
;0xFD, 0xFF, 0xFE, 0xFF, 0xFF, 0xFF, 0xFF, 0xFF,
;0xBF, 0xBF, 0xEF, 0xEF, 0xEF, 0xBF, 0xFF, 0xBF,
;0xFF, 0xFF, 0xFF, 0xFF, 0xFF, 0xFF, 0xFF, 0xFF,
;0xFF, 0xFF, 0xFF, 0xFF, 0xFF, 0xFF, 0xFF, 0xFF,
;0xFF, 0xFF, 0xFF, 0xFF, 0xFF, 0xFF, 0xFF, 0xFF,
;0xFF, 0xFF, 0xFF, 0xFF, 0x7F, 0x7F, 0x7F, 0x7F,
;0xFF, 0xFF, 0xBF, 0xBF, 0xBF, 0xBF, 0xFF, 0xFE,
;0xFF, 0xFD, 0xFF, 0xFF, 0xFF, 0xFB, 0xFF, 0xFF,
;0xFF, 0x7F, 0x7D, 0x3F, 0x1F, 0x1F, 0x1F, 0x1F,
;0x1F, 0x1F, 0x3F, 0x0F, 0x0F, 0x07, 0x07, 0x03,
;0x03, 0x03, 0x00, 0x00, 0x00, 0x00, 0x00, 0x00,
;0x00, 0x00, 0x00, 0x00, 0x00, 0x00, 0x00, 0x00,
;0x00, 0x00, 0x00, 0x00, 0x00, 0x00, 0x00, 0x00,
;0x00, 0x00, 0x00, 0x00, 0x00, 0x00, 0x00, 0x00,
;0x00, 0x00, 0x00, 0x00, 0x00, 0x00, 0x00, 0x00,
;0x00, 0x00, 0x00, 0x00, 0x00, 0x00, 0x00, 0x00,
;0x00, 0x00, 0x00, 0x00, 0x00, 0x01, 0x01, 0x00,
;0x01, 0x01, 0x00, 0x00, 0x00, 0x00, 0x00, 0x00,
;0x00, 0x00, 0x00, 0x00, 0x01, 0x01, 0x01, 0x01,
;0x01, 0x01, 0x01, 0x01, 0x03, 0x03, 0x03, 0x0B,
;0x0B, 0x0B, 0x0B, 0x07, 0x03, 0x0E, 0x06, 0x06,
;0x06, 0x02, 0x12, 0x13, 0x13, 0x03, 0x17, 0x15,
;0x15, 0x11, 0x01, 0x13, 0x13, 0x03, 0x06, 0x06,
;0x0E, 0x0F, 0x0F, 0x07, 0x0F, 0x0F, 0x0F, 0x0B,
;0x02, 0x00, 0x00, 0x00, 0x00, 0x00, 0x00, 0x00,
;0x00, 0x00, 0x00, 0x00, 0x00, 0x00, 0x00, 0x00,
;0x00, 0x00, 0x00, 0x00, 0x00, 0x00, 0x00, 0x00,
;#endif
;};
;

	.CSEG
_rtc_get_time:
; .FSTART _rtc_get_time
	CALL SUBOPT_0x2A
	LDI  R26,LOW(0)
	CALL SUBOPT_0x2B
	CALL SUBOPT_0x2C
	CALL SUBOPT_0x2D
	CALL SUBOPT_0x2E
	MOV  R26,R30
	CALL _bcd2bin
	LDD  R26,Y+4
	LDD  R27,Y+4+1
	ST   X,R30
	CALL _i2c_stop
	JMP  _0x2160014
; .FEND
_rtc_get_date:
; .FSTART _rtc_get_date
	CALL SUBOPT_0x2A
	LDI  R26,LOW(3)
	CALL SUBOPT_0x2B
	LDD  R26,Y+6
	LDD  R27,Y+6+1
	ST   X,R30
	CALL SUBOPT_0x2D
	LDD  R26,Y+4
	LDD  R27,Y+4+1
	ST   X,R30
	CALL SUBOPT_0x2D
	CALL SUBOPT_0x2E
	CALL SUBOPT_0x2C
	CALL _i2c_stop
	JMP  _0x216000B
; .FEND
	#ifndef __SLEEP_DEFINED__
	#define __SLEEP_DEFINED__
	.EQU __se_bit=0x80
	.EQU __sm_mask=0x70
	.EQU __sm_powerdown=0x20
	.EQU __sm_powersave=0x30
	.EQU __sm_standby=0x60
	.EQU __sm_ext_standby=0x70
	.EQU __sm_adc_noise_red=0x10
	.SET power_ctrl_reg=mcucr
	#endif

	.CSEG
_st7920_delay_G101:
; .FSTART _st7920_delay_G101
    nop
    nop
    nop
	RET
; .FEND
_st7920_wrbus_G101:
; .FSTART _st7920_wrbus_G101
	ST   -Y,R26
	CBI  0x1B,1
	SBI  0x1B,0
	IN   R30,0x1A
	ORI  R30,LOW(0xF0)
	OUT  0x1A,R30
	IN   R30,0x1B
	ANDI R30,LOW(0xF)
	MOV  R26,R30
	LD   R30,Y
	ANDI R30,LOW(0xF0)
	OR   R30,R26
	OUT  0x1B,R30
	RCALL _st7920_delay_G101
	CBI  0x1B,0
	IN   R30,0x1B
	ANDI R30,LOW(0xF)
	MOV  R26,R30
	LD   R30,Y
	SWAP R30
	ANDI R30,0xF0
	OR   R30,R26
	OUT  0x1B,R30
	CALL SUBOPT_0x2F
	CBI  0x1B,0
	RJMP _0x2160011
; .FEND
_st7920_rdbus_G101:
; .FSTART _st7920_rdbus_G101
	ST   -Y,R17
	SBI  0x1B,1
	IN   R30,0x1A
	ANDI R30,LOW(0xF)
	OUT  0x1A,R30
	SBI  0x1B,0
	RCALL _st7920_delay_G101
	IN   R30,0x19
	ANDI R30,LOW(0xF0)
	MOV  R17,R30
	CBI  0x1B,0
	CALL SUBOPT_0x2F
	IN   R30,0x19
	SWAP R30
	ANDI R30,0xF
	OR   R17,R30
	CBI  0x1B,0
	MOV  R30,R17
	RJMP _0x2160016
; .FEND
_st7920_busy_G101:
; .FSTART _st7920_busy_G101
	ST   -Y,R17
	CBI  0x1B,2
	SBI  0x1B,1
	IN   R30,0x1A
	ANDI R30,LOW(0xF)
	OUT  0x1A,R30
_0x2020004:
	SBI  0x1B,0
	RCALL _st7920_delay_G101
	IN   R30,0x19
	ANDI R30,LOW(0x80)
	LDI  R26,LOW(0)
	CALL __NEB12
	MOV  R17,R30
	CBI  0x1B,0
	CALL SUBOPT_0x2F
	CBI  0x1B,0
	RCALL _st7920_delay_G101
	CPI  R17,0
	BRNE _0x2020004
	__DELAY_USB 4
_0x2160016:
	LD   R17,Y+
	RET
; .FEND
_st7920_wrdata:
; .FSTART _st7920_wrdata
	ST   -Y,R26
	RCALL _st7920_busy_G101
	SBI  0x1B,2
	LD   R26,Y
	RCALL _st7920_wrbus_G101
	RJMP _0x2160011
; .FEND
_st7920_rddata:
; .FSTART _st7920_rddata
	RCALL _st7920_busy_G101
	SBI  0x1B,2
	RCALL _st7920_rdbus_G101
	RET
; .FEND
_st7920_wrcmd:
; .FSTART _st7920_wrcmd
	ST   -Y,R26
	RCALL _st7920_busy_G101
	LD   R26,Y
	RCALL _st7920_wrbus_G101
	RJMP _0x2160011
; .FEND
_st7920_setxy_G101:
; .FSTART _st7920_setxy_G101
	ST   -Y,R26
	LD   R30,Y
	ANDI R30,LOW(0x1F)
	ORI  R30,0x80
	MOV  R26,R30
	RCALL _st7920_wrcmd
	LD   R26,Y
	CPI  R26,LOW(0x20)
	BRLO _0x2020006
	LDD  R30,Y+1
	ORI  R30,0x80
	STD  Y+1,R30
_0x2020006:
	LDD  R30,Y+1
	SWAP R30
	ANDI R30,0xF
	ORI  R30,0x80
	MOV  R26,R30
	RCALL _st7920_wrcmd
	RJMP _0x216000F
; .FEND
_glcd_display:
; .FSTART _glcd_display
	ST   -Y,R26
	CALL SUBOPT_0x30
	LD   R30,Y
	CPI  R30,0
	BREQ _0x2020007
	LDI  R30,LOW(12)
	RJMP _0x2020008
_0x2020007:
	LDI  R30,LOW(8)
_0x2020008:
	MOV  R26,R30
	RCALL _st7920_wrcmd
	LD   R30,Y
	CPI  R30,0
	BREQ _0x202000A
	LDI  R30,LOW(2)
	RJMP _0x202000B
_0x202000A:
	LDI  R30,LOW(0)
_0x202000B:
	STS  _st7920_graphics_on_G101,R30
	CALL SUBOPT_0x30
	CALL SUBOPT_0x31
	RJMP _0x2160011
; .FEND
_glcd_cleartext:
; .FSTART _glcd_cleartext
	CALL SUBOPT_0x30
	LDI  R26,LOW(1)
	RCALL _st7920_wrcmd
	LDI  R30,LOW(0)
	STS  _yt_G101,R30
	STS  _xt_G101,R30
	ST   -Y,R30
	LDI  R26,LOW(0)
	RCALL _glcd_moveto
	RET
; .FEND
_glcd_cleargraphics:
; .FSTART _glcd_cleargraphics
	CALL __SAVELOCR4
	LDI  R19,0
	__GETB1MN _glcd_state,1
	CPI  R30,0
	BREQ _0x202000D
	LDI  R19,LOW(255)
_0x202000D:
	CALL SUBOPT_0x31
	LDI  R16,LOW(0)
_0x202000E:
	CPI  R16,64
	BRSH _0x2020010
	LDI  R30,LOW(0)
	ST   -Y,R30
	MOV  R26,R16
	SUBI R16,-1
	RCALL _st7920_setxy_G101
	LDI  R17,LOW(16)
_0x2020011:
	MOV  R30,R17
	SUBI R17,1
	CPI  R30,0
	BREQ _0x2020013
	MOV  R26,R19
	RCALL _st7920_wrdata
	__DELAY_USB 4
	RJMP _0x2020011
_0x2020013:
	RJMP _0x202000E
_0x2020010:
	LDI  R30,LOW(0)
	ST   -Y,R30
	LDI  R26,LOW(0)
	RCALL _glcd_moveto
	CALL __LOADLOCR4
_0x2160015:
	ADIW R28,4
	RET
; .FEND
_glcd_clear:
; .FSTART _glcd_clear
	RCALL _glcd_cleartext
	RCALL _glcd_cleargraphics
	RET
; .FEND
_glcd_init:
; .FSTART _glcd_init
	ST   -Y,R27
	ST   -Y,R26
	ST   -Y,R17
	SBI  0x1A,0
	CBI  0x1B,0
	SBI  0x1A,1
	SBI  0x1B,1
	SBI  0x1A,2
	CBI  0x1B,2
	SBI  0x1A,3
	LDI  R26,LOW(50)
	LDI  R27,0
	CALL _delay_ms
	CBI  0x1B,3
	LDI  R26,LOW(1)
	LDI  R27,0
	CALL _delay_ms
	SBI  0x1B,3
	LDI  R26,LOW(1)
	LDI  R27,0
	CALL _delay_ms
	CBI  0x1B,1
	IN   R30,0x1A
	ORI  R30,LOW(0xF0)
	OUT  0x1A,R30
	LDI  R17,LOW(0)
_0x2020015:
	CPI  R17,6
	BRSH _0x2020016
	SBI  0x1B,0
	IN   R30,0x1B
	ANDI R30,LOW(0xF)
	MOV  R26,R30
	MOV  R30,R17
	LDI  R31,0
	SUBI R30,LOW(-_st7920_init_4bit_G101*2)
	SBCI R31,HIGH(-_st7920_init_4bit_G101*2)
	LPM  R30,Z
	OR   R30,R26
	OUT  0x1B,R30
	__DELAY_USB 18
	CBI  0x1B,0
	__DELAY_USW 553
	SUBI R17,-1
	RJMP _0x2020015
_0x2020016:
	LDI  R26,LOW(8)
	RCALL _st7920_wrbus_G101
	__DELAY_USW 553
	LDI  R26,LOW(1)
	RCALL _st7920_wrcmd
	LDI  R26,LOW(15)
	LDI  R27,0
	CALL _delay_ms
	LDI  R30,LOW(0)
	STS  _yt_G101,R30
	STS  _xt_G101,R30
	LDI  R26,LOW(6)
	RCALL _st7920_wrcmd
	LDI  R26,LOW(36)
	RCALL _st7920_wrcmd
	LDI  R26,LOW(64)
	RCALL _st7920_wrcmd
	LDI  R26,LOW(2)
	RCALL _st7920_wrcmd
	LDI  R30,LOW(0)
	STS  _st7920_graphics_on_G101,R30
	RCALL _glcd_cleargraphics
	LDI  R26,LOW(1)
	RCALL _glcd_display
	CALL SUBOPT_0x8
	LDI  R30,LOW(1)
	__PUTB1MN _glcd_state,6
	__PUTB1MN _glcd_state,7
	LDD  R30,Y+1
	LDD  R31,Y+1+1
	SBIW R30,0
	BREQ _0x2020017
	LDD  R26,Y+1
	LDD  R27,Y+1+1
	CALL __GETW1P
	CALL SUBOPT_0x6
	LDD  R26,Y+1
	LDD  R27,Y+1+1
	ADIW R26,2
	CALL __GETW1P
	__PUTW1MN _glcd_state,25
	LDD  R26,Y+1
	LDD  R27,Y+1+1
	ADIW R26,4
	CALL __GETW1P
	RJMP _0x20200A6
_0x2020017:
	LDI  R30,LOW(0)
	LDI  R31,HIGH(0)
	CALL SUBOPT_0x6
	LDI  R30,LOW(0)
	LDI  R31,HIGH(0)
	__PUTW1MN _glcd_state,25
_0x20200A6:
	__PUTW1MN _glcd_state,27
	LDI  R30,LOW(1)
	__PUTB1MN _glcd_state,8
	LDI  R30,LOW(255)
	__PUTB1MN _glcd_state,9
	LDI  R30,LOW(1)
	__PUTB1MN _glcd_state,16
	__POINTW1MN _glcd_state,17
	ST   -Y,R31
	ST   -Y,R30
	LDI  R30,LOW(255)
	ST   -Y,R30
	LDI  R26,LOW(8)
	LDI  R27,0
	CALL _memset
	LDI  R30,LOW(1)
	RJMP _0x216000D
; .FEND
_st7920_rdbyte_G101:
; .FSTART _st7920_rdbyte_G101
	ST   -Y,R26
	LDD  R30,Y+1
	ST   -Y,R30
	LDD  R26,Y+1
	RCALL _st7920_setxy_G101
	RCALL _st7920_rddata
	LDD  R30,Y+1
	ANDI R30,LOW(0xF)
	CPI  R30,LOW(0x8)
	BRLO _0x2020019
	RCALL _st7920_rddata
	STS  _st7920_bits8_15_G101,R30
_0x2020019:
	RCALL _st7920_rddata
	RJMP _0x216000F
; .FEND
_st7920_wrbyte_G101:
; .FSTART _st7920_wrbyte_G101
	ST   -Y,R26
	LDD  R30,Y+2
	ST   -Y,R30
	LDD  R26,Y+2
	RCALL _st7920_setxy_G101
	LDD  R30,Y+2
	ANDI R30,LOW(0xF)
	CPI  R30,LOW(0x8)
	BRLO _0x202001A
	LDS  R26,_st7920_bits8_15_G101
	RCALL _st7920_wrdata
_0x202001A:
	LD   R26,Y
	RCALL _st7920_wrdata
	RJMP _0x216000E
; .FEND
_glcd_putpixel:
; .FSTART _glcd_putpixel
	ST   -Y,R26
	ST   -Y,R17
	ST   -Y,R16
	LDD  R26,Y+4
	CPI  R26,LOW(0x80)
	BRSH _0x202001C
	LDD  R26,Y+3
	CPI  R26,LOW(0x40)
	BRLO _0x202001B
_0x202001C:
	RJMP _0x2160012
_0x202001B:
	CALL SUBOPT_0x31
	LDD  R30,Y+4
	ST   -Y,R30
	LDD  R26,Y+4
	RCALL _st7920_rdbyte_G101
	MOV  R17,R30
	LDD  R30,Y+4
	ANDI R30,LOW(0x7)
	LDI  R26,LOW(7)
	CALL __SWAPB12
	SUB  R30,R26
	LDI  R26,LOW(1)
	CALL __LSLB12
	MOV  R16,R30
	LDD  R30,Y+2
	CPI  R30,0
	BREQ _0x202001E
	OR   R17,R16
	RJMP _0x202001F
_0x202001E:
	MOV  R30,R16
	COM  R30
	AND  R17,R30
_0x202001F:
	LDD  R30,Y+4
	ST   -Y,R30
	LDD  R30,Y+4
	ST   -Y,R30
	MOV  R26,R17
	RCALL _st7920_wrbyte_G101
	RJMP _0x2160012
; .FEND
_st7920_wrmasked_G101:
; .FSTART _st7920_wrmasked_G101
	ST   -Y,R26
	ST   -Y,R17
	CALL SUBOPT_0x31
	LDD  R30,Y+5
	ST   -Y,R30
	LDD  R26,Y+5
	CALL SUBOPT_0x32
	MOV  R17,R30
	LDD  R30,Y+1
	CPI  R30,LOW(0x7)
	BREQ _0x202002A
	CPI  R30,LOW(0x8)
	BRNE _0x202002B
_0x202002A:
	LDD  R30,Y+3
	ST   -Y,R30
	LDD  R26,Y+2
	CALL _glcd_mappixcolor1bit
	STD  Y+3,R30
	RJMP _0x202002C
_0x202002B:
	CPI  R30,LOW(0x3)
	BRNE _0x202002E
	LDD  R30,Y+3
	COM  R30
	STD  Y+3,R30
	RJMP _0x202002F
_0x202002E:
	CPI  R30,0
	BRNE _0x2020030
_0x202002F:
	RJMP _0x2020031
_0x2020030:
	CPI  R30,LOW(0x9)
	BRNE _0x2020032
_0x2020031:
	RJMP _0x2020033
_0x2020032:
	CPI  R30,LOW(0xA)
	BRNE _0x2020034
_0x2020033:
_0x202002C:
	LDD  R30,Y+2
	COM  R30
	AND  R17,R30
	RJMP _0x2020035
_0x2020034:
	CPI  R30,LOW(0x2)
	BRNE _0x2020036
_0x2020035:
	LDD  R30,Y+2
	LDD  R26,Y+3
	AND  R30,R26
	OR   R17,R30
	RJMP _0x2020028
_0x2020036:
	CPI  R30,LOW(0x1)
	BRNE _0x2020037
	LDD  R30,Y+2
	LDD  R26,Y+3
	AND  R30,R26
	EOR  R17,R30
	RJMP _0x2020028
_0x2020037:
	CPI  R30,LOW(0x4)
	BRNE _0x2020028
	LDD  R30,Y+2
	COM  R30
	LDD  R26,Y+3
	OR   R30,R26
	AND  R17,R30
_0x2020028:
	LDD  R30,Y+5
	ST   -Y,R30
	LDD  R30,Y+5
	ST   -Y,R30
	MOV  R26,R17
	CALL _glcd_revbits
	MOV  R26,R30
	RCALL _st7920_wrbyte_G101
	LDD  R17,Y+0
_0x2160014:
	ADIW R28,6
	RET
; .FEND
_glcd_block:
; .FSTART _glcd_block
	ST   -Y,R26
	SBIW R28,7
	CALL __SAVELOCR6
	LDD  R26,Y+20
	CPI  R26,LOW(0x80)
	BRSH _0x202003A
	LDD  R26,Y+19
	CPI  R26,LOW(0x40)
	BRSH _0x202003A
	LDD  R26,Y+18
	CPI  R26,LOW(0x0)
	BREQ _0x202003A
	LDD  R26,Y+17
	CPI  R26,LOW(0x0)
	BRNE _0x2020039
_0x202003A:
	RJMP _0x2160013
_0x2020039:
	LDD  R30,Y+18
	LSR  R30
	LSR  R30
	LSR  R30
	MOV  R18,R30
	__PUTBSR 18,8
	LDD  R30,Y+18
	ANDI R30,LOW(0x7)
	STD  Y+11,R30
	CPI  R30,0
	BREQ _0x202003C
	LDD  R30,Y+8
	SUBI R30,-LOW(1)
	STD  Y+8,R30
_0x202003C:
	LDD  R16,Y+18
	LDD  R26,Y+20
	CLR  R27
	LDD  R30,Y+18
	LDI  R31,0
	ADD  R26,R30
	ADC  R27,R31
	CPI  R26,LOW(0x81)
	LDI  R30,HIGH(0x81)
	CPC  R27,R30
	BRLO _0x202003D
	LDD  R26,Y+20
	LDI  R30,LOW(128)
	SUB  R30,R26
	STD  Y+18,R30
_0x202003D:
	LDD  R30,Y+17
	STD  Y+10,R30
	LDD  R26,Y+19
	CLR  R27
	LDD  R30,Y+17
	LDI  R31,0
	ADD  R26,R30
	ADC  R27,R31
	CPI  R26,LOW(0x41)
	LDI  R30,HIGH(0x41)
	CPC  R27,R30
	BRLO _0x202003E
	LDD  R26,Y+19
	LDI  R30,LOW(64)
	SUB  R30,R26
	STD  Y+17,R30
_0x202003E:
	LDD  R30,Y+13
	CPI  R30,LOW(0x6)
	BREQ PC+2
	RJMP _0x2020042
	LDD  R30,Y+16
	CPI  R30,LOW(0x1)
	BRNE _0x2020046
	RJMP _0x2160013
_0x2020046:
	CPI  R30,LOW(0x3)
	BRNE _0x2020049
	__GETW1MN _glcd_state,27
	SBIW R30,0
	BRNE _0x2020048
	RJMP _0x2160013
_0x2020048:
_0x2020049:
	LDD  R30,Y+11
	CPI  R30,0
	BRNE _0x202004B
	LDD  R26,Y+18
	CP   R16,R26
	BREQ _0x202004A
_0x202004B:
	MOV  R30,R18
	LDD  R26,Y+14
	LDD  R27,Y+14+1
	LDI  R31,0
	CALL SUBOPT_0x33
	LDD  R17,Y+17
_0x202004D:
	CPI  R17,0
	BREQ _0x202004F
	MOV  R19,R18
_0x2020050:
	PUSH R19
	SUBI R19,-1
	LDD  R30,Y+8
	POP  R26
	CP   R26,R30
	BRSH _0x2020052
	CALL SUBOPT_0x34
	RJMP _0x2020050
_0x2020052:
	MOV  R30,R18
	LDD  R26,Y+6
	LDD  R27,Y+6+1
	LDI  R31,0
	CALL SUBOPT_0x33
	SUBI R17,LOW(1)
	RJMP _0x202004D
_0x202004F:
_0x202004A:
	LDD  R18,Y+17
	LDD  R30,Y+10
	CP   R30,R18
	BREQ _0x2020053
	MOV  R26,R18
	CLR  R27
	LDD  R30,Y+8
	LDI  R31,0
	CALL __MULW12U
	LDD  R26,Y+14
	LDD  R27,Y+14+1
	CALL SUBOPT_0x33
_0x2020054:
	PUSH R18
	SUBI R18,-1
	LDD  R30,Y+10
	POP  R26
	CP   R26,R30
	BRSH _0x2020056
	LDI  R19,LOW(0)
_0x2020057:
	PUSH R19
	SUBI R19,-1
	LDD  R30,Y+8
	POP  R26
	CP   R26,R30
	BRSH _0x2020059
	CALL SUBOPT_0x34
	RJMP _0x2020057
_0x2020059:
	RJMP _0x2020054
_0x2020056:
_0x2020053:
	RJMP _0x2020041
_0x2020042:
	CPI  R30,LOW(0x9)
	BRNE _0x202005A
	LDI  R30,LOW(0)
	RJMP _0x20200A7
_0x202005A:
	CPI  R30,LOW(0xA)
	BRNE _0x2020041
	LDI  R30,LOW(255)
_0x20200A7:
	STD  Y+10,R30
	ST   -Y,R30
	LDD  R26,Y+14
	CALL _glcd_mappixcolor1bit
	STD  Y+10,R30
_0x2020041:
	LDD  R30,Y+20
	ANDI R30,LOW(0x7)
	MOV  R19,R30
	LDI  R30,LOW(8)
	SUB  R30,R19
	MOV  R18,R30
	MOV  R21,R18
	LDD  R26,Y+18
	CP   R18,R26
	BRLO _0x202005E
	LDD  R21,Y+18
	RJMP _0x202005F
_0x202005E:
	CPI  R19,0
	BREQ _0x2020060
	MOV  R20,R19
	LDD  R26,Y+18
	CPI  R26,LOW(0x9)
	BRSH _0x2020061
	LDD  R30,Y+18
	SUB  R30,R18
	MOV  R20,R30
_0x2020061:
	MOV  R30,R20
	LDI  R31,0
	SUBI R30,LOW(-__glcd_mask*2)
	SBCI R31,HIGH(-__glcd_mask*2)
	LPM  R20,Z
_0x2020060:
_0x202005F:
	ST   -Y,R19
	MOV  R26,R21
	CALL _glcd_getmask
	MOV  R21,R30
	LDD  R26,Y+11
	CP   R18,R26
	BRSH _0x2020062
	LDD  R30,Y+11
	SUB  R30,R18
	STD  Y+11,R30
_0x2020062:
	LDD  R30,Y+11
	LDI  R31,0
	SUBI R30,LOW(-__glcd_mask*2)
	SBCI R31,HIGH(-__glcd_mask*2)
	LPM  R0,Z
	STD  Y+12,R0
	CALL SUBOPT_0x31
_0x2020063:
	LDD  R30,Y+17
	SUBI R30,LOW(1)
	STD  Y+17,R30
	SUBI R30,-LOW(1)
	BRNE PC+2
	RJMP _0x2020065
	LDI  R17,LOW(0)
	LDD  R16,Y+20
	LDD  R30,Y+14
	LDD  R31,Y+14+1
	STD  Y+6,R30
	STD  Y+6+1,R31
	CPI  R19,0
	BRNE PC+2
	RJMP _0x2020066
	__PUTBSR 20,11
	LDD  R26,Y+13
	CPI  R26,LOW(0x6)
	BREQ PC+2
	RJMP _0x2020067
_0x2020068:
	LDD  R30,Y+18
	CP   R17,R30
	BRLO PC+2
	RJMP _0x202006A
	ST   -Y,R16
	LDD  R26,Y+20
	CALL SUBOPT_0x32
	AND  R30,R21
	MOV  R26,R30
	MOV  R30,R19
	CALL __LSRB12
	STD  Y+9,R30
	CALL SUBOPT_0x35
	MOV  R1,R30
	MOV  R30,R19
	MOV  R26,R21
	CALL __LSRB12
	COM  R30
	AND  R30,R1
	LDD  R26,Y+9
	OR   R30,R26
	STD  Y+9,R30
	LDD  R26,Y+18
	CP   R18,R26
	BRSH _0x202006C
	MOV  R30,R16
	LSR  R30
	LSR  R30
	LSR  R30
	CPI  R30,LOW(0xF)
	BRLO _0x202006B
_0x202006C:
	CALL SUBOPT_0x36
	ST   -Y,R31
	ST   -Y,R30
	LDD  R26,Y+12
	CALL _glcd_writemem
	RJMP _0x202006A
_0x202006B:
	LDD  R26,Y+18
	SUB  R26,R17
	CPI  R26,LOW(0x8)
	BRSH _0x202006E
	LDD  R30,Y+12
	STD  Y+11,R30
_0x202006E:
	SUBI R16,-LOW(8)
	ST   -Y,R16
	LDD  R26,Y+20
	CALL SUBOPT_0x32
	LDD  R26,Y+11
	AND  R30,R26
	MOV  R26,R30
	MOV  R30,R18
	CALL __LSLB12
	STD  Y+10,R30
	MOV  R30,R18
	LDD  R26,Y+11
	CALL __LSLB12
	COM  R30
	LDD  R26,Y+9
	AND  R30,R26
	LDD  R26,Y+10
	OR   R30,R26
	STD  Y+10,R30
	CALL SUBOPT_0x36
	ADIW R30,1
	STD  Y+7,R30
	STD  Y+7+1,R31
	SBIW R30,1
	ST   -Y,R31
	ST   -Y,R30
	LDD  R26,Y+13
	CALL _glcd_writemem
	SUBI R17,-LOW(8)
	RJMP _0x2020068
_0x202006A:
	RJMP _0x202006F
_0x2020067:
_0x2020070:
	LDD  R30,Y+18
	CP   R17,R30
	BRSH _0x2020072
	LDD  R30,Y+13
	CPI  R30,LOW(0x9)
	BREQ _0x2020077
	CPI  R30,LOW(0xA)
	BRNE _0x2020079
_0x2020077:
	RJMP _0x2020075
_0x2020079:
	CALL SUBOPT_0x36
	ADIW R30,1
	STD  Y+7,R30
	STD  Y+7+1,R31
	SBIW R30,1
	CLR  R22
	CLR  R23
	MOVW R26,R30
	MOVW R24,R22
	CALL _glcd_readmem
	STD  Y+10,R30
_0x2020075:
	ST   -Y,R16
	LDD  R30,Y+20
	ST   -Y,R30
	MOV  R30,R19
	LDD  R26,Y+12
	CALL __LSLB12
	ST   -Y,R30
	ST   -Y,R21
	LDD  R26,Y+17
	RCALL _st7920_wrmasked_G101
	LDD  R26,Y+18
	CP   R18,R26
	BRSH _0x2020072
	MOV  R30,R16
	LSR  R30
	LSR  R30
	LSR  R30
	CPI  R30,LOW(0xF)
	BRSH _0x2020072
	SUB  R26,R17
	CPI  R26,LOW(0x8)
	BRSH _0x202007C
	LDD  R30,Y+12
	STD  Y+11,R30
_0x202007C:
	SUBI R16,-LOW(8)
	ST   -Y,R16
	LDD  R30,Y+20
	ST   -Y,R30
	MOV  R30,R18
	LDD  R26,Y+12
	CALL __LSRB12
	CALL SUBOPT_0x37
	SUBI R17,-LOW(8)
	RJMP _0x2020070
_0x2020072:
_0x202006F:
	RJMP _0x202007D
_0x2020066:
	__PUTBSR 21,11
_0x202007E:
	LDD  R30,Y+18
	CP   R17,R30
	BRSH _0x2020080
	LDD  R26,Y+18
	SUB  R26,R17
	CPI  R26,LOW(0x8)
	BRSH _0x2020081
	LDD  R30,Y+12
	STD  Y+11,R30
_0x2020081:
	LDD  R30,Y+13
	CPI  R30,LOW(0x9)
	BREQ _0x2020086
	CPI  R30,LOW(0xA)
	BRNE _0x2020088
_0x2020086:
	RJMP _0x2020084
_0x2020088:
	LDD  R26,Y+13
	CPI  R26,LOW(0x6)
	BRNE _0x202008A
	LDD  R26,Y+11
	CPI  R26,LOW(0xFF)
	BREQ _0x2020089
_0x202008A:
	CALL SUBOPT_0x35
	STD  Y+10,R30
_0x2020089:
_0x2020084:
	LDD  R26,Y+13
	CPI  R26,LOW(0x6)
	BRNE _0x202008C
	CALL SUBOPT_0x36
	ST   -Y,R31
	ST   -Y,R30
	ST   -Y,R16
	LDD  R26,Y+23
	CALL SUBOPT_0x32
	LDD  R26,Y+14
	AND  R30,R26
	MOV  R0,R30
	LDD  R30,Y+14
	COM  R30
	LDD  R26,Y+13
	AND  R30,R26
	OR   R30,R0
	MOV  R26,R30
	CALL _glcd_writemem
	RJMP _0x202008D
_0x202008C:
	ST   -Y,R16
	LDD  R30,Y+20
	ST   -Y,R30
	LDD  R30,Y+12
	CALL SUBOPT_0x37
_0x202008D:
	LDD  R30,Y+6
	LDD  R31,Y+6+1
	ADIW R30,1
	STD  Y+6,R30
	STD  Y+6+1,R31
	SUBI R16,-LOW(8)
	SUBI R17,-LOW(8)
	RJMP _0x202007E
_0x2020080:
_0x202007D:
	LDD  R30,Y+19
	SUBI R30,-LOW(1)
	STD  Y+19,R30
	LDD  R30,Y+8
	LDD  R26,Y+14
	LDD  R27,Y+14+1
	LDI  R31,0
	ADD  R30,R26
	ADC  R31,R27
	STD  Y+14,R30
	STD  Y+14+1,R31
	RJMP _0x2020063
_0x2020065:
_0x2160013:
	CALL __LOADLOCR6
	ADIW R28,21
	RET
; .FEND
_lcd_gotoxy:
; .FSTART _lcd_gotoxy
	ST   -Y,R26
	LDD  R26,Y+1
	CPI  R26,LOW(0x10)
	BRLO _0x202008E
	LDI  R30,LOW(15)
	STD  Y+1,R30
_0x202008E:
	LD   R26,Y
	CPI  R26,LOW(0x4)
	BRLO _0x202008F
	LDI  R30,LOW(3)
	ST   Y,R30
_0x202008F:
	CALL SUBOPT_0x30
	LD   R30,Y
	LDI  R31,0
	SUBI R30,LOW(-_st7920_base_y_G101*2)
	SBCI R31,HIGH(-_st7920_base_y_G101*2)
	LPM  R26,Z
	LDD  R30,Y+1
	LSR  R30
	OR   R30,R26
	MOV  R26,R30
	RCALL _st7920_wrcmd
	LDD  R30,Y+1
	STS  _xt_G101,R30
	LD   R30,Y
	STS  _yt_G101,R30
	RJMP _0x216000F
; .FEND
_glcd_putcharcg:
; .FSTART _glcd_putcharcg
	ST   -Y,R26
	ST   -Y,R17
	ST   -Y,R16
	LDD  R26,Y+4
	CPI  R26,LOW(0x10)
	BRLO _0x2020090
	LDI  R30,LOW(15)
	STD  Y+4,R30
_0x2020090:
	LDD  R26,Y+3
	CPI  R26,LOW(0x4)
	BRLO _0x2020091
	LDI  R30,LOW(3)
	STD  Y+3,R30
_0x2020091:
	LDD  R30,Y+3
	LDI  R31,0
	SUBI R30,LOW(-_st7920_base_y_G101*2)
	SBCI R31,HIGH(-_st7920_base_y_G101*2)
	LPM  R26,Z
	LDD  R30,Y+4
	LSR  R30
	OR   R30,R26
	MOV  R17,R30
	CALL SUBOPT_0x30
	MOV  R26,R17
	RCALL _st7920_wrcmd
	RCALL _st7920_rddata
	LDD  R30,Y+4
	ANDI R30,LOW(0x1)
	BREQ _0x2020092
	RCALL _st7920_rddata
	MOV  R16,R30
_0x2020092:
	MOV  R26,R17
	RCALL _st7920_wrcmd
	LDD  R30,Y+4
	ANDI R30,LOW(0x1)
	BREQ _0x2020093
	MOV  R26,R16
	RCALL _st7920_wrdata
_0x2020093:
	LDD  R26,Y+2
	RCALL _st7920_wrdata
_0x2160012:
	LDD  R17,Y+1
	LDD  R16,Y+0
	ADIW R28,5
	RET
; .FEND
_lcd_putchar:
; .FSTART _lcd_putchar
	ST   -Y,R26
	LD   R26,Y
	CPI  R26,LOW(0xA)
	BREQ _0x2020098
	LDS  R26,_xt_G101
	CPI  R26,LOW(0x10)
	BRLO _0x2020097
_0x2020098:
	LDI  R30,LOW(0)
	STS  _xt_G101,R30
	LDS  R26,_yt_G101
	SUBI R26,-LOW(1)
	STS  _yt_G101,R26
	CPI  R26,LOW(0x4)
	BRLO _0x202009A
	STS  _yt_G101,R30
_0x202009A:
_0x2020097:
	LD   R26,Y
	CPI  R26,LOW(0xA)
	BRNE _0x202009B
	LDS  R30,_xt_G101
	ST   -Y,R30
	LDS  R26,_yt_G101
	RCALL _lcd_gotoxy
	RJMP _0x202009C
_0x202009B:
	LDS  R30,_xt_G101
	SUBI R30,-LOW(1)
	STS  _xt_G101,R30
	SUBI R30,LOW(1)
	ST   -Y,R30
	LDS  R30,_yt_G101
	ST   -Y,R30
	LDD  R26,Y+2
	RCALL _glcd_putcharcg
_0x202009C:
_0x2160011:
	ADIW R28,1
	RET
; .FEND
_lcd_puts:
; .FSTART _lcd_puts
	ST   -Y,R27
	ST   -Y,R26
	ST   -Y,R17
_0x202009D:
	CALL SUBOPT_0x38
	BREQ _0x202009F
	MOV  R26,R17
	RCALL _lcd_putchar
	RJMP _0x202009D
_0x202009F:
	RJMP _0x216000D
; .FEND

	.CSEG
_glcd_clipx:
; .FSTART _glcd_clipx
	CALL SUBOPT_0x39
	BRLT _0x2040003
	LDI  R30,LOW(0)
	LDI  R31,HIGH(0)
	RJMP _0x216000F
_0x2040003:
	LD   R26,Y
	LDD  R27,Y+1
	CPI  R26,LOW(0x80)
	LDI  R30,HIGH(0x80)
	CPC  R27,R30
	BRLT _0x2040004
	LDI  R30,LOW(127)
	LDI  R31,HIGH(127)
	RJMP _0x216000F
_0x2040004:
	RJMP _0x2160010
; .FEND
_glcd_clipy:
; .FSTART _glcd_clipy
	CALL SUBOPT_0x39
	BRLT _0x2040005
	LDI  R30,LOW(0)
	LDI  R31,HIGH(0)
	RJMP _0x216000F
_0x2040005:
	LD   R26,Y
	LDD  R27,Y+1
	CPI  R26,LOW(0x40)
	LDI  R30,HIGH(0x40)
	CPC  R27,R30
	BRLT _0x2040006
	LDI  R30,LOW(63)
	LDI  R31,HIGH(63)
	RJMP _0x216000F
_0x2040006:
_0x2160010:
	LD   R30,Y
	LDD  R31,Y+1
_0x216000F:
	ADIW R28,2
	RET
; .FEND
_glcd_imagesize:
; .FSTART _glcd_imagesize
	ST   -Y,R26
	ST   -Y,R17
	LDD  R26,Y+2
	CPI  R26,LOW(0x80)
	BRSH _0x2040008
	LDD  R26,Y+1
	CPI  R26,LOW(0x40)
	BRLO _0x2040007
_0x2040008:
	__GETD1N 0x0
	RJMP _0x216000D
_0x2040007:
	LDD  R30,Y+2
	ANDI R30,LOW(0x7)
	MOV  R17,R30
	LDD  R30,Y+2
	LSR  R30
	LSR  R30
	LSR  R30
	STD  Y+2,R30
	CPI  R17,0
	BREQ _0x204000A
	SUBI R30,-LOW(1)
	STD  Y+2,R30
_0x204000A:
	LDD  R26,Y+2
	CLR  R27
	CLR  R24
	CLR  R25
	LDD  R30,Y+1
	CLR  R31
	CLR  R22
	CLR  R23
	CALL __MULD12U
	__ADDD1N 4
_0x216000D:
	LDD  R17,Y+0
_0x216000E:
	ADIW R28,3
	RET
; .FEND
_glcd_getcharw_G102:
; .FSTART _glcd_getcharw_G102
	ST   -Y,R27
	ST   -Y,R26
	SBIW R28,3
	CALL SUBOPT_0x3A
	MOVW R16,R30
	MOV  R0,R16
	OR   R0,R17
	BRNE _0x204000B
	LDI  R30,LOW(0)
	LDI  R31,HIGH(0)
	RJMP _0x216000C
_0x204000B:
	CALL SUBOPT_0x3B
	STD  Y+7,R0
	CALL SUBOPT_0x3B
	STD  Y+6,R0
	CALL SUBOPT_0x3B
	STD  Y+8,R0
	LDD  R30,Y+11
	LDD  R26,Y+8
	CP   R30,R26
	BRSH _0x204000C
	LDI  R30,LOW(0)
	LDI  R31,HIGH(0)
	RJMP _0x216000C
_0x204000C:
	MOVW R30,R16
	__ADDWRN 16,17,1
	LPM  R21,Z
	LDD  R26,Y+8
	CLR  R27
	CLR  R30
	ADD  R26,R21
	ADC  R27,R30
	LDD  R30,Y+11
	LDI  R31,0
	CP   R30,R26
	CPC  R31,R27
	BRLO _0x204000D
	LDI  R30,LOW(0)
	LDI  R31,HIGH(0)
	RJMP _0x216000C
_0x204000D:
	LDD  R30,Y+7
	CPI  R30,0
	BREQ _0x204000E
	LDD  R26,Y+9
	LDD  R27,Y+9+1
	ST   X,R30
	LSR  R30
	LSR  R30
	LSR  R30
	MOV  R20,R30
	LDD  R30,Y+7
	ANDI R30,LOW(0x7)
	BREQ _0x204000F
	SUBI R20,-LOW(1)
_0x204000F:
	LDD  R26,Y+8
	LDD  R30,Y+11
	SUB  R30,R26
	LDI  R31,0
	MOVW R26,R30
	LDD  R30,Y+6
	LDI  R31,0
	CALL __MULW12U
	MOVW R26,R30
	MOV  R30,R20
	LDI  R31,0
	CALL __MULW12U
	ADD  R30,R16
	ADC  R31,R17
	RJMP _0x216000C
_0x204000E:
	MOVW R18,R16
	MOV  R30,R21
	LDI  R31,0
	__ADDWRR 16,17,30,31
_0x2040010:
	LDD  R26,Y+8
	SUBI R26,-LOW(1)
	STD  Y+8,R26
	SUBI R26,LOW(1)
	LDD  R30,Y+11
	CP   R26,R30
	BRSH _0x2040012
	MOVW R30,R18
	LPM  R30,Z
	LSR  R30
	LSR  R30
	LSR  R30
	MOV  R20,R30
	MOVW R30,R18
	__ADDWRN 18,19,1
	LPM  R30,Z
	ANDI R30,LOW(0x7)
	BREQ _0x2040013
	SUBI R20,-LOW(1)
_0x2040013:
	LDD  R26,Y+6
	CLR  R27
	MOV  R30,R20
	LDI  R31,0
	CALL __MULW12U
	__ADDWRR 16,17,30,31
	RJMP _0x2040010
_0x2040012:
	MOVW R30,R18
	LPM  R30,Z
	LDD  R26,Y+9
	LDD  R27,Y+9+1
	ST   X,R30
	MOVW R30,R16
_0x216000C:
	CALL __LOADLOCR6
	ADIW R28,12
	RET
; .FEND
_glcd_new_line_G102:
; .FSTART _glcd_new_line_G102
	LDI  R30,LOW(0)
	__PUTB1MN _glcd_state,2
	__GETB2MN _glcd_state,3
	CLR  R27
	CALL SUBOPT_0x3C
	LDI  R31,0
	ADD  R26,R30
	ADC  R27,R31
	__GETB1MN _glcd_state,7
	LDI  R31,0
	ADD  R26,R30
	ADC  R27,R31
	CALL SUBOPT_0x3D
	RET
; .FEND
_glcd_putchar:
; .FSTART _glcd_putchar
	ST   -Y,R26
	SBIW R28,1
	CALL SUBOPT_0x3A
	SBIW R30,0
	BRNE PC+2
	RJMP _0x2040020
	LDD  R26,Y+7
	CPI  R26,LOW(0xA)
	BRNE _0x2040021
	RJMP _0x2040022
_0x2040021:
	LDD  R30,Y+7
	ST   -Y,R30
	MOVW R26,R28
	ADIW R26,7
	RCALL _glcd_getcharw_G102
	MOVW R20,R30
	SBIW R30,0
	BRNE _0x2040023
	RJMP _0x216000A
_0x2040023:
	__GETB1MN _glcd_state,6
	LDD  R26,Y+6
	ADD  R30,R26
	MOV  R19,R30
	__GETB2MN _glcd_state,2
	CLR  R27
	LDI  R31,0
	ADD  R30,R26
	ADC  R31,R27
	MOVW R16,R30
	__CPWRN 16,17,129
	BRLO _0x2040024
	MOV  R16,R19
	CLR  R17
	RCALL _glcd_new_line_G102
_0x2040024:
	CALL SUBOPT_0x3E
	LDD  R30,Y+8
	ST   -Y,R30
	CALL SUBOPT_0x3C
	ST   -Y,R30
	LDI  R30,LOW(1)
	ST   -Y,R30
	ST   -Y,R21
	ST   -Y,R20
	LDI  R26,LOW(7)
	CALL SUBOPT_0x3F
	LDD  R26,Y+6
	ADD  R30,R26
	ST   -Y,R30
	__GETB1MN _glcd_state,3
	ST   -Y,R30
	__GETB1MN _glcd_state,6
	ST   -Y,R30
	CALL SUBOPT_0x3C
	CALL SUBOPT_0x40
	CALL SUBOPT_0x3F
	ST   -Y,R30
	__GETB2MN _glcd_state,3
	CALL SUBOPT_0x3C
	ADD  R30,R26
	ST   -Y,R30
	ST   -Y,R19
	__GETB1MN _glcd_state,7
	CALL SUBOPT_0x40
	RCALL _glcd_block
	LDI  R30,LOW(128)
	LDI  R31,HIGH(128)
	CP   R30,R16
	CPC  R31,R17
	BRNE _0x2040025
_0x2040022:
	RCALL _glcd_new_line_G102
	RJMP _0x216000A
_0x2040025:
	RJMP _0x2040026
_0x2040020:
	LDD  R26,Y+7
	CPI  R26,LOW(0xA)
	BREQ _0x2040028
	__GETB1MN _glcd_state,2
	LSR  R30
	LSR  R30
	LSR  R30
	MOV  R19,R30
	__GETB1MN _glcd_state,3
	SWAP R30
	ANDI R30,0xF
	MOV  R18,R30
	ST   -Y,R19
	ST   -Y,R18
	LDD  R26,Y+9
	RCALL _glcd_putcharcg
	MOV  R30,R19
	LSL  R30
	LSL  R30
	LSL  R30
	__PUTB1MN _glcd_state,2
	LDI  R26,LOW(16)
	MUL  R18,R26
	MOVW R30,R0
	__PUTB1MN _glcd_state,3
	CALL SUBOPT_0x3E
	LDI  R30,LOW(8)
	ST   -Y,R30
	LDI  R30,LOW(16)
	CALL SUBOPT_0x40
	CALL SUBOPT_0x3F
	LDI  R31,0
	ADIW R30,8
	MOVW R16,R30
	__CPWRN 16,17,128
	BRLO _0x2040029
_0x2040028:
	__GETWRN 16,17,0
	__GETB1MN _glcd_state,3
	LDI  R31,0
	ADIW R30,16
	MOVW R26,R30
	CALL SUBOPT_0x3D
_0x2040029:
_0x2040026:
	__PUTBMRN _glcd_state,2,16
_0x216000A:
	CALL __LOADLOCR6
_0x216000B:
	ADIW R28,8
	RET
; .FEND
_glcd_outtextxy:
; .FSTART _glcd_outtextxy
	CALL SUBOPT_0x41
_0x204002A:
	CALL SUBOPT_0x38
	BREQ _0x204002C
	MOV  R26,R17
	RCALL _glcd_putchar
	RJMP _0x204002A
_0x204002C:
	LDD  R17,Y+0
	JMP  _0x2160004
; .FEND
_glcd_outtextxyf:
; .FSTART _glcd_outtextxyf
	CALL SUBOPT_0x41
_0x204002D:
	LDD  R30,Y+1
	LDD  R31,Y+1+1
	ADIW R30,1
	STD  Y+1,R30
	STD  Y+1+1,R31
	SBIW R30,1
	LPM  R30,Z
	MOV  R17,R30
	CPI  R30,0
	BREQ _0x204002F
	MOV  R26,R17
	RCALL _glcd_putchar
	RJMP _0x204002D
_0x204002F:
	LDD  R17,Y+0
	JMP  _0x2160004
; .FEND
_glcd_putimagef:
; .FSTART _glcd_putimagef
	ST   -Y,R26
	CALL __SAVELOCR4
	LDD  R26,Y+4
	CPI  R26,LOW(0x5)
	BRSH _0x204003D
	LDD  R30,Y+5
	LDD  R31,Y+5+1
	LPM  R16,Z+
	CALL SUBOPT_0x42
	LPM  R17,Z+
	CALL SUBOPT_0x42
	LPM  R18,Z+
	CALL SUBOPT_0x42
	LPM  R19,Z+
	STD  Y+5,R30
	STD  Y+5+1,R31
	LDD  R30,Y+8
	ST   -Y,R30
	LDD  R30,Y+8
	ST   -Y,R30
	ST   -Y,R16
	ST   -Y,R18
	LDI  R30,LOW(1)
	ST   -Y,R30
	LDD  R30,Y+10
	LDD  R31,Y+10+1
	ST   -Y,R31
	ST   -Y,R30
	LDD  R26,Y+11
	RCALL _glcd_block
	ST   -Y,R16
	MOV  R26,R18
	RCALL _glcd_imagesize
	RJMP _0x2160009
_0x204003D:
	__GETD1N 0x0
_0x2160009:
	CALL __LOADLOCR4
	ADIW R28,9
	RET
; .FEND
_glcd_moveto:
; .FSTART _glcd_moveto
	ST   -Y,R26
	LDD  R26,Y+1
	CLR  R27
	RCALL _glcd_clipx
	__PUTB1MN _glcd_state,2
	LD   R26,Y
	CLR  R27
	CALL SUBOPT_0x3D
	JMP  _0x2160003
; .FEND

	.CSEG
_ftoa:
; .FSTART _ftoa
	ST   -Y,R27
	ST   -Y,R26
	SBIW R28,4
	CALL SUBOPT_0x24
	LDI  R30,LOW(63)
	STD  Y+3,R30
	ST   -Y,R17
	ST   -Y,R16
	LDD  R30,Y+11
	LDD  R31,Y+11+1
	CPI  R30,LOW(0xFFFF)
	LDI  R26,HIGH(0xFFFF)
	CPC  R31,R26
	BRNE _0x208000D
	CALL SUBOPT_0x43
	__POINTW2FN _0x2080000,0
	CALL _strcpyf
	RJMP _0x2160008
_0x208000D:
	CPI  R30,LOW(0x7FFF)
	LDI  R26,HIGH(0x7FFF)
	CPC  R31,R26
	BRNE _0x208000C
	CALL SUBOPT_0x43
	__POINTW2FN _0x2080000,1
	CALL _strcpyf
	RJMP _0x2160008
_0x208000C:
	LDD  R26,Y+12
	TST  R26
	BRPL _0x208000F
	__GETD1S 9
	CALL __ANEGF1
	CALL SUBOPT_0x44
	CALL SUBOPT_0x45
	LDI  R30,LOW(45)
	ST   X,R30
_0x208000F:
	LDD  R26,Y+8
	CPI  R26,LOW(0x7)
	BRLO _0x2080010
	LDI  R30,LOW(6)
	STD  Y+8,R30
_0x2080010:
	LDD  R17,Y+8
_0x2080011:
	MOV  R30,R17
	SUBI R17,1
	CPI  R30,0
	BREQ _0x2080013
	CALL SUBOPT_0x46
	CALL SUBOPT_0x47
	CALL SUBOPT_0x48
	RJMP _0x2080011
_0x2080013:
	CALL SUBOPT_0x49
	CALL __ADDF12
	CALL SUBOPT_0x44
	LDI  R17,LOW(0)
	__GETD1N 0x3F800000
	CALL SUBOPT_0x48
_0x2080014:
	CALL SUBOPT_0x49
	CALL __CMPF12
	BRLO _0x2080016
	CALL SUBOPT_0x46
	CALL SUBOPT_0x4A
	CALL SUBOPT_0x48
	SUBI R17,-LOW(1)
	CPI  R17,39
	BRLO _0x2080017
	CALL SUBOPT_0x43
	__POINTW2FN _0x2080000,5
	CALL _strcpyf
	RJMP _0x2160008
_0x2080017:
	RJMP _0x2080014
_0x2080016:
	CPI  R17,0
	BRNE _0x2080018
	CALL SUBOPT_0x45
	LDI  R30,LOW(48)
	ST   X,R30
	RJMP _0x2080019
_0x2080018:
_0x208001A:
	MOV  R30,R17
	SUBI R17,1
	CPI  R30,0
	BREQ _0x208001C
	CALL SUBOPT_0x46
	CALL SUBOPT_0x47
	CALL SUBOPT_0x4B
	MOVW R26,R30
	MOVW R24,R22
	CALL _floor
	CALL SUBOPT_0x48
	CALL SUBOPT_0x49
	CALL __DIVF21
	CALL __CFD1U
	MOV  R16,R30
	CALL SUBOPT_0x45
	MOV  R30,R16
	SUBI R30,-LOW(48)
	ST   X,R30
	MOV  R30,R16
	LDI  R31,0
	CALL SUBOPT_0x46
	CALL __CWD1
	CALL __CDF1
	CALL __MULF12
	CALL SUBOPT_0x4C
	CALL SUBOPT_0x4D
	RJMP _0x208001A
_0x208001C:
_0x2080019:
	LDD  R30,Y+8
	CPI  R30,0
	BREQ _0x2160007
	CALL SUBOPT_0x45
	LDI  R30,LOW(46)
	ST   X,R30
_0x208001E:
	LDD  R30,Y+8
	SUBI R30,LOW(1)
	STD  Y+8,R30
	SUBI R30,-LOW(1)
	BREQ _0x2080020
	CALL SUBOPT_0x4C
	CALL SUBOPT_0x4A
	CALL SUBOPT_0x44
	__GETD1S 9
	CALL __CFD1U
	MOV  R16,R30
	CALL SUBOPT_0x45
	MOV  R30,R16
	SUBI R30,-LOW(48)
	ST   X,R30
	MOV  R30,R16
	LDI  R31,0
	CALL SUBOPT_0x4C
	CALL __CWD1
	CALL __CDF1
	CALL SUBOPT_0x4D
	RJMP _0x208001E
_0x2080020:
_0x2160007:
	LDD  R26,Y+6
	LDD  R27,Y+6+1
	LDI  R30,LOW(0)
	ST   X,R30
_0x2160008:
	LDD  R17,Y+1
	LDD  R16,Y+0
	ADIW R28,13
	RET
; .FEND

	.DSEG

	.CSEG
	#ifndef __SLEEP_DEFINED__
	#define __SLEEP_DEFINED__
	.EQU __se_bit=0x80
	.EQU __sm_mask=0x70
	.EQU __sm_powerdown=0x20
	.EQU __sm_powersave=0x30
	.EQU __sm_standby=0x60
	.EQU __sm_ext_standby=0x70
	.EQU __sm_adc_noise_red=0x10
	.SET power_ctrl_reg=mcucr
	#endif

	.CSEG
_put_buff_G105:
; .FSTART _put_buff_G105
	ST   -Y,R27
	ST   -Y,R26
	ST   -Y,R17
	ST   -Y,R16
	LDD  R26,Y+2
	LDD  R27,Y+2+1
	ADIW R26,2
	CALL __GETW1P
	SBIW R30,0
	BREQ _0x20A0010
	LDD  R26,Y+2
	LDD  R27,Y+2+1
	ADIW R26,4
	CALL __GETW1P
	MOVW R16,R30
	SBIW R30,0
	BREQ _0x20A0012
	__CPWRN 16,17,2
	BRLO _0x20A0013
	MOVW R30,R16
	SBIW R30,1
	MOVW R16,R30
	__PUTW1SNS 2,4
_0x20A0012:
	LDD  R26,Y+2
	LDD  R27,Y+2+1
	ADIW R26,2
	CALL SUBOPT_0x4E
	SBIW R30,1
	LDD  R26,Y+4
	STD  Z+0,R26
_0x20A0013:
	LDD  R26,Y+2
	LDD  R27,Y+2+1
	CALL __GETW1P
	TST  R31
	BRMI _0x20A0014
	CALL SUBOPT_0x4E
_0x20A0014:
	RJMP _0x20A0015
_0x20A0010:
	LDD  R26,Y+2
	LDD  R27,Y+2+1
	LDI  R30,LOW(65535)
	LDI  R31,HIGH(65535)
	ST   X+,R30
	ST   X,R31
_0x20A0015:
	LDD  R17,Y+1
	LDD  R16,Y+0
	JMP  _0x2160004
; .FEND
__ftoe_G105:
; .FSTART __ftoe_G105
	ST   -Y,R27
	ST   -Y,R26
	SBIW R28,4
	LDI  R30,LOW(0)
	ST   Y,R30
	STD  Y+1,R30
	LDI  R30,LOW(128)
	STD  Y+2,R30
	LDI  R30,LOW(63)
	STD  Y+3,R30
	CALL __SAVELOCR4
	LDD  R30,Y+14
	LDD  R31,Y+14+1
	CPI  R30,LOW(0xFFFF)
	LDI  R26,HIGH(0xFFFF)
	CPC  R31,R26
	BRNE _0x20A0019
	LDD  R30,Y+8
	LDD  R31,Y+8+1
	ST   -Y,R31
	ST   -Y,R30
	__POINTW2FN _0x20A0000,0
	CALL _strcpyf
	RJMP _0x2160006
_0x20A0019:
	CPI  R30,LOW(0x7FFF)
	LDI  R26,HIGH(0x7FFF)
	CPC  R31,R26
	BRNE _0x20A0018
	LDD  R30,Y+8
	LDD  R31,Y+8+1
	ST   -Y,R31
	ST   -Y,R30
	__POINTW2FN _0x20A0000,1
	CALL _strcpyf
	RJMP _0x2160006
_0x20A0018:
	LDD  R26,Y+11
	CPI  R26,LOW(0x7)
	BRLO _0x20A001B
	LDI  R30,LOW(6)
	STD  Y+11,R30
_0x20A001B:
	LDD  R17,Y+11
_0x20A001C:
	MOV  R30,R17
	SUBI R17,1
	CPI  R30,0
	BREQ _0x20A001E
	CALL SUBOPT_0x4F
	CALL SUBOPT_0x50
	RJMP _0x20A001C
_0x20A001E:
	__GETD1S 12
	CALL __CPD10
	BRNE _0x20A001F
	LDI  R19,LOW(0)
	CALL SUBOPT_0x4F
	CALL SUBOPT_0x50
	RJMP _0x20A0020
_0x20A001F:
	LDD  R19,Y+11
	CALL SUBOPT_0x51
	BREQ PC+2
	BRCC PC+2
	RJMP _0x20A0021
	CALL SUBOPT_0x4F
	CALL SUBOPT_0x50
_0x20A0022:
	CALL SUBOPT_0x51
	BRLO _0x20A0024
	CALL SUBOPT_0x52
	CALL SUBOPT_0x47
	CALL SUBOPT_0x53
	SUBI R19,-LOW(1)
	RJMP _0x20A0022
_0x20A0024:
	RJMP _0x20A0025
_0x20A0021:
_0x20A0026:
	CALL SUBOPT_0x51
	BRSH _0x20A0028
	CALL SUBOPT_0x52
	CALL SUBOPT_0x4A
	CALL SUBOPT_0x53
	SUBI R19,LOW(1)
	RJMP _0x20A0026
_0x20A0028:
	CALL SUBOPT_0x4F
	CALL SUBOPT_0x50
_0x20A0025:
	__GETD1S 12
	CALL SUBOPT_0x4B
	CALL SUBOPT_0x53
	CALL SUBOPT_0x51
	BRLO _0x20A0029
	CALL SUBOPT_0x52
	CALL SUBOPT_0x47
	CALL SUBOPT_0x53
	SUBI R19,-LOW(1)
_0x20A0029:
_0x20A0020:
	LDI  R17,LOW(0)
_0x20A002A:
	LDD  R30,Y+11
	CP   R30,R17
	BRLO _0x20A002C
	__GETD2S 4
	CALL SUBOPT_0x47
	CALL SUBOPT_0x4B
	MOVW R26,R30
	MOVW R24,R22
	CALL _floor
	CALL SUBOPT_0x50
	__GETD1S 4
	CALL SUBOPT_0x52
	CALL __DIVF21
	CALL __CFD1U
	MOV  R16,R30
	CALL SUBOPT_0x54
	MOV  R30,R16
	SUBI R30,-LOW(48)
	ST   X,R30
	MOV  R30,R16
	CLR  R31
	CLR  R22
	CLR  R23
	CALL __CDF1
	__GETD2S 4
	CALL __MULF12
	CALL SUBOPT_0x52
	CALL __SWAPD12
	CALL __SUBF12
	CALL SUBOPT_0x53
	MOV  R30,R17
	SUBI R17,-1
	CPI  R30,0
	BRNE _0x20A002A
	CALL SUBOPT_0x54
	LDI  R30,LOW(46)
	ST   X,R30
	RJMP _0x20A002A
_0x20A002C:
	CALL SUBOPT_0x55
	SBIW R30,1
	LDD  R26,Y+10
	STD  Z+0,R26
	CPI  R19,0
	BRGE _0x20A002E
	NEG  R19
	LDD  R26,Y+8
	LDD  R27,Y+8+1
	LDI  R30,LOW(45)
	RJMP _0x20A0113
_0x20A002E:
	LDD  R26,Y+8
	LDD  R27,Y+8+1
	LDI  R30,LOW(43)
_0x20A0113:
	ST   X,R30
	CALL SUBOPT_0x55
	CALL SUBOPT_0x55
	SBIW R30,1
	MOVW R22,R30
	MOV  R26,R19
	LDI  R30,LOW(10)
	CALL __DIVB21
	SUBI R30,-LOW(48)
	MOVW R26,R22
	ST   X,R30
	CALL SUBOPT_0x55
	SBIW R30,1
	MOVW R22,R30
	MOV  R26,R19
	LDI  R30,LOW(10)
	CALL __MODB21
	SUBI R30,-LOW(48)
	MOVW R26,R22
	ST   X,R30
	LDD  R26,Y+8
	LDD  R27,Y+8+1
	LDI  R30,LOW(0)
	ST   X,R30
_0x2160006:
	CALL __LOADLOCR4
	ADIW R28,16
	RET
; .FEND
__print_G105:
; .FSTART __print_G105
	ST   -Y,R27
	ST   -Y,R26
	SBIW R28,63
	SBIW R28,17
	CALL __SAVELOCR6
	LDI  R17,0
	__GETW1SX 88
	STD  Y+8,R30
	STD  Y+8+1,R31
	__GETW1SX 86
	STD  Y+6,R30
	STD  Y+6+1,R31
	LDD  R26,Y+6
	LDD  R27,Y+6+1
	LDI  R30,LOW(0)
	LDI  R31,HIGH(0)
	ST   X+,R30
	ST   X,R31
_0x20A0030:
	MOVW R26,R28
	SUBI R26,LOW(-(92))
	SBCI R27,HIGH(-(92))
	CALL SUBOPT_0x4E
	SBIW R30,1
	LPM  R30,Z
	MOV  R18,R30
	CPI  R30,0
	BRNE PC+2
	RJMP _0x20A0032
	MOV  R30,R17
	CPI  R30,0
	BRNE _0x20A0036
	CPI  R18,37
	BRNE _0x20A0037
	LDI  R17,LOW(1)
	RJMP _0x20A0038
_0x20A0037:
	CALL SUBOPT_0x56
_0x20A0038:
	RJMP _0x20A0035
_0x20A0036:
	CPI  R30,LOW(0x1)
	BRNE _0x20A0039
	CPI  R18,37
	BRNE _0x20A003A
	CALL SUBOPT_0x56
	RJMP _0x20A0114
_0x20A003A:
	LDI  R17,LOW(2)
	LDI  R30,LOW(0)
	STD  Y+21,R30
	LDI  R16,LOW(0)
	CPI  R18,45
	BRNE _0x20A003B
	LDI  R16,LOW(1)
	RJMP _0x20A0035
_0x20A003B:
	CPI  R18,43
	BRNE _0x20A003C
	LDI  R30,LOW(43)
	STD  Y+21,R30
	RJMP _0x20A0035
_0x20A003C:
	CPI  R18,32
	BRNE _0x20A003D
	LDI  R30,LOW(32)
	STD  Y+21,R30
	RJMP _0x20A0035
_0x20A003D:
	RJMP _0x20A003E
_0x20A0039:
	CPI  R30,LOW(0x2)
	BRNE _0x20A003F
_0x20A003E:
	LDI  R21,LOW(0)
	LDI  R17,LOW(3)
	CPI  R18,48
	BRNE _0x20A0040
	ORI  R16,LOW(128)
	RJMP _0x20A0035
_0x20A0040:
	RJMP _0x20A0041
_0x20A003F:
	CPI  R30,LOW(0x3)
	BRNE _0x20A0042
_0x20A0041:
	CPI  R18,48
	BRLO _0x20A0044
	CPI  R18,58
	BRLO _0x20A0045
_0x20A0044:
	RJMP _0x20A0043
_0x20A0045:
	LDI  R26,LOW(10)
	MUL  R21,R26
	MOV  R21,R0
	MOV  R30,R18
	SUBI R30,LOW(48)
	ADD  R21,R30
	RJMP _0x20A0035
_0x20A0043:
	LDI  R20,LOW(0)
	CPI  R18,46
	BRNE _0x20A0046
	LDI  R17,LOW(4)
	RJMP _0x20A0035
_0x20A0046:
	RJMP _0x20A0047
_0x20A0042:
	CPI  R30,LOW(0x4)
	BRNE _0x20A0049
	CPI  R18,48
	BRLO _0x20A004B
	CPI  R18,58
	BRLO _0x20A004C
_0x20A004B:
	RJMP _0x20A004A
_0x20A004C:
	ORI  R16,LOW(32)
	LDI  R26,LOW(10)
	MUL  R20,R26
	MOV  R20,R0
	MOV  R30,R18
	SUBI R30,LOW(48)
	ADD  R20,R30
	RJMP _0x20A0035
_0x20A004A:
_0x20A0047:
	CPI  R18,108
	BRNE _0x20A004D
	ORI  R16,LOW(2)
	LDI  R17,LOW(5)
	RJMP _0x20A0035
_0x20A004D:
	RJMP _0x20A004E
_0x20A0049:
	CPI  R30,LOW(0x5)
	BREQ PC+2
	RJMP _0x20A0035
_0x20A004E:
	MOV  R30,R18
	CPI  R30,LOW(0x63)
	BRNE _0x20A0053
	CALL SUBOPT_0x57
	CALL SUBOPT_0x58
	CALL SUBOPT_0x57
	LDD  R26,Z+4
	ST   -Y,R26
	CALL SUBOPT_0x59
	RJMP _0x20A0054
_0x20A0053:
	CPI  R30,LOW(0x45)
	BREQ _0x20A0057
	CPI  R30,LOW(0x65)
	BRNE _0x20A0058
_0x20A0057:
	RJMP _0x20A0059
_0x20A0058:
	CPI  R30,LOW(0x66)
	BREQ PC+2
	RJMP _0x20A005A
_0x20A0059:
	MOVW R30,R28
	ADIW R30,22
	STD  Y+14,R30
	STD  Y+14+1,R31
	CALL SUBOPT_0x5A
	CALL __GETD1P
	CALL SUBOPT_0x5B
	CALL SUBOPT_0x5C
	LDD  R26,Y+13
	TST  R26
	BRMI _0x20A005B
	LDD  R26,Y+21
	CPI  R26,LOW(0x2B)
	BREQ _0x20A005D
	CPI  R26,LOW(0x20)
	BREQ _0x20A005F
	RJMP _0x20A0060
_0x20A005B:
	CALL SUBOPT_0x5D
	CALL __ANEGF1
	CALL SUBOPT_0x5B
	LDI  R30,LOW(45)
	STD  Y+21,R30
_0x20A005D:
	SBRS R16,7
	RJMP _0x20A0061
	LDD  R30,Y+21
	ST   -Y,R30
	CALL SUBOPT_0x59
	RJMP _0x20A0062
_0x20A0061:
_0x20A005F:
	LDD  R30,Y+14
	LDD  R31,Y+14+1
	ADIW R30,1
	STD  Y+14,R30
	STD  Y+14+1,R31
	SBIW R30,1
	LDD  R26,Y+21
	STD  Z+0,R26
_0x20A0062:
_0x20A0060:
	SBRS R16,5
	LDI  R20,LOW(6)
	CPI  R18,102
	BRNE _0x20A0064
	CALL SUBOPT_0x5D
	CALL __PUTPARD1
	ST   -Y,R20
	LDD  R26,Y+19
	LDD  R27,Y+19+1
	CALL _ftoa
	RJMP _0x20A0065
_0x20A0064:
	CALL SUBOPT_0x5D
	CALL __PUTPARD1
	ST   -Y,R20
	ST   -Y,R18
	LDD  R26,Y+20
	LDD  R27,Y+20+1
	RCALL __ftoe_G105
_0x20A0065:
	MOVW R30,R28
	ADIW R30,22
	CALL SUBOPT_0x5E
	RJMP _0x20A0066
_0x20A005A:
	CPI  R30,LOW(0x73)
	BRNE _0x20A0068
	CALL SUBOPT_0x5C
	CALL SUBOPT_0x5F
	CALL SUBOPT_0x5E
	RJMP _0x20A0069
_0x20A0068:
	CPI  R30,LOW(0x70)
	BRNE _0x20A006B
	CALL SUBOPT_0x5C
	CALL SUBOPT_0x5F
	STD  Y+14,R30
	STD  Y+14+1,R31
	LDD  R26,Y+14
	LDD  R27,Y+14+1
	CALL _strlenf
	MOV  R17,R30
	ORI  R16,LOW(8)
_0x20A0069:
	ANDI R16,LOW(127)
	CPI  R20,0
	BREQ _0x20A006D
	CP   R20,R17
	BRLO _0x20A006E
_0x20A006D:
	RJMP _0x20A006C
_0x20A006E:
	MOV  R17,R20
_0x20A006C:
_0x20A0066:
	LDI  R20,LOW(0)
	LDI  R30,LOW(0)
	STD  Y+20,R30
	LDI  R19,LOW(0)
	RJMP _0x20A006F
_0x20A006B:
	CPI  R30,LOW(0x64)
	BREQ _0x20A0072
	CPI  R30,LOW(0x69)
	BRNE _0x20A0073
_0x20A0072:
	ORI  R16,LOW(4)
	RJMP _0x20A0074
_0x20A0073:
	CPI  R30,LOW(0x75)
	BRNE _0x20A0075
_0x20A0074:
	LDI  R30,LOW(10)
	STD  Y+20,R30
	SBRS R16,1
	RJMP _0x20A0076
	__GETD1N 0x3B9ACA00
	CALL SUBOPT_0x60
	LDI  R17,LOW(10)
	RJMP _0x20A0077
_0x20A0076:
	__GETD1N 0x2710
	CALL SUBOPT_0x60
	LDI  R17,LOW(5)
	RJMP _0x20A0077
_0x20A0075:
	CPI  R30,LOW(0x58)
	BRNE _0x20A0079
	ORI  R16,LOW(8)
	RJMP _0x20A007A
_0x20A0079:
	CPI  R30,LOW(0x78)
	BREQ PC+2
	RJMP _0x20A00B8
_0x20A007A:
	LDI  R30,LOW(16)
	STD  Y+20,R30
	SBRS R16,1
	RJMP _0x20A007C
	__GETD1N 0x10000000
	CALL SUBOPT_0x60
	LDI  R17,LOW(8)
	RJMP _0x20A0077
_0x20A007C:
	__GETD1N 0x1000
	CALL SUBOPT_0x60
	LDI  R17,LOW(4)
_0x20A0077:
	CPI  R20,0
	BREQ _0x20A007D
	ANDI R16,LOW(127)
	RJMP _0x20A007E
_0x20A007D:
	LDI  R20,LOW(1)
_0x20A007E:
	SBRS R16,1
	RJMP _0x20A007F
	CALL SUBOPT_0x5C
	CALL SUBOPT_0x5A
	ADIW R26,4
	CALL __GETD1P
	RJMP _0x20A0115
_0x20A007F:
	SBRS R16,2
	RJMP _0x20A0081
	CALL SUBOPT_0x5C
	CALL SUBOPT_0x5F
	CALL __CWD1
	RJMP _0x20A0115
_0x20A0081:
	CALL SUBOPT_0x5C
	CALL SUBOPT_0x5F
	CLR  R22
	CLR  R23
_0x20A0115:
	__PUTD1S 10
	SBRS R16,2
	RJMP _0x20A0083
	LDD  R26,Y+13
	TST  R26
	BRPL _0x20A0084
	CALL SUBOPT_0x5D
	CALL __ANEGD1
	CALL SUBOPT_0x5B
	LDI  R30,LOW(45)
	STD  Y+21,R30
_0x20A0084:
	LDD  R30,Y+21
	CPI  R30,0
	BREQ _0x20A0085
	SUBI R17,-LOW(1)
	SUBI R20,-LOW(1)
	RJMP _0x20A0086
_0x20A0085:
	ANDI R16,LOW(251)
_0x20A0086:
_0x20A0083:
	MOV  R19,R20
_0x20A006F:
	SBRC R16,0
	RJMP _0x20A0087
_0x20A0088:
	CP   R17,R21
	BRSH _0x20A008B
	CP   R19,R21
	BRLO _0x20A008C
_0x20A008B:
	RJMP _0x20A008A
_0x20A008C:
	SBRS R16,7
	RJMP _0x20A008D
	SBRS R16,2
	RJMP _0x20A008E
	ANDI R16,LOW(251)
	LDD  R18,Y+21
	SUBI R17,LOW(1)
	RJMP _0x20A008F
_0x20A008E:
	LDI  R18,LOW(48)
_0x20A008F:
	RJMP _0x20A0090
_0x20A008D:
	LDI  R18,LOW(32)
_0x20A0090:
	CALL SUBOPT_0x56
	SUBI R21,LOW(1)
	RJMP _0x20A0088
_0x20A008A:
_0x20A0087:
_0x20A0091:
	CP   R17,R20
	BRSH _0x20A0093
	ORI  R16,LOW(16)
	SBRS R16,2
	RJMP _0x20A0094
	CALL SUBOPT_0x61
	BREQ _0x20A0095
	SUBI R21,LOW(1)
_0x20A0095:
	SUBI R17,LOW(1)
	SUBI R20,LOW(1)
_0x20A0094:
	LDI  R30,LOW(48)
	ST   -Y,R30
	CALL SUBOPT_0x59
	CPI  R21,0
	BREQ _0x20A0096
	SUBI R21,LOW(1)
_0x20A0096:
	SUBI R20,LOW(1)
	RJMP _0x20A0091
_0x20A0093:
	MOV  R19,R17
	LDD  R30,Y+20
	CPI  R30,0
	BRNE _0x20A0097
_0x20A0098:
	CPI  R19,0
	BREQ _0x20A009A
	SBRS R16,3
	RJMP _0x20A009B
	LDD  R30,Y+14
	LDD  R31,Y+14+1
	LPM  R18,Z+
	STD  Y+14,R30
	STD  Y+14+1,R31
	RJMP _0x20A009C
_0x20A009B:
	LDD  R26,Y+14
	LDD  R27,Y+14+1
	LD   R18,X+
	STD  Y+14,R26
	STD  Y+14+1,R27
_0x20A009C:
	CALL SUBOPT_0x56
	CPI  R21,0
	BREQ _0x20A009D
	SUBI R21,LOW(1)
_0x20A009D:
	SUBI R19,LOW(1)
	RJMP _0x20A0098
_0x20A009A:
	RJMP _0x20A009E
_0x20A0097:
_0x20A00A0:
	CALL SUBOPT_0x62
	CALL __DIVD21U
	MOV  R18,R30
	CPI  R18,10
	BRLO _0x20A00A2
	SBRS R16,3
	RJMP _0x20A00A3
	SUBI R18,-LOW(55)
	RJMP _0x20A00A4
_0x20A00A3:
	SUBI R18,-LOW(87)
_0x20A00A4:
	RJMP _0x20A00A5
_0x20A00A2:
	SUBI R18,-LOW(48)
_0x20A00A5:
	SBRC R16,4
	RJMP _0x20A00A7
	CPI  R18,49
	BRSH _0x20A00A9
	__GETD2S 16
	__CPD2N 0x1
	BRNE _0x20A00A8
_0x20A00A9:
	RJMP _0x20A00AB
_0x20A00A8:
	CP   R20,R19
	BRSH _0x20A0116
	CP   R21,R19
	BRLO _0x20A00AE
	SBRS R16,0
	RJMP _0x20A00AF
_0x20A00AE:
	RJMP _0x20A00AD
_0x20A00AF:
	LDI  R18,LOW(32)
	SBRS R16,7
	RJMP _0x20A00B0
_0x20A0116:
	LDI  R18,LOW(48)
_0x20A00AB:
	ORI  R16,LOW(16)
	SBRS R16,2
	RJMP _0x20A00B1
	CALL SUBOPT_0x61
	BREQ _0x20A00B2
	SUBI R21,LOW(1)
_0x20A00B2:
_0x20A00B1:
_0x20A00B0:
_0x20A00A7:
	CALL SUBOPT_0x56
	CPI  R21,0
	BREQ _0x20A00B3
	SUBI R21,LOW(1)
_0x20A00B3:
_0x20A00AD:
	SUBI R19,LOW(1)
	CALL SUBOPT_0x62
	CALL __MODD21U
	CALL SUBOPT_0x5B
	LDD  R30,Y+20
	__GETD2S 16
	CLR  R31
	CLR  R22
	CLR  R23
	CALL __DIVD21U
	CALL SUBOPT_0x60
	__GETD1S 16
	CALL __CPD10
	BREQ _0x20A00A1
	RJMP _0x20A00A0
_0x20A00A1:
_0x20A009E:
	SBRS R16,0
	RJMP _0x20A00B4
_0x20A00B5:
	CPI  R21,0
	BREQ _0x20A00B7
	SUBI R21,LOW(1)
	LDI  R30,LOW(32)
	ST   -Y,R30
	CALL SUBOPT_0x59
	RJMP _0x20A00B5
_0x20A00B7:
_0x20A00B4:
_0x20A00B8:
_0x20A0054:
_0x20A0114:
	LDI  R17,LOW(0)
_0x20A0035:
	RJMP _0x20A0030
_0x20A0032:
	LDD  R26,Y+6
	LDD  R27,Y+6+1
	CALL __GETW1P
	CALL __LOADLOCR6
	ADIW R28,63
	ADIW R28,31
	RET
; .FEND
_sprintf:
; .FSTART _sprintf
	PUSH R15
	MOV  R15,R24
	SBIW R28,6
	CALL __SAVELOCR4
	CALL SUBOPT_0x63
	SBIW R30,0
	BRNE _0x20A00B9
	LDI  R30,LOW(65535)
	LDI  R31,HIGH(65535)
	RJMP _0x2160005
_0x20A00B9:
	MOVW R26,R28
	ADIW R26,6
	CALL __ADDW2R15
	MOVW R16,R26
	CALL SUBOPT_0x63
	STD  Y+6,R30
	STD  Y+6+1,R31
	LDI  R30,LOW(0)
	STD  Y+8,R30
	STD  Y+8+1,R30
	MOVW R26,R28
	ADIW R26,10
	CALL __ADDW2R15
	CALL __GETW1P
	ST   -Y,R31
	ST   -Y,R30
	ST   -Y,R17
	ST   -Y,R16
	LDI  R30,LOW(_put_buff_G105)
	LDI  R31,HIGH(_put_buff_G105)
	ST   -Y,R31
	ST   -Y,R30
	MOVW R26,R28
	ADIW R26,10
	RCALL __print_G105
	MOVW R18,R30
	LDD  R26,Y+6
	LDD  R27,Y+6+1
	LDI  R30,LOW(0)
	ST   X,R30
	MOVW R30,R18
_0x2160005:
	CALL __LOADLOCR4
	ADIW R28,10
	POP  R15
	RET
; .FEND

	.CSEG
_memset:
; .FSTART _memset
	ST   -Y,R27
	ST   -Y,R26
    ldd  r27,y+1
    ld   r26,y
    adiw r26,0
    breq memset1
    ldd  r31,y+4
    ldd  r30,y+3
    ldd  r22,y+2
memset0:
    st   z+,r22
    sbiw r26,1
    brne memset0
memset1:
    ldd  r30,y+3
    ldd  r31,y+4
_0x2160004:
	ADIW R28,5
	RET
; .FEND
_strcpy:
; .FSTART _strcpy
	ST   -Y,R27
	ST   -Y,R26
    ld   r30,y+
    ld   r31,y+
    ld   r26,y+
    ld   r27,y+
    movw r24,r26
strcpy0:
    ld   r22,z+
    st   x+,r22
    tst  r22
    brne strcpy0
    movw r30,r24
    ret
; .FEND
_strcpyf:
; .FSTART _strcpyf
	ST   -Y,R27
	ST   -Y,R26
    ld   r30,y+
    ld   r31,y+
    ld   r26,y+
    ld   r27,y+
    movw r24,r26
strcpyf0:
	lpm  r0,z+
    st   x+,r0
    tst  r0
    brne strcpyf0
    movw r30,r24
    ret
; .FEND
_strlen:
; .FSTART _strlen
	ST   -Y,R27
	ST   -Y,R26
    ld   r26,y+
    ld   r27,y+
    clr  r30
    clr  r31
strlen0:
    ld   r22,x+
    tst  r22
    breq strlen1
    adiw r30,1
    rjmp strlen0
strlen1:
    ret
; .FEND
_strlenf:
; .FSTART _strlenf
	ST   -Y,R27
	ST   -Y,R26
    clr  r26
    clr  r27
    ld   r30,y+
    ld   r31,y+
strlenf0:
	lpm  r0,z+
    tst  r0
    breq strlenf1
    adiw r26,1
    rjmp strlenf0
strlenf1:
    movw r30,r26
    ret
; .FEND

	.CSEG
_ftrunc:
; .FSTART _ftrunc
	CALL __PUTPARD2
   ldd  r23,y+3
   ldd  r22,y+2
   ldd  r31,y+1
   ld   r30,y
   bst  r23,7
   lsl  r23
   sbrc r22,7
   sbr  r23,1
   mov  r25,r23
   subi r25,0x7e
   breq __ftrunc0
   brcs __ftrunc0
   cpi  r25,24
   brsh __ftrunc1
   clr  r26
   clr  r27
   clr  r24
__ftrunc2:
   sec
   ror  r24
   ror  r27
   ror  r26
   dec  r25
   brne __ftrunc2
   and  r30,r26
   and  r31,r27
   and  r22,r24
   rjmp __ftrunc1
__ftrunc0:
   clt
   clr  r23
   clr  r30
   clr  r31
   clr  r22
__ftrunc1:
   cbr  r22,0x80
   lsr  r23
   brcc __ftrunc3
   sbr  r22,0x80
__ftrunc3:
   bld  r23,7
   ld   r26,y+
   ld   r27,y+
   ld   r24,y+
   ld   r25,y+
   cp   r30,r26
   cpc  r31,r27
   cpc  r22,r24
   cpc  r23,r25
   bst  r25,7
   ret
; .FEND
_floor:
; .FSTART _floor
	CALL __PUTPARD2
	CALL __GETD2S0
	CALL _ftrunc
	CALL __PUTD1S0
    brne __floor1
__floor0:
	CALL __GETD1S0
	RJMP _0x2160001
__floor1:
    brtc __floor0
	CALL __GETD1S0
	__GETD2N 0x3F800000
	CALL __SUBF12
	RJMP _0x2160001
; .FEND

	.CSEG
_bcd2bin:
; .FSTART _bcd2bin
	ST   -Y,R26
    ld   r30,y
    swap r30
    andi r30,0xf
    mov  r26,r30
    lsl  r26
    lsl  r26
    add  r30,r26
    lsl  r30
    ld   r26,y+
    andi r26,0xf
    add  r30,r26
    ret
; .FEND

	.CSEG
_glcd_getmask:
; .FSTART _glcd_getmask
	ST   -Y,R26
	LD   R30,Y
	LDI  R31,0
	SUBI R30,LOW(-__glcd_mask*2)
	SBCI R31,HIGH(-__glcd_mask*2)
	LPM  R26,Z
	LDD  R30,Y+1
	CALL __LSLB12
_0x2160003:
	ADIW R28,2
	RET
; .FEND
_glcd_mappixcolor1bit:
; .FSTART _glcd_mappixcolor1bit
	ST   -Y,R26
	ST   -Y,R17
	LDD  R30,Y+1
	CPI  R30,LOW(0x7)
	BREQ _0x2120007
	CPI  R30,LOW(0xA)
	BRNE _0x2120008
_0x2120007:
	LDS  R17,_glcd_state
	RJMP _0x2120009
_0x2120008:
	CPI  R30,LOW(0x9)
	BRNE _0x212000B
	__GETBRMN 17,_glcd_state,1
	RJMP _0x2120009
_0x212000B:
	CPI  R30,LOW(0x8)
	BRNE _0x2120005
	__GETBRMN 17,_glcd_state,16
_0x2120009:
	__GETB1MN _glcd_state,1
	CPI  R30,0
	BREQ _0x212000E
	CPI  R17,0
	BREQ _0x212000F
	LDI  R30,LOW(255)
	LDD  R17,Y+0
	RJMP _0x2160002
_0x212000F:
	LDD  R30,Y+2
	COM  R30
	LDD  R17,Y+0
	RJMP _0x2160002
_0x212000E:
	CPI  R17,0
	BRNE _0x2120011
	LDI  R30,LOW(0)
	LDD  R17,Y+0
	RJMP _0x2160002
_0x2120011:
_0x2120005:
	LDD  R30,Y+2
	LDD  R17,Y+0
	RJMP _0x2160002
; .FEND
_glcd_readmem:
; .FSTART _glcd_readmem
	ST   -Y,R27
	ST   -Y,R26
	LDD  R30,Y+2
	CPI  R30,LOW(0x1)
	BRNE _0x2120015
	LD   R30,Y
	LDD  R31,Y+1
	LPM  R30,Z
	RJMP _0x2160002
_0x2120015:
	CPI  R30,LOW(0x2)
	BRNE _0x2120016
	LD   R26,Y
	LDD  R27,Y+1
	CALL __EEPROMRDB
	RJMP _0x2160002
_0x2120016:
	CPI  R30,LOW(0x3)
	BRNE _0x2120018
	LD   R26,Y
	LDD  R27,Y+1
	__CALL1MN _glcd_state,25
	RJMP _0x2160002
_0x2120018:
	LD   R26,Y
	LDD  R27,Y+1
	LD   R30,X
_0x2160002:
	ADIW R28,3
	RET
; .FEND
_glcd_writemem:
; .FSTART _glcd_writemem
	ST   -Y,R26
	LDD  R30,Y+3
	CPI  R30,0
	BRNE _0x212001C
	LD   R30,Y
	LDD  R26,Y+1
	LDD  R27,Y+1+1
	ST   X,R30
	RJMP _0x212001B
_0x212001C:
	CPI  R30,LOW(0x2)
	BRNE _0x212001D
	LD   R30,Y
	LDD  R26,Y+1
	LDD  R27,Y+1+1
	CALL __EEPROMWRB
	RJMP _0x212001B
_0x212001D:
	CPI  R30,LOW(0x3)
	BRNE _0x212001B
	LDD  R30,Y+1
	LDD  R31,Y+1+1
	ST   -Y,R31
	ST   -Y,R30
	LDD  R26,Y+2
	__CALL1MN _glcd_state,27
_0x212001B:
_0x2160001:
	ADIW R28,4
	RET
; .FEND
_glcd_revbits:
; .FSTART _glcd_revbits
	ST   -Y,R26
    ld  r26,y+
    bst r26,0
    bld r30,7

    bst r26,1
    bld r30,6

    bst r26,2
    bld r30,5

    bst r26,3
    bld r30,4

    bst r26,4
    bld r30,3

    bst r26,5
    bld r30,2

    bst r26,6
    bld r30,1

    bst r26,7
    bld r30,0
    ret
; .FEND

	.CSEG

	.DSEG
_glcd_state:
	.BYTE 0x1D
_rot:
	.BYTE 0x1
_Reverse:
	.BYTE 0x1
_Horizontal:
	.BYTE 0x1
_FgColor:
	.BYTE 0x2
_BkColor:
	.BYTE 0x2
_FontFixed:
	.BYTE 0x1
_NonTransparence:
	.BYTE 0x1
_FontWidth:
	.BYTE 0x1
_FontHeight:
	.BYTE 0x1
_FontXScale:
	.BYTE 0x1
_FontYScale:
	.BYTE 0x1
_FontSpaceX:
	.BYTE 0x1
_FontSpaceY:
	.BYTE 0x1
_cursorX:
	.BYTE 0x2
_cursorY:
	.BYTE 0x2
_peLETTER:
	.BYTE 0x1
_sh_year:
	.BYTE 0x2
__weekday:
	.BYTE 0x1C
_strsec:
	.BYTE 0xC
_str:
	.BYTE 0x14
_i:
	.BYTE 0x1
_FontPointer:
	.BYTE 0x2
_fontSize:
	.BYTE 0x2
_firstchar:
	.BYTE 0x1
_lastchar:
	.BYTE 0x1
_charwidth:
	.BYTE 0x1
_prevLet:
	.BYTE 0x1
_nextLet:
	.BYTE 0x1
_st7920_graphics_on_G101:
	.BYTE 0x1
_st7920_bits8_15_G101:
	.BYTE 0x1
_xt_G101:
	.BYTE 0x1
_yt_G101:
	.BYTE 0x1
__seed_G104:
	.BYTE 0x4

	.CSEG
;OPTIMIZER ADDED SUBROUTINE, CALLED 2 TIMES, CODE SIZE REDUCTION:2 WORDS
SUBOPT_0x0:
	CALL _SetLetter
	LDI  R30,LOW(0)
	ST   -Y,R30
	LDI  R26,LOW(0)
	JMP  _SetLine

;OPTIMIZER ADDED SUBROUTINE, CALLED 12 TIMES, CODE SIZE REDUCTION:19 WORDS
SUBOPT_0x1:
	CALL _PutChar
	LDI  R30,LOW(0)
	ST   -Y,R30
	RET

;OPTIMIZER ADDED SUBROUTINE, CALLED 6 TIMES, CODE SIZE REDUCTION:7 WORDS
SUBOPT_0x2:
	ST   -Y,R30
	LDI  R26,LOW(0)
	JMP  _SetLine

;OPTIMIZER ADDED SUBROUTINE, CALLED 2 TIMES, CODE SIZE REDUCTION:3 WORDS
SUBOPT_0x3:
	CALL _Puts
	LDI  R26,LOW(2000)
	LDI  R27,HIGH(2000)
	CALL _delay_ms
	JMP  _glcd_clear

;OPTIMIZER ADDED SUBROUTINE, CALLED 4 TIMES, CODE SIZE REDUCTION:24 WORDS
SUBOPT_0x4:
	LDI  R30,LOW(1)
	LDI  R31,HIGH(1)
	STS  _FgColor,R30
	STS  _FgColor+1,R31
	LDI  R30,LOW(0)
	STS  _BkColor,R30
	STS  _BkColor+1,R30
	RET

;OPTIMIZER ADDED SUBROUTINE, CALLED 3 TIMES, CODE SIZE REDUCTION:1 WORDS
SUBOPT_0x5:
	ST   -Y,R30
	LDI  R26,LOW(0)
	JMP  _lcd_gotoxy

;OPTIMIZER ADDED SUBROUTINE, CALLED 3 TIMES, CODE SIZE REDUCTION:1 WORDS
SUBOPT_0x6:
	__PUTW1MN _glcd_state,4
	RET

;OPTIMIZER ADDED SUBROUTINE, CALLED 6 TIMES, CODE SIZE REDUCTION:12 WORDS
SUBOPT_0x7:
	CLR  R31
	CLR  R22
	CLR  R23
	CALL __PUTPARD1
	RET

;OPTIMIZER ADDED SUBROUTINE, CALLED 2 TIMES, CODE SIZE REDUCTION:1 WORDS
SUBOPT_0x8:
	LDI  R30,LOW(1)
	STS  _glcd_state,R30
	LDI  R30,LOW(0)
	__PUTB1MN _glcd_state,1
	RET

;OPTIMIZER ADDED SUBROUTINE, CALLED 3 TIMES, CODE SIZE REDUCTION:1 WORDS
SUBOPT_0x9:
	LDI  R30,LOW(_strsec)
	LDI  R31,HIGH(_strsec)
	ST   -Y,R31
	ST   -Y,R30
	RET

;OPTIMIZER ADDED SUBROUTINE, CALLED 3 TIMES, CODE SIZE REDUCTION:1 WORDS
SUBOPT_0xA:
	LDI  R26,LOW(_strsec)
	LDI  R27,HIGH(_strsec)
	JMP  _lcd_puts

;OPTIMIZER ADDED SUBROUTINE, CALLED 2 TIMES, CODE SIZE REDUCTION:25 WORDS
SUBOPT_0xB:
	CALL __SAVELOCR6
	LDI  R17,0
	LDI  R16,0
	LDI  R19,0
	__GETWRN 20,21,0
	LDI  R18,0
	LDD  R30,Y+18
	LDI  R31,0
	ADIW R30,7
	MOVW R26,R30
	LDS  R30,_firstchar
	LDI  R31,0
	CALL __SWAPW12
	SUB  R30,R26
	SBC  R31,R27
	LDS  R26,_FontPointer
	LDS  R27,_FontPointer+1
	ADD  R30,R26
	ADC  R31,R27
	LPM  R0,Z
	STS  _charwidth,R0
	LDD  R26,Y+18
	CPI  R26,LOW(0xA)
	RET

;OPTIMIZER ADDED SUBROUTINE, CALLED 3 TIMES, CODE SIZE REDUCTION:3 WORDS
SUBOPT_0xC:
	LDI  R30,LOW(0)
	STS  _cursorX,R30
	STS  _cursorX+1,R30
	RET

;OPTIMIZER ADDED SUBROUTINE, CALLED 2 TIMES, CODE SIZE REDUCTION:18 WORDS
SUBOPT_0xD:
	LDS  R26,_FontHeight
	CLR  R27
	LDS  R30,_FontSpaceY
	LDI  R31,0
	ADD  R26,R30
	ADC  R27,R31
	LDS  R30,_FontYScale
	LDI  R31,0
	CALL __MULW12U
	LDS  R26,_cursorY
	LDS  R27,_cursorY+1
	ADD  R30,R26
	ADC  R31,R27
	STS  _cursorY,R30
	STS  _cursorY+1,R31
	RET

;OPTIMIZER ADDED SUBROUTINE, CALLED 6 TIMES, CODE SIZE REDUCTION:17 WORDS
SUBOPT_0xE:
	LDS  R26,_charwidth
	CLR  R27
	LDS  R30,_FontXScale
	LDI  R31,0
	RET

;OPTIMIZER ADDED SUBROUTINE, CALLED 3 TIMES, CODE SIZE REDUCTION:5 WORDS
SUBOPT_0xF:
	CALL __MULW12U
	LDS  R26,_cursorX
	LDS  R27,_cursorX+1
	RET

;OPTIMIZER ADDED SUBROUTINE, CALLED 4 TIMES, CODE SIZE REDUCTION:9 WORDS
SUBOPT_0x10:
	SUB  R26,R30
	SBC  R27,R31
	STS  _cursorX,R26
	STS  _cursorX+1,R27
	RET

;OPTIMIZER ADDED SUBROUTINE, CALLED 5 TIMES, CODE SIZE REDUCTION:5 WORDS
SUBOPT_0x11:
	CALL __SWAPW12
	SUB  R30,R26
	SBC  R31,R27
	RET

;OPTIMIZER ADDED SUBROUTINE, CALLED 5 TIMES, CODE SIZE REDUCTION:13 WORDS
SUBOPT_0x12:
	LDS  R26,_FontPointer
	LDS  R27,_FontPointer+1
	ADD  R30,R26
	ADC  R31,R27
	RET

;OPTIMIZER ADDED SUBROUTINE, CALLED 2 TIMES, CODE SIZE REDUCTION:1 WORDS
SUBOPT_0x13:
	CALL __MULW12
	LDS  R26,_cursorX
	LDS  R27,_cursorX+1
	RET

;OPTIMIZER ADDED SUBROUTINE, CALLED 2 TIMES, CODE SIZE REDUCTION:13 WORDS
SUBOPT_0x14:
	LDS  R26,_FontHeight
	CLR  R27
	LDS  R30,_FontYScale
	LDI  R31,0
	CALL __MULW12U
	LDS  R26,_cursorY
	LDS  R27,_cursorY+1
	ADD  R30,R26
	ADC  R31,R27
	STS  _cursorY,R30
	STS  _cursorY+1,R31
	RET

;OPTIMIZER ADDED SUBROUTINE, CALLED 2 TIMES, CODE SIZE REDUCTION:2 WORDS
SUBOPT_0x15:
	LDD  R26,Y+18
	CLR  R27
	LDS  R30,_firstchar
	LDI  R31,0
	RJMP SUBOPT_0x11

;OPTIMIZER ADDED SUBROUTINE, CALLED 2 TIMES, CODE SIZE REDUCTION:3 WORDS
SUBOPT_0x16:
	LPM  R30,Z
	LDI  R31,0
	LDD  R26,Y+16
	LDD  R27,Y+16+1
	ADD  R30,R26
	ADC  R31,R27
	STD  Y+16,R30
	STD  Y+16+1,R31
	RET

;OPTIMIZER ADDED SUBROUTINE, CALLED 2 TIMES, CODE SIZE REDUCTION:12 WORDS
SUBOPT_0x17:
	LDS  R30,_FontHeight
	LDI  R31,0
	LDD  R26,Y+16
	LDD  R27,Y+16+1
	CALL __MULW12U
	STD  Y+16,R30
	STD  Y+16+1,R31
	LDS  R26,_lastchar
	CLR  R27
	LDS  R30,_firstchar
	LDI  R31,0
	RJMP SUBOPT_0x11

;OPTIMIZER ADDED SUBROUTINE, CALLED 2 TIMES, CODE SIZE REDUCTION:22 WORDS
SUBOPT_0x18:
	ADIW R30,7
	CALL __LSLW3
	LDD  R26,Y+16
	LDD  R27,Y+16+1
	ADD  R30,R26
	ADC  R31,R27
	STD  Y+16,R30
	STD  Y+16+1,R31
	CALL __LSRW3
	STD  Y+14,R30
	STD  Y+14+1,R31
	LDD  R30,Y+16
	ANDI R30,LOW(0x7)
	MOV  R16,R30
	LDI  R31,0
	LDI  R26,LOW(7)
	LDI  R27,HIGH(7)
	CALL __MANDW12
	MOV  R19,R30
	LDI  R30,LOW(0)
	STD  Y+9,R30
	RET

;OPTIMIZER ADDED SUBROUTINE, CALLED 2 TIMES, CODE SIZE REDUCTION:3 WORDS
SUBOPT_0x19:
	MOVW R30,R20
	LDD  R26,Y+14
	LDD  R27,Y+14+1
	ADD  R30,R26
	ADC  R31,R27
	ADIW R30,1
	RJMP SUBOPT_0x12

;OPTIMIZER ADDED SUBROUTINE, CALLED 2 TIMES, CODE SIZE REDUCTION:3 WORDS
SUBOPT_0x1A:
	LPM  R17,Z
	LDD  R26,Y+9
	CLR  R27
	LDS  R30,_FontXScale
	LDI  R31,0
	RJMP SUBOPT_0xF

;OPTIMIZER ADDED SUBROUTINE, CALLED 2 TIMES, CODE SIZE REDUCTION:2 WORDS
SUBOPT_0x1B:
	ADD  R30,R26
	ADC  R31,R27
	STD  Y+12,R30
	STD  Y+12+1,R31
	LDS  R30,_Horizontal
	CPI  R30,0
	RET

;OPTIMIZER ADDED SUBROUTINE, CALLED 4 TIMES, CODE SIZE REDUCTION:12 WORDS
SUBOPT_0x1C:
	LDS  R26,_FontHeight
	CLR  R27
	LDD  R30,Y+8
	LDI  R31,0
	SUB  R26,R30
	SBC  R27,R31
	RET

;OPTIMIZER ADDED SUBROUTINE, CALLED 4 TIMES, CODE SIZE REDUCTION:24 WORDS
SUBOPT_0x1D:
	LDI  R31,0
	CALL __MULW12U
	LDS  R26,_cursorY
	LDS  R27,_cursorY+1
	ADD  R30,R26
	ADC  R31,R27
	STD  Y+10,R30
	STD  Y+10+1,R31
	RET

;OPTIMIZER ADDED SUBROUTINE, CALLED 2 TIMES, CODE SIZE REDUCTION:5 WORDS
SUBOPT_0x1E:
	MOV  R30,R19
	LDI  R26,LOW(1)
	LDI  R27,HIGH(1)
	CALL __LSLW12
	MOV  R26,R17
	LDI  R27,0
	AND  R30,R26
	AND  R31,R27
	SBIW R30,0
	RET

;OPTIMIZER ADDED SUBROUTINE, CALLED 4 TIMES, CODE SIZE REDUCTION:9 WORDS
SUBOPT_0x1F:
	LDD  R30,Y+6
	LDD  R26,Y+10
	ADD  R30,R26
	ST   -Y,R30
	LDD  R30,Y+8
	LDD  R26,Y+13
	RET

;OPTIMIZER ADDED SUBROUTINE, CALLED 4 TIMES, CODE SIZE REDUCTION:9 WORDS
SUBOPT_0x20:
	LDD  R30,Y+7
	LDD  R26,Y+12
	ADD  R30,R26
	ST   -Y,R30
	LDD  R30,Y+7
	LDD  R26,Y+11
	RET

;OPTIMIZER ADDED SUBROUTINE, CALLED 2 TIMES, CODE SIZE REDUCTION:7 WORDS
SUBOPT_0x21:
	CALL __MULW12U
	MOVW R26,R30
	LDS  R30,_FontSpaceX
	LDI  R31,0
	ADD  R30,R26
	ADC  R31,R27
	LDS  R26,_cursorX
	LDS  R27,_cursorX+1
	RET

;OPTIMIZER ADDED SUBROUTINE, CALLED 4 TIMES, CODE SIZE REDUCTION:3 WORDS
SUBOPT_0x22:
	STS  _cursorX,R30
	STS  _cursorX+1,R31
	RET

;OPTIMIZER ADDED SUBROUTINE, CALLED 2 TIMES, CODE SIZE REDUCTION:1 WORDS
SUBOPT_0x23:
	CALL __MULW12U
	LDI  R26,LOW(127)
	LDI  R27,HIGH(127)
	RJMP SUBOPT_0x10

;OPTIMIZER ADDED SUBROUTINE, CALLED 2 TIMES, CODE SIZE REDUCTION:1 WORDS
SUBOPT_0x24:
	LDI  R30,LOW(0)
	ST   Y,R30
	STD  Y+1,R30
	STD  Y+2,R30
	RET

;OPTIMIZER ADDED SUBROUTINE, CALLED 4 TIMES, CODE SIZE REDUCTION:3 WORDS
SUBOPT_0x25:
	LDD  R26,Y+59
	LDD  R27,Y+59+1
	ADD  R26,R30
	ADC  R27,R31
	RET

;OPTIMIZER ADDED SUBROUTINE, CALLED 3 TIMES, CODE SIZE REDUCTION:9 WORDS
SUBOPT_0x26:
	LDD  R30,Y+6
	LDD  R31,Y+6+1
	ADIW R30,1
	STD  Y+6,R30
	STD  Y+6+1,R31
	SBIW R30,1
	RJMP SUBOPT_0x25

;OPTIMIZER ADDED SUBROUTINE, CALLED 3 TIMES, CODE SIZE REDUCTION:11 WORDS
SUBOPT_0x27:
	LDI  R31,0
	SUBI R30,LOW(193)
	SBCI R31,HIGH(193)
	LDI  R26,LOW(6)
	LDI  R27,HIGH(6)
	CALL __MULW12U
	SUBI R30,LOW(-_PEmap*2)
	SBCI R31,HIGH(-_PEmap*2)
	RET

;OPTIMIZER ADDED SUBROUTINE, CALLED 5 TIMES, CODE SIZE REDUCTION:5 WORDS
SUBOPT_0x28:
	LDS  R30,_FontPointer
	LDS  R31,_FontPointer+1
	RET

;OPTIMIZER ADDED SUBROUTINE, CALLED 2 TIMES, CODE SIZE REDUCTION:6 WORDS
SUBOPT_0x29:
	LDS  R26,_FontWidth
	CLR  R27
	LDS  R30,_FontXScale
	LDI  R31,0
	CALL __MULW12U
	MOVW R26,R30
	LD   R30,Y
	LDI  R31,0
	RET

;OPTIMIZER ADDED SUBROUTINE, CALLED 2 TIMES, CODE SIZE REDUCTION:2 WORDS
SUBOPT_0x2A:
	ST   -Y,R27
	ST   -Y,R26
	CALL _i2c_start
	LDI  R26,LOW(208)
	JMP  _i2c_write

;OPTIMIZER ADDED SUBROUTINE, CALLED 2 TIMES, CODE SIZE REDUCTION:7 WORDS
SUBOPT_0x2B:
	CALL _i2c_write
	CALL _i2c_stop
	CALL _i2c_start
	LDI  R26,LOW(209)
	CALL _i2c_write
	LDI  R26,LOW(1)
	JMP  _i2c_read

;OPTIMIZER ADDED SUBROUTINE, CALLED 2 TIMES, CODE SIZE REDUCTION:1 WORDS
SUBOPT_0x2C:
	MOV  R26,R30
	CALL _bcd2bin
	LD   R26,Y
	LDD  R27,Y+1
	ST   X,R30
	RET

;OPTIMIZER ADDED SUBROUTINE, CALLED 3 TIMES, CODE SIZE REDUCTION:5 WORDS
SUBOPT_0x2D:
	LDI  R26,LOW(1)
	CALL _i2c_read
	MOV  R26,R30
	JMP  _bcd2bin

;OPTIMIZER ADDED SUBROUTINE, CALLED 2 TIMES, CODE SIZE REDUCTION:1 WORDS
SUBOPT_0x2E:
	LDD  R26,Y+2
	LDD  R27,Y+2+1
	ST   X,R30
	LDI  R26,LOW(0)
	JMP  _i2c_read

;OPTIMIZER ADDED SUBROUTINE, CALLED 3 TIMES, CODE SIZE REDUCTION:3 WORDS
SUBOPT_0x2F:
	CALL _st7920_delay_G101
	SBI  0x1B,0
	JMP  _st7920_delay_G101

;OPTIMIZER ADDED SUBROUTINE, CALLED 5 TIMES, CODE SIZE REDUCTION:13 WORDS
SUBOPT_0x30:
	LDS  R30,_st7920_graphics_on_G101
	ORI  R30,0x20
	MOV  R26,R30
	JMP  _st7920_wrcmd

;OPTIMIZER ADDED SUBROUTINE, CALLED 5 TIMES, CODE SIZE REDUCTION:13 WORDS
SUBOPT_0x31:
	LDS  R30,_st7920_graphics_on_G101
	ORI  R30,LOW(0x24)
	MOV  R26,R30
	JMP  _st7920_wrcmd

;OPTIMIZER ADDED SUBROUTINE, CALLED 4 TIMES, CODE SIZE REDUCTION:6 WORDS
SUBOPT_0x32:
	CALL _st7920_rdbyte_G101
	MOV  R26,R30
	JMP  _glcd_revbits

;OPTIMIZER ADDED SUBROUTINE, CALLED 3 TIMES, CODE SIZE REDUCTION:1 WORDS
SUBOPT_0x33:
	ADD  R30,R26
	ADC  R31,R27
	STD  Y+6,R30
	STD  Y+6+1,R31
	RET

;OPTIMIZER ADDED SUBROUTINE, CALLED 2 TIMES, CODE SIZE REDUCTION:8 WORDS
SUBOPT_0x34:
	LDD  R30,Y+16
	ST   -Y,R30
	LDD  R30,Y+7
	LDD  R31,Y+7+1
	ADIW R30,1
	STD  Y+7,R30
	STD  Y+7+1,R31
	SBIW R30,1
	ST   -Y,R31
	ST   -Y,R30
	LDI  R26,LOW(0)
	JMP  _glcd_writemem

;OPTIMIZER ADDED SUBROUTINE, CALLED 2 TIMES, CODE SIZE REDUCTION:3 WORDS
SUBOPT_0x35:
	LDD  R30,Y+16
	ST   -Y,R30
	LDD  R26,Y+7
	LDD  R27,Y+7+1
	CLR  R24
	CLR  R25
	JMP  _glcd_readmem

;OPTIMIZER ADDED SUBROUTINE, CALLED 4 TIMES, CODE SIZE REDUCTION:3 WORDS
SUBOPT_0x36:
	LDD  R30,Y+16
	ST   -Y,R30
	LDD  R30,Y+7
	LDD  R31,Y+7+1
	RET

;OPTIMIZER ADDED SUBROUTINE, CALLED 2 TIMES, CODE SIZE REDUCTION:1 WORDS
SUBOPT_0x37:
	ST   -Y,R30
	LDD  R30,Y+14
	ST   -Y,R30
	LDD  R26,Y+17
	JMP  _st7920_wrmasked_G101

;OPTIMIZER ADDED SUBROUTINE, CALLED 2 TIMES, CODE SIZE REDUCTION:2 WORDS
SUBOPT_0x38:
	LDD  R26,Y+1
	LDD  R27,Y+1+1
	LD   R30,X+
	STD  Y+1,R26
	STD  Y+1+1,R27
	MOV  R17,R30
	CPI  R30,0
	RET

;OPTIMIZER ADDED SUBROUTINE, CALLED 2 TIMES, CODE SIZE REDUCTION:1 WORDS
SUBOPT_0x39:
	ST   -Y,R27
	ST   -Y,R26
	LD   R26,Y
	LDD  R27,Y+1
	CALL __CPW02
	RET

;OPTIMIZER ADDED SUBROUTINE, CALLED 2 TIMES, CODE SIZE REDUCTION:1 WORDS
SUBOPT_0x3A:
	CALL __SAVELOCR6
	__GETW1MN _glcd_state,4
	RET

;OPTIMIZER ADDED SUBROUTINE, CALLED 3 TIMES, CODE SIZE REDUCTION:1 WORDS
SUBOPT_0x3B:
	MOVW R30,R16
	__ADDWRN 16,17,1
	LPM  R0,Z
	RET

;OPTIMIZER ADDED SUBROUTINE, CALLED 4 TIMES, CODE SIZE REDUCTION:9 WORDS
SUBOPT_0x3C:
	__GETW1MN _glcd_state,4
	ADIW R30,1
	LPM  R30,Z
	RET

;OPTIMIZER ADDED SUBROUTINE, CALLED 3 TIMES, CODE SIZE REDUCTION:1 WORDS
SUBOPT_0x3D:
	CALL _glcd_clipy
	__PUTB1MN _glcd_state,3
	RET

;OPTIMIZER ADDED SUBROUTINE, CALLED 2 TIMES, CODE SIZE REDUCTION:1 WORDS
SUBOPT_0x3E:
	__GETB1MN _glcd_state,2
	ST   -Y,R30
	__GETB1MN _glcd_state,3
	ST   -Y,R30
	RET

;OPTIMIZER ADDED SUBROUTINE, CALLED 3 TIMES, CODE SIZE REDUCTION:1 WORDS
SUBOPT_0x3F:
	CALL _glcd_block
	__GETB1MN _glcd_state,2
	RET

;OPTIMIZER ADDED SUBROUTINE, CALLED 3 TIMES, CODE SIZE REDUCTION:9 WORDS
SUBOPT_0x40:
	ST   -Y,R30
	LDI  R30,LOW(0)
	ST   -Y,R30
	LDI  R30,LOW(0)
	LDI  R31,HIGH(0)
	ST   -Y,R31
	ST   -Y,R30
	LDI  R26,LOW(9)
	RET

;OPTIMIZER ADDED SUBROUTINE, CALLED 2 TIMES, CODE SIZE REDUCTION:3 WORDS
SUBOPT_0x41:
	ST   -Y,R27
	ST   -Y,R26
	ST   -Y,R17
	LDD  R30,Y+4
	ST   -Y,R30
	LDD  R26,Y+4
	JMP  _glcd_moveto

;OPTIMIZER ADDED SUBROUTINE, CALLED 3 TIMES, CODE SIZE REDUCTION:1 WORDS
SUBOPT_0x42:
	STD  Y+5,R30
	STD  Y+5+1,R31
	RET

;OPTIMIZER ADDED SUBROUTINE, CALLED 3 TIMES, CODE SIZE REDUCTION:1 WORDS
SUBOPT_0x43:
	LDD  R30,Y+6
	LDD  R31,Y+6+1
	ST   -Y,R31
	ST   -Y,R30
	RET

;OPTIMIZER ADDED SUBROUTINE, CALLED 5 TIMES, CODE SIZE REDUCTION:5 WORDS
SUBOPT_0x44:
	__PUTD1S 9
	RET

;OPTIMIZER ADDED SUBROUTINE, CALLED 5 TIMES, CODE SIZE REDUCTION:13 WORDS
SUBOPT_0x45:
	LDD  R26,Y+6
	LDD  R27,Y+6+1
	ADIW R26,1
	STD  Y+6,R26
	STD  Y+6+1,R27
	SBIW R26,1
	RET

;OPTIMIZER ADDED SUBROUTINE, CALLED 4 TIMES, CODE SIZE REDUCTION:3 WORDS
SUBOPT_0x46:
	__GETD2S 2
	RET

;OPTIMIZER ADDED SUBROUTINE, CALLED 5 TIMES, CODE SIZE REDUCTION:13 WORDS
SUBOPT_0x47:
	__GETD1N 0x3DCCCCCD
	CALL __MULF12
	RET

;OPTIMIZER ADDED SUBROUTINE, CALLED 4 TIMES, CODE SIZE REDUCTION:3 WORDS
SUBOPT_0x48:
	__PUTD1S 2
	RET

;OPTIMIZER ADDED SUBROUTINE, CALLED 3 TIMES, CODE SIZE REDUCTION:9 WORDS
SUBOPT_0x49:
	__GETD1S 2
	__GETD2S 9
	RET

;OPTIMIZER ADDED SUBROUTINE, CALLED 7 TIMES, CODE SIZE REDUCTION:21 WORDS
SUBOPT_0x4A:
	__GETD1N 0x41200000
	CALL __MULF12
	RET

;OPTIMIZER ADDED SUBROUTINE, CALLED 3 TIMES, CODE SIZE REDUCTION:5 WORDS
SUBOPT_0x4B:
	__GETD2N 0x3F000000
	CALL __ADDF12
	RET

;OPTIMIZER ADDED SUBROUTINE, CALLED 3 TIMES, CODE SIZE REDUCTION:1 WORDS
SUBOPT_0x4C:
	__GETD2S 9
	RET

;OPTIMIZER ADDED SUBROUTINE, CALLED 2 TIMES, CODE SIZE REDUCTION:1 WORDS
SUBOPT_0x4D:
	CALL __SWAPD12
	CALL __SUBF12
	RJMP SUBOPT_0x44

;OPTIMIZER ADDED SUBROUTINE, CALLED 3 TIMES, CODE SIZE REDUCTION:3 WORDS
SUBOPT_0x4E:
	LD   R30,X+
	LD   R31,X+
	ADIW R30,1
	ST   -X,R31
	ST   -X,R30
	RET

;OPTIMIZER ADDED SUBROUTINE, CALLED 4 TIMES, CODE SIZE REDUCTION:9 WORDS
SUBOPT_0x4F:
	__GETD2S 4
	RJMP SUBOPT_0x4A

;OPTIMIZER ADDED SUBROUTINE, CALLED 5 TIMES, CODE SIZE REDUCTION:5 WORDS
SUBOPT_0x50:
	__PUTD1S 4
	RET

;OPTIMIZER ADDED SUBROUTINE, CALLED 4 TIMES, CODE SIZE REDUCTION:21 WORDS
SUBOPT_0x51:
	__GETD1S 4
	__GETD2S 12
	CALL __CMPF12
	RET

;OPTIMIZER ADDED SUBROUTINE, CALLED 5 TIMES, CODE SIZE REDUCTION:5 WORDS
SUBOPT_0x52:
	__GETD2S 12
	RET

;OPTIMIZER ADDED SUBROUTINE, CALLED 5 TIMES, CODE SIZE REDUCTION:5 WORDS
SUBOPT_0x53:
	__PUTD1S 12
	RET

;OPTIMIZER ADDED SUBROUTINE, CALLED 2 TIMES, CODE SIZE REDUCTION:1 WORDS
SUBOPT_0x54:
	LDD  R26,Y+8
	LDD  R27,Y+8+1
	ADIW R26,1
	STD  Y+8,R26
	STD  Y+8+1,R27
	SBIW R26,1
	RET

;OPTIMIZER ADDED SUBROUTINE, CALLED 4 TIMES, CODE SIZE REDUCTION:6 WORDS
SUBOPT_0x55:
	LDD  R30,Y+8
	LDD  R31,Y+8+1
	ADIW R30,1
	STD  Y+8,R30
	STD  Y+8+1,R31
	RET

;OPTIMIZER ADDED SUBROUTINE, CALLED 5 TIMES, CODE SIZE REDUCTION:13 WORDS
SUBOPT_0x56:
	ST   -Y,R18
	LDD  R26,Y+7
	LDD  R27,Y+7+1
	LDD  R30,Y+9
	LDD  R31,Y+9+1
	ICALL
	RET

;OPTIMIZER ADDED SUBROUTINE, CALLED 8 TIMES, CODE SIZE REDUCTION:25 WORDS
SUBOPT_0x57:
	__GETW1SX 90
	RET

;OPTIMIZER ADDED SUBROUTINE, CALLED 7 TIMES, CODE SIZE REDUCTION:21 WORDS
SUBOPT_0x58:
	SBIW R30,4
	__PUTW1SX 90
	RET

;OPTIMIZER ADDED SUBROUTINE, CALLED 4 TIMES, CODE SIZE REDUCTION:6 WORDS
SUBOPT_0x59:
	LDD  R26,Y+7
	LDD  R27,Y+7+1
	LDD  R30,Y+9
	LDD  R31,Y+9+1
	ICALL
	RET

;OPTIMIZER ADDED SUBROUTINE, CALLED 6 TIMES, CODE SIZE REDUCTION:17 WORDS
SUBOPT_0x5A:
	__GETW2SX 90
	RET

;OPTIMIZER ADDED SUBROUTINE, CALLED 4 TIMES, CODE SIZE REDUCTION:3 WORDS
SUBOPT_0x5B:
	__PUTD1S 10
	RET

;OPTIMIZER ADDED SUBROUTINE, CALLED 6 TIMES, CODE SIZE REDUCTION:7 WORDS
SUBOPT_0x5C:
	RCALL SUBOPT_0x57
	RJMP SUBOPT_0x58

;OPTIMIZER ADDED SUBROUTINE, CALLED 4 TIMES, CODE SIZE REDUCTION:3 WORDS
SUBOPT_0x5D:
	__GETD1S 10
	RET

;OPTIMIZER ADDED SUBROUTINE, CALLED 2 TIMES, CODE SIZE REDUCTION:2 WORDS
SUBOPT_0x5E:
	STD  Y+14,R30
	STD  Y+14+1,R31
	LDD  R26,Y+14
	LDD  R27,Y+14+1
	CALL _strlen
	MOV  R17,R30
	RET

;OPTIMIZER ADDED SUBROUTINE, CALLED 4 TIMES, CODE SIZE REDUCTION:6 WORDS
SUBOPT_0x5F:
	RCALL SUBOPT_0x5A
	ADIW R26,4
	CALL __GETW1P
	RET

;OPTIMIZER ADDED SUBROUTINE, CALLED 5 TIMES, CODE SIZE REDUCTION:5 WORDS
SUBOPT_0x60:
	__PUTD1S 16
	RET

;OPTIMIZER ADDED SUBROUTINE, CALLED 2 TIMES, CODE SIZE REDUCTION:12 WORDS
SUBOPT_0x61:
	ANDI R16,LOW(251)
	LDD  R30,Y+21
	ST   -Y,R30
	__GETW2SX 87
	__GETW1SX 89
	ICALL
	CPI  R21,0
	RET

;OPTIMIZER ADDED SUBROUTINE, CALLED 2 TIMES, CODE SIZE REDUCTION:3 WORDS
SUBOPT_0x62:
	__GETD1S 16
	__GETD2S 10
	RET

;OPTIMIZER ADDED SUBROUTINE, CALLED 2 TIMES, CODE SIZE REDUCTION:1 WORDS
SUBOPT_0x63:
	MOVW R26,R28
	ADIW R26,12
	CALL __ADDW2R15
	CALL __GETW1P
	RET


	.CSEG
	.equ __sda_bit=1
	.equ __scl_bit=0
	.equ __i2c_port=0x15 ;PORTC
	.equ __i2c_dir=__i2c_port-1
	.equ __i2c_pin=__i2c_port-2

_i2c_init:
	cbi  __i2c_port,__scl_bit
	cbi  __i2c_port,__sda_bit
	sbi  __i2c_dir,__scl_bit
	cbi  __i2c_dir,__sda_bit
	rjmp __i2c_delay2
_i2c_start:
	cbi  __i2c_dir,__sda_bit
	cbi  __i2c_dir,__scl_bit
	clr  r30
	nop
	sbis __i2c_pin,__sda_bit
	ret
	sbis __i2c_pin,__scl_bit
	ret
	rcall __i2c_delay1
	sbi  __i2c_dir,__sda_bit
	rcall __i2c_delay1
	sbi  __i2c_dir,__scl_bit
	ldi  r30,1
__i2c_delay1:
	ldi  r22,18
	rjmp __i2c_delay2l
_i2c_stop:
	sbi  __i2c_dir,__sda_bit
	sbi  __i2c_dir,__scl_bit
	rcall __i2c_delay2
	cbi  __i2c_dir,__scl_bit
	rcall __i2c_delay1
	cbi  __i2c_dir,__sda_bit
__i2c_delay2:
	ldi  r22,37
__i2c_delay2l:
	dec  r22
	brne __i2c_delay2l
	ret
_i2c_read:
	ldi  r23,8
__i2c_read0:
	cbi  __i2c_dir,__scl_bit
	rcall __i2c_delay1
__i2c_read3:
	sbis __i2c_pin,__scl_bit
	rjmp __i2c_read3
	rcall __i2c_delay1
	clc
	sbic __i2c_pin,__sda_bit
	sec
	sbi  __i2c_dir,__scl_bit
	rcall __i2c_delay2
	rol  r30
	dec  r23
	brne __i2c_read0
	mov  r23,r26
	tst  r23
	brne __i2c_read1
	cbi  __i2c_dir,__sda_bit
	rjmp __i2c_read2
__i2c_read1:
	sbi  __i2c_dir,__sda_bit
__i2c_read2:
	rcall __i2c_delay1
	cbi  __i2c_dir,__scl_bit
	rcall __i2c_delay2
	sbi  __i2c_dir,__scl_bit
	rcall __i2c_delay1
	cbi  __i2c_dir,__sda_bit
	rjmp __i2c_delay1

_i2c_write:
	ldi  r23,8
__i2c_write0:
	lsl  r26
	brcc __i2c_write1
	cbi  __i2c_dir,__sda_bit
	rjmp __i2c_write2
__i2c_write1:
	sbi  __i2c_dir,__sda_bit
__i2c_write2:
	rcall __i2c_delay2
	cbi  __i2c_dir,__scl_bit
	rcall __i2c_delay1
__i2c_write3:
	sbis __i2c_pin,__scl_bit
	rjmp __i2c_write3
	rcall __i2c_delay1
	sbi  __i2c_dir,__scl_bit
	dec  r23
	brne __i2c_write0
	cbi  __i2c_dir,__sda_bit
	rcall __i2c_delay1
	cbi  __i2c_dir,__scl_bit
	rcall __i2c_delay2
	ldi  r30,1
	sbic __i2c_pin,__sda_bit
	clr  r30
	sbi  __i2c_dir,__scl_bit
	rjmp __i2c_delay1

_delay_ms:
	adiw r26,0
	breq __delay_ms1
__delay_ms0:
	__DELAY_USW 0xACD
	wdr
	sbiw r26,1
	brne __delay_ms0
__delay_ms1:
	ret

	.equ __w1_port=0x18
	.equ __w1_bit=0x00

__ANEGF1:
	SBIW R30,0
	SBCI R22,0
	SBCI R23,0
	BREQ __ANEGF10
	SUBI R23,0x80
__ANEGF10:
	RET

__ROUND_REPACK:
	TST  R21
	BRPL __REPACK
	CPI  R21,0x80
	BRNE __ROUND_REPACK0
	SBRS R30,0
	RJMP __REPACK
__ROUND_REPACK0:
	ADIW R30,1
	ADC  R22,R25
	ADC  R23,R25
	BRVS __REPACK1

__REPACK:
	LDI  R21,0x80
	EOR  R21,R23
	BRNE __REPACK0
	PUSH R21
	RJMP __ZERORES
__REPACK0:
	CPI  R21,0xFF
	BREQ __REPACK1
	LSL  R22
	LSL  R0
	ROR  R21
	ROR  R22
	MOV  R23,R21
	RET
__REPACK1:
	PUSH R21
	TST  R0
	BRMI __REPACK2
	RJMP __MAXRES
__REPACK2:
	RJMP __MINRES

__UNPACK:
	LDI  R21,0x80
	MOV  R1,R25
	AND  R1,R21
	LSL  R24
	ROL  R25
	EOR  R25,R21
	LSL  R21
	ROR  R24

__UNPACK1:
	LDI  R21,0x80
	MOV  R0,R23
	AND  R0,R21
	LSL  R22
	ROL  R23
	EOR  R23,R21
	LSL  R21
	ROR  R22
	RET

__CFD1U:
	SET
	RJMP __CFD1U0
__CFD1:
	CLT
__CFD1U0:
	PUSH R21
	RCALL __UNPACK1
	CPI  R23,0x80
	BRLO __CFD10
	CPI  R23,0xFF
	BRCC __CFD10
	RJMP __ZERORES
__CFD10:
	LDI  R21,22
	SUB  R21,R23
	BRPL __CFD11
	NEG  R21
	CPI  R21,8
	BRTC __CFD19
	CPI  R21,9
__CFD19:
	BRLO __CFD17
	SER  R30
	SER  R31
	SER  R22
	LDI  R23,0x7F
	BLD  R23,7
	RJMP __CFD15
__CFD17:
	CLR  R23
	TST  R21
	BREQ __CFD15
__CFD18:
	LSL  R30
	ROL  R31
	ROL  R22
	ROL  R23
	DEC  R21
	BRNE __CFD18
	RJMP __CFD15
__CFD11:
	CLR  R23
__CFD12:
	CPI  R21,8
	BRLO __CFD13
	MOV  R30,R31
	MOV  R31,R22
	MOV  R22,R23
	SUBI R21,8
	RJMP __CFD12
__CFD13:
	TST  R21
	BREQ __CFD15
__CFD14:
	LSR  R23
	ROR  R22
	ROR  R31
	ROR  R30
	DEC  R21
	BRNE __CFD14
__CFD15:
	TST  R0
	BRPL __CFD16
	RCALL __ANEGD1
__CFD16:
	POP  R21
	RET

__CDF1U:
	SET
	RJMP __CDF1U0
__CDF1:
	CLT
__CDF1U0:
	SBIW R30,0
	SBCI R22,0
	SBCI R23,0
	BREQ __CDF10
	CLR  R0
	BRTS __CDF11
	TST  R23
	BRPL __CDF11
	COM  R0
	RCALL __ANEGD1
__CDF11:
	MOV  R1,R23
	LDI  R23,30
	TST  R1
__CDF12:
	BRMI __CDF13
	DEC  R23
	LSL  R30
	ROL  R31
	ROL  R22
	ROL  R1
	RJMP __CDF12
__CDF13:
	MOV  R30,R31
	MOV  R31,R22
	MOV  R22,R1
	PUSH R21
	RCALL __REPACK
	POP  R21
__CDF10:
	RET

__SWAPACC:
	PUSH R20
	MOVW R20,R30
	MOVW R30,R26
	MOVW R26,R20
	MOVW R20,R22
	MOVW R22,R24
	MOVW R24,R20
	MOV  R20,R0
	MOV  R0,R1
	MOV  R1,R20
	POP  R20
	RET

__UADD12:
	ADD  R30,R26
	ADC  R31,R27
	ADC  R22,R24
	RET

__NEGMAN1:
	COM  R30
	COM  R31
	COM  R22
	SUBI R30,-1
	SBCI R31,-1
	SBCI R22,-1
	RET

__SUBF12:
	PUSH R21
	RCALL __UNPACK
	CPI  R25,0x80
	BREQ __ADDF129
	LDI  R21,0x80
	EOR  R1,R21

	RJMP __ADDF120

__ADDF12:
	PUSH R21
	RCALL __UNPACK
	CPI  R25,0x80
	BREQ __ADDF129

__ADDF120:
	CPI  R23,0x80
	BREQ __ADDF128
__ADDF121:
	MOV  R21,R23
	SUB  R21,R25
	BRVS __ADDF1211
	BRPL __ADDF122
	RCALL __SWAPACC
	RJMP __ADDF121
__ADDF122:
	CPI  R21,24
	BRLO __ADDF123
	CLR  R26
	CLR  R27
	CLR  R24
__ADDF123:
	CPI  R21,8
	BRLO __ADDF124
	MOV  R26,R27
	MOV  R27,R24
	CLR  R24
	SUBI R21,8
	RJMP __ADDF123
__ADDF124:
	TST  R21
	BREQ __ADDF126
__ADDF125:
	LSR  R24
	ROR  R27
	ROR  R26
	DEC  R21
	BRNE __ADDF125
__ADDF126:
	MOV  R21,R0
	EOR  R21,R1
	BRMI __ADDF127
	RCALL __UADD12
	BRCC __ADDF129
	ROR  R22
	ROR  R31
	ROR  R30
	INC  R23
	BRVC __ADDF129
	RJMP __MAXRES
__ADDF128:
	RCALL __SWAPACC
__ADDF129:
	RCALL __REPACK
	POP  R21
	RET
__ADDF1211:
	BRCC __ADDF128
	RJMP __ADDF129
__ADDF127:
	SUB  R30,R26
	SBC  R31,R27
	SBC  R22,R24
	BREQ __ZERORES
	BRCC __ADDF1210
	COM  R0
	RCALL __NEGMAN1
__ADDF1210:
	TST  R22
	BRMI __ADDF129
	LSL  R30
	ROL  R31
	ROL  R22
	DEC  R23
	BRVC __ADDF1210

__ZERORES:
	CLR  R30
	CLR  R31
	CLR  R22
	CLR  R23
	POP  R21
	RET

__MINRES:
	SER  R30
	SER  R31
	LDI  R22,0x7F
	SER  R23
	POP  R21
	RET

__MAXRES:
	SER  R30
	SER  R31
	LDI  R22,0x7F
	LDI  R23,0x7F
	POP  R21
	RET

__MULF12:
	PUSH R21
	RCALL __UNPACK
	CPI  R23,0x80
	BREQ __ZERORES
	CPI  R25,0x80
	BREQ __ZERORES
	EOR  R0,R1
	SEC
	ADC  R23,R25
	BRVC __MULF124
	BRLT __ZERORES
__MULF125:
	TST  R0
	BRMI __MINRES
	RJMP __MAXRES
__MULF124:
	PUSH R0
	PUSH R17
	PUSH R18
	PUSH R19
	PUSH R20
	CLR  R17
	CLR  R18
	CLR  R25
	MUL  R22,R24
	MOVW R20,R0
	MUL  R24,R31
	MOV  R19,R0
	ADD  R20,R1
	ADC  R21,R25
	MUL  R22,R27
	ADD  R19,R0
	ADC  R20,R1
	ADC  R21,R25
	MUL  R24,R30
	RCALL __MULF126
	MUL  R27,R31
	RCALL __MULF126
	MUL  R22,R26
	RCALL __MULF126
	MUL  R27,R30
	RCALL __MULF127
	MUL  R26,R31
	RCALL __MULF127
	MUL  R26,R30
	ADD  R17,R1
	ADC  R18,R25
	ADC  R19,R25
	ADC  R20,R25
	ADC  R21,R25
	MOV  R30,R19
	MOV  R31,R20
	MOV  R22,R21
	MOV  R21,R18
	POP  R20
	POP  R19
	POP  R18
	POP  R17
	POP  R0
	TST  R22
	BRMI __MULF122
	LSL  R21
	ROL  R30
	ROL  R31
	ROL  R22
	RJMP __MULF123
__MULF122:
	INC  R23
	BRVS __MULF125
__MULF123:
	RCALL __ROUND_REPACK
	POP  R21
	RET

__MULF127:
	ADD  R17,R0
	ADC  R18,R1
	ADC  R19,R25
	RJMP __MULF128
__MULF126:
	ADD  R18,R0
	ADC  R19,R1
__MULF128:
	ADC  R20,R25
	ADC  R21,R25
	RET

__DIVF21:
	PUSH R21
	RCALL __UNPACK
	CPI  R23,0x80
	BRNE __DIVF210
	TST  R1
__DIVF211:
	BRPL __DIVF219
	RJMP __MINRES
__DIVF219:
	RJMP __MAXRES
__DIVF210:
	CPI  R25,0x80
	BRNE __DIVF218
__DIVF217:
	RJMP __ZERORES
__DIVF218:
	EOR  R0,R1
	SEC
	SBC  R25,R23
	BRVC __DIVF216
	BRLT __DIVF217
	TST  R0
	RJMP __DIVF211
__DIVF216:
	MOV  R23,R25
	PUSH R17
	PUSH R18
	PUSH R19
	PUSH R20
	CLR  R1
	CLR  R17
	CLR  R18
	CLR  R19
	CLR  R20
	CLR  R21
	LDI  R25,32
__DIVF212:
	CP   R26,R30
	CPC  R27,R31
	CPC  R24,R22
	CPC  R20,R17
	BRLO __DIVF213
	SUB  R26,R30
	SBC  R27,R31
	SBC  R24,R22
	SBC  R20,R17
	SEC
	RJMP __DIVF214
__DIVF213:
	CLC
__DIVF214:
	ROL  R21
	ROL  R18
	ROL  R19
	ROL  R1
	ROL  R26
	ROL  R27
	ROL  R24
	ROL  R20
	DEC  R25
	BRNE __DIVF212
	MOVW R30,R18
	MOV  R22,R1
	POP  R20
	POP  R19
	POP  R18
	POP  R17
	TST  R22
	BRMI __DIVF215
	LSL  R21
	ROL  R30
	ROL  R31
	ROL  R22
	DEC  R23
	BRVS __DIVF217
__DIVF215:
	RCALL __ROUND_REPACK
	POP  R21
	RET

__CMPF12:
	TST  R25
	BRMI __CMPF120
	TST  R23
	BRMI __CMPF121
	CP   R25,R23
	BRLO __CMPF122
	BRNE __CMPF121
	CP   R26,R30
	CPC  R27,R31
	CPC  R24,R22
	BRLO __CMPF122
	BREQ __CMPF123
__CMPF121:
	CLZ
	CLC
	RET
__CMPF122:
	CLZ
	SEC
	RET
__CMPF123:
	SEZ
	CLC
	RET
__CMPF120:
	TST  R23
	BRPL __CMPF122
	CP   R25,R23
	BRLO __CMPF121
	BRNE __CMPF122
	CP   R30,R26
	CPC  R31,R27
	CPC  R22,R24
	BRLO __CMPF122
	BREQ __CMPF123
	RJMP __CMPF121

__ADDW2R15:
	CLR  R0
	ADD  R26,R15
	ADC  R27,R0
	RET

__ANEGW1:
	NEG  R31
	NEG  R30
	SBCI R31,0
	RET

__ANEGD1:
	COM  R31
	COM  R22
	COM  R23
	NEG  R30
	SBCI R31,-1
	SBCI R22,-1
	SBCI R23,-1
	RET

__LSLB12:
	TST  R30
	MOV  R0,R30
	MOV  R30,R26
	BREQ __LSLB12R
__LSLB12L:
	LSL  R30
	DEC  R0
	BRNE __LSLB12L
__LSLB12R:
	RET

__LSRB12:
	TST  R30
	MOV  R0,R30
	MOV  R30,R26
	BREQ __LSRB12R
__LSRB12L:
	LSR  R30
	DEC  R0
	BRNE __LSRB12L
__LSRB12R:
	RET

__LSLW12:
	TST  R30
	MOV  R0,R30
	MOVW R30,R26
	BREQ __LSLW12R
__LSLW12L:
	LSL  R30
	ROL  R31
	DEC  R0
	BRNE __LSLW12L
__LSLW12R:
	RET

__LSLW3:
	LSL  R30
	ROL  R31
__LSLW2:
	LSL  R30
	ROL  R31
	LSL  R30
	ROL  R31
	RET

__LSRW3:
	LSR  R31
	ROR  R30
__LSRW2:
	LSR  R31
	ROR  R30
	LSR  R31
	ROR  R30
	RET

__CBD1:
	MOV  R31,R30
	ADD  R31,R31
	SBC  R31,R31
	MOV  R22,R31
	MOV  R23,R31
	RET

__CWD1:
	MOV  R22,R31
	ADD  R22,R22
	SBC  R22,R22
	MOV  R23,R22
	RET

__NEB12:
	CP   R30,R26
	LDI  R30,1
	BRNE __NEB12T
	CLR  R30
__NEB12T:
	RET

__MULW12U:
	MUL  R31,R26
	MOV  R31,R0
	MUL  R30,R27
	ADD  R31,R0
	MUL  R30,R26
	MOV  R30,R0
	ADD  R31,R1
	RET

__MULD12U:
	MUL  R23,R26
	MOV  R23,R0
	MUL  R22,R27
	ADD  R23,R0
	MUL  R31,R24
	ADD  R23,R0
	MUL  R30,R25
	ADD  R23,R0
	MUL  R22,R26
	MOV  R22,R0
	ADD  R23,R1
	MUL  R31,R27
	ADD  R22,R0
	ADC  R23,R1
	MUL  R30,R24
	ADD  R22,R0
	ADC  R23,R1
	CLR  R24
	MUL  R31,R26
	MOV  R31,R0
	ADD  R22,R1
	ADC  R23,R24
	MUL  R30,R27
	ADD  R31,R0
	ADC  R22,R1
	ADC  R23,R24
	MUL  R30,R26
	MOV  R30,R0
	ADD  R31,R1
	ADC  R22,R24
	ADC  R23,R24
	RET

__MULW12:
	RCALL __CHKSIGNW
	RCALL __MULW12U
	BRTC __MULW121
	RCALL __ANEGW1
__MULW121:
	RET

__DIVB21U:
	CLR  R0
	LDI  R25,8
__DIVB21U1:
	LSL  R26
	ROL  R0
	SUB  R0,R30
	BRCC __DIVB21U2
	ADD  R0,R30
	RJMP __DIVB21U3
__DIVB21U2:
	SBR  R26,1
__DIVB21U3:
	DEC  R25
	BRNE __DIVB21U1
	MOV  R30,R26
	MOV  R26,R0
	RET

__DIVB21:
	RCALL __CHKSIGNB
	RCALL __DIVB21U
	BRTC __DIVB211
	NEG  R30
__DIVB211:
	RET

__DIVD21U:
	PUSH R19
	PUSH R20
	PUSH R21
	CLR  R0
	CLR  R1
	CLR  R20
	CLR  R21
	LDI  R19,32
__DIVD21U1:
	LSL  R26
	ROL  R27
	ROL  R24
	ROL  R25
	ROL  R0
	ROL  R1
	ROL  R20
	ROL  R21
	SUB  R0,R30
	SBC  R1,R31
	SBC  R20,R22
	SBC  R21,R23
	BRCC __DIVD21U2
	ADD  R0,R30
	ADC  R1,R31
	ADC  R20,R22
	ADC  R21,R23
	RJMP __DIVD21U3
__DIVD21U2:
	SBR  R26,1
__DIVD21U3:
	DEC  R19
	BRNE __DIVD21U1
	MOVW R30,R26
	MOVW R22,R24
	MOVW R26,R0
	MOVW R24,R20
	POP  R21
	POP  R20
	POP  R19
	RET

__MODB21:
	CLT
	SBRS R26,7
	RJMP __MODB211
	NEG  R26
	SET
__MODB211:
	SBRC R30,7
	NEG  R30
	RCALL __DIVB21U
	MOV  R30,R26
	BRTC __MODB212
	NEG  R30
__MODB212:
	RET

__MANDW12:
	CLT
	SBRS R31,7
	RJMP __MANDW121
	RCALL __ANEGW1
	SET
__MANDW121:
	AND  R30,R26
	AND  R31,R27
	BRTC __MANDW122
	RCALL __ANEGW1
__MANDW122:
	RET

__MODD21U:
	RCALL __DIVD21U
	MOVW R30,R26
	MOVW R22,R24
	RET

__CHKSIGNB:
	CLT
	SBRS R30,7
	RJMP __CHKSB1
	NEG  R30
	SET
__CHKSB1:
	SBRS R26,7
	RJMP __CHKSB2
	NEG  R26
	BLD  R0,0
	INC  R0
	BST  R0,0
__CHKSB2:
	RET

__CHKSIGNW:
	CLT
	SBRS R31,7
	RJMP __CHKSW1
	RCALL __ANEGW1
	SET
__CHKSW1:
	SBRS R27,7
	RJMP __CHKSW2
	COM  R26
	COM  R27
	ADIW R26,1
	BLD  R0,0
	INC  R0
	BST  R0,0
__CHKSW2:
	RET

__GETW1P:
	LD   R30,X+
	LD   R31,X
	SBIW R26,1
	RET

__GETD1P:
	LD   R30,X+
	LD   R31,X+
	LD   R22,X+
	LD   R23,X
	SBIW R26,3
	RET

__GETW1PF:
	LPM  R0,Z+
	LPM  R31,Z
	MOV  R30,R0
	RET

__GETD1S0:
	LD   R30,Y
	LDD  R31,Y+1
	LDD  R22,Y+2
	LDD  R23,Y+3
	RET

__GETD2S0:
	LD   R26,Y
	LDD  R27,Y+1
	LDD  R24,Y+2
	LDD  R25,Y+3
	RET

__PUTD1S0:
	ST   Y,R30
	STD  Y+1,R31
	STD  Y+2,R22
	STD  Y+3,R23
	RET

__PUTPARD1:
	ST   -Y,R23
	ST   -Y,R22
	ST   -Y,R31
	ST   -Y,R30
	RET

__PUTPARD2:
	ST   -Y,R25
	ST   -Y,R24
	ST   -Y,R27
	ST   -Y,R26
	RET

__SWAPD12:
	MOV  R1,R24
	MOV  R24,R22
	MOV  R22,R1
	MOV  R1,R25
	MOV  R25,R23
	MOV  R23,R1

__SWAPW12:
	MOV  R1,R27
	MOV  R27,R31
	MOV  R31,R1

__SWAPB12:
	MOV  R1,R26
	MOV  R26,R30
	MOV  R30,R1
	RET

__EEPROMRDB:
	SBIC EECR,EEWE
	RJMP __EEPROMRDB
	PUSH R31
	IN   R31,SREG
	CLI
	OUT  EEARL,R26
	OUT  EEARH,R27
	SBI  EECR,EERE
	IN   R30,EEDR
	OUT  SREG,R31
	POP  R31
	RET

__EEPROMWRB:
	SBIS EECR,EEWE
	RJMP __EEPROMWRB1
	WDR
	RJMP __EEPROMWRB
__EEPROMWRB1:
	IN   R25,SREG
	CLI
	OUT  EEARL,R26
	OUT  EEARH,R27
	SBI  EECR,EERE
	IN   R24,EEDR
	CP   R30,R24
	BREQ __EEPROMWRB0
	OUT  EEDR,R30
	SBI  EECR,EEMWE
	SBI  EECR,EEWE
__EEPROMWRB0:
	OUT  SREG,R25
	RET

__CPD10:
	SBIW R30,0
	SBCI R22,0
	SBCI R23,0
	RET

__CPW02:
	CLR  R0
	CP   R0,R26
	CPC  R0,R27
	RET

__SAVELOCR6:
	ST   -Y,R21
__SAVELOCR5:
	ST   -Y,R20
__SAVELOCR4:
	ST   -Y,R19
__SAVELOCR3:
	ST   -Y,R18
__SAVELOCR2:
	ST   -Y,R17
	ST   -Y,R16
	RET

__LOADLOCR6:
	LDD  R21,Y+5
__LOADLOCR5:
	LDD  R20,Y+4
__LOADLOCR4:
	LDD  R19,Y+3
__LOADLOCR3:
	LDD  R18,Y+2
__LOADLOCR2:
	LDD  R17,Y+1
	LD   R16,Y
	RET

__INITLOCB:
__INITLOCW:
	ADD  R26,R28
	ADC  R27,R29
__INITLOC0:
	LPM  R0,Z+
	ST   X+,R0
	DEC  R24
	BRNE __INITLOC0
	RET

;END OF CODE MARKER
__END_OF_CODE:
