
AVRASM ver. 2.1.30  C:\Users\Barouei\Desktop\Bms\sazman\14000514\Debug\List\st7920-4bit.asm Thu Aug 05 17:59:30 2021

C:\Users\Barouei\Desktop\Bms\sazman\14000514\Debug\List\st7920-4bit.asm(1087): warning: Register r5 already defined by the .DEF directive
C:\Users\Barouei\Desktop\Bms\sazman\14000514\Debug\List\st7920-4bit.asm(1088): warning: Register r4 already defined by the .DEF directive
C:\Users\Barouei\Desktop\Bms\sazman\14000514\Debug\List\st7920-4bit.asm(1089): warning: Register r7 already defined by the .DEF directive
C:\Users\Barouei\Desktop\Bms\sazman\14000514\Debug\List\st7920-4bit.asm(1090): warning: Register r6 already defined by the .DEF directive
C:\Users\Barouei\Desktop\Bms\sazman\14000514\Debug\List\st7920-4bit.asm(1091): warning: Register r9 already defined by the .DEF directive
C:\Users\Barouei\Desktop\Bms\sazman\14000514\Debug\List\st7920-4bit.asm(1092): warning: Register r8 already defined by the .DEF directive
C:\Users\Barouei\Desktop\Bms\sazman\14000514\Debug\List\st7920-4bit.asm(1093): warning: Register r11 already defined by the .DEF directive
C:\Users\Barouei\Desktop\Bms\sazman\14000514\Debug\List\st7920-4bit.asm(1094): warning: Register r10 already defined by the .DEF directive
C:\Users\Barouei\Desktop\Bms\sazman\14000514\Debug\List\st7920-4bit.asm(1095): warning: Register r13 already defined by the .DEF directive
C:\Users\Barouei\Desktop\Bms\sazman\14000514\Debug\List\st7920-4bit.asm(1096): warning: Register r12 already defined by the .DEF directive
                 
                 
                 ;CodeVisionAVR C Compiler V3.12 Advanced
                 ;(C) Copyright 1998-2014 Pavel Haiduc, HP InfoTech s.r.l.
                 ;http://www.hpinfotech.com
                 
                 ;Build configuration    : Debug
                 ;Chip type              : ATmega32A
                 ;Program type           : Application
                 ;Clock frequency        : 11.059200 MHz
                 ;Memory model           : Small
                 ;Optimize for           : Size
                 ;(s)printf features     : float, width, precision
                 ;(s)scanf features      : int, width
                 ;External RAM size      : 0
                 ;Data Stack size        : 512 byte(s)
                 ;Heap size              : 0 byte(s)
                 ;Promote 'char' to 'int': Yes
                 ;'char' is unsigned     : Yes
                 ;8 bit enums            : Yes
                 ;Global 'const' stored in FLASH: Yes
                 ;Enhanced function parameter passing: Yes
                 ;Enhanced core instructions: On
                 ;Automatic register allocation for global variables: On
                 ;Smart register allocation: On
                 
                 	#define _MODEL_SMALL_
                 
                 	#pragma AVRPART ADMIN PART_NAME ATmega32A
                 	#pragma AVRPART MEMORY PROG_FLASH 32768
                 	#pragma AVRPART MEMORY EEPROM 1024
                 	#pragma AVRPART MEMORY INT_SRAM SIZE 2048
                 	#pragma AVRPART MEMORY INT_SRAM START_ADDR 0x60
                 
                 	#define CALL_SUPPORTED 1
                 
                 	.LISTMAC
                 	.EQU UDRE=0x5
                 	.EQU RXC=0x7
                 	.EQU USR=0xB
                 	.EQU UDR=0xC
                 	.EQU SPSR=0xE
                 	.EQU SPDR=0xF
                 	.EQU EERE=0x0
                 	.EQU EEWE=0x1
                 	.EQU EEMWE=0x2
                 	.EQU EECR=0x1C
                 	.EQU EEDR=0x1D
                 	.EQU EEARL=0x1E
                 	.EQU EEARH=0x1F
                 	.EQU WDTCR=0x21
                 	.EQU MCUCR=0x35
                 	.EQU SPL=0x3D
                 	.EQU SPH=0x3E
                 	.EQU SREG=0x3F
                 
                 	.DEF R0X0=R0
                 	.DEF R0X1=R1
                 	.DEF R0X2=R2
                 	.DEF R0X3=R3
                 	.DEF R0X4=R4
                 	.DEF R0X5=R5
                 	.DEF R0X6=R6
                 	.DEF R0X7=R7
                 	.DEF R0X8=R8
                 	.DEF R0X9=R9
                 	.DEF R0XA=R10
                 	.DEF R0XB=R11
                 	.DEF R0XC=R12
                 	.DEF R0XD=R13
                 	.DEF R0XE=R14
                 	.DEF R0XF=R15
                 	.DEF R0X10=R16
                 	.DEF R0X11=R17
                 	.DEF R0X12=R18
                 	.DEF R0X13=R19
                 	.DEF R0X14=R20
                 	.DEF R0X15=R21
                 	.DEF R0X16=R22
                 	.DEF R0X17=R23
                 	.DEF R0X18=R24
                 	.DEF R0X19=R25
                 	.DEF R0X1A=R26
                 	.DEF R0X1B=R27
                 	.DEF R0X1C=R28
                 	.DEF R0X1D=R29
                 	.DEF R0X1E=R30
                 	.DEF R0X1F=R31
                 
                 	.EQU __SRAM_START=0x0060
                 	.EQU __SRAM_END=0x085F
                 	.EQU __DSTACK_SIZE=0x0200
                 	.EQU __HEAP_SIZE=0x0000
                 	.EQU __CLEAR_SRAM_SIZE=__SRAM_END-__SRAM_START+1
                 
                 	.MACRO __CPD1N
                 	CPI  R30,LOW(@0)
                 	LDI  R26,HIGH(@0)
                 	CPC  R31,R26
                 	LDI  R26,BYTE3(@0)
                 	CPC  R22,R26
                 	LDI  R26,BYTE4(@0)
                 	CPC  R23,R26
                 	.ENDM
                 
                 	.MACRO __CPD2N
                 	CPI  R26,LOW(@0)
                 	LDI  R30,HIGH(@0)
                 	CPC  R27,R30
                 	LDI  R30,BYTE3(@0)
                 	CPC  R24,R30
                 	LDI  R30,BYTE4(@0)
                 	CPC  R25,R30
                 	.ENDM
                 
                 	.MACRO __CPWRR
                 	CP   R@0,R@2
                 	CPC  R@1,R@3
                 	.ENDM
                 
                 	.MACRO __CPWRN
                 	CPI  R@0,LOW(@2)
                 	LDI  R30,HIGH(@2)
                 	CPC  R@1,R30
                 	.ENDM
                 
                 	.MACRO __ADDB1MN
                 	SUBI R30,LOW(-@0-(@1))
                 	.ENDM
                 
                 	.MACRO __ADDB2MN
                 	SUBI R26,LOW(-@0-(@1))
                 	.ENDM
                 
                 	.MACRO __ADDW1MN
                 	SUBI R30,LOW(-@0-(@1))
                 	SBCI R31,HIGH(-@0-(@1))
                 	.ENDM
                 
                 	.MACRO __ADDW2MN
                 	SUBI R26,LOW(-@0-(@1))
                 	SBCI R27,HIGH(-@0-(@1))
                 	.ENDM
                 
                 	.MACRO __ADDW1FN
                 	SUBI R30,LOW(-2*@0-(@1))
                 	SBCI R31,HIGH(-2*@0-(@1))
                 	.ENDM
                 
                 	.MACRO __ADDD1FN
                 	SUBI R30,LOW(-2*@0-(@1))
                 	SBCI R31,HIGH(-2*@0-(@1))
                 	SBCI R22,BYTE3(-2*@0-(@1))
                 	.ENDM
                 
                 	.MACRO __ADDD1N
                 	SUBI R30,LOW(-@0)
                 	SBCI R31,HIGH(-@0)
                 	SBCI R22,BYTE3(-@0)
                 	SBCI R23,BYTE4(-@0)
                 	.ENDM
                 
                 	.MACRO __ADDD2N
                 	SUBI R26,LOW(-@0)
                 	SBCI R27,HIGH(-@0)
                 	SBCI R24,BYTE3(-@0)
                 	SBCI R25,BYTE4(-@0)
                 	.ENDM
                 
                 	.MACRO __SUBD1N
                 	SUBI R30,LOW(@0)
                 	SBCI R31,HIGH(@0)
                 	SBCI R22,BYTE3(@0)
                 	SBCI R23,BYTE4(@0)
                 	.ENDM
                 
                 	.MACRO __SUBD2N
                 	SUBI R26,LOW(@0)
                 	SBCI R27,HIGH(@0)
                 	SBCI R24,BYTE3(@0)
                 	SBCI R25,BYTE4(@0)
                 	.ENDM
                 
                 	.MACRO __ANDBMNN
                 	LDS  R30,@0+(@1)
                 	ANDI R30,LOW(@2)
                 	STS  @0+(@1),R30
                 	.ENDM
                 
                 	.MACRO __ANDWMNN
                 	LDS  R30,@0+(@1)
                 	ANDI R30,LOW(@2)
                 	STS  @0+(@1),R30
                 	LDS  R30,@0+(@1)+1
                 	ANDI R30,HIGH(@2)
                 	STS  @0+(@1)+1,R30
                 	.ENDM
                 
                 	.MACRO __ANDD1N
                 	ANDI R30,LOW(@0)
                 	ANDI R31,HIGH(@0)
                 	ANDI R22,BYTE3(@0)
                 	ANDI R23,BYTE4(@0)
                 	.ENDM
                 
                 	.MACRO __ANDD2N
                 	ANDI R26,LOW(@0)
                 	ANDI R27,HIGH(@0)
                 	ANDI R24,BYTE3(@0)
                 	ANDI R25,BYTE4(@0)
                 	.ENDM
                 
                 	.MACRO __ORBMNN
                 	LDS  R30,@0+(@1)
                 	ORI  R30,LOW(@2)
                 	STS  @0+(@1),R30
                 	.ENDM
                 
                 	.MACRO __ORWMNN
                 	LDS  R30,@0+(@1)
                 	ORI  R30,LOW(@2)
                 	STS  @0+(@1),R30
                 	LDS  R30,@0+(@1)+1
                 	ORI  R30,HIGH(@2)
                 	STS  @0+(@1)+1,R30
                 	.ENDM
                 
                 	.MACRO __ORD1N
                 	ORI  R30,LOW(@0)
                 	ORI  R31,HIGH(@0)
                 	ORI  R22,BYTE3(@0)
                 	ORI  R23,BYTE4(@0)
                 	.ENDM
                 
                 	.MACRO __ORD2N
                 	ORI  R26,LOW(@0)
                 	ORI  R27,HIGH(@0)
                 	ORI  R24,BYTE3(@0)
                 	ORI  R25,BYTE4(@0)
                 	.ENDM
                 
                 	.MACRO __DELAY_USB
                 	LDI  R24,LOW(@0)
                 __DELAY_USB_LOOP:
                 	DEC  R24
                 	BRNE __DELAY_USB_LOOP
                 	.ENDM
                 
                 	.MACRO __DELAY_USW
                 	LDI  R24,LOW(@0)
                 	LDI  R25,HIGH(@0)
                 __DELAY_USW_LOOP:
                 	SBIW R24,1
                 	BRNE __DELAY_USW_LOOP
                 	.ENDM
                 
                 	.MACRO __GETD1S
                 	LDD  R30,Y+@0
                 	LDD  R31,Y+@0+1
                 	LDD  R22,Y+@0+2
                 	LDD  R23,Y+@0+3
                 	.ENDM
                 
                 	.MACRO __GETD2S
                 	LDD  R26,Y+@0
                 	LDD  R27,Y+@0+1
                 	LDD  R24,Y+@0+2
                 	LDD  R25,Y+@0+3
                 	.ENDM
                 
                 	.MACRO __PUTD1S
                 	STD  Y+@0,R30
                 	STD  Y+@0+1,R31
                 	STD  Y+@0+2,R22
                 	STD  Y+@0+3,R23
                 	.ENDM
                 
                 	.MACRO __PUTD2S
                 	STD  Y+@0,R26
                 	STD  Y+@0+1,R27
                 	STD  Y+@0+2,R24
                 	STD  Y+@0+3,R25
                 	.ENDM
                 
                 	.MACRO __PUTDZ2
                 	STD  Z+@0,R26
                 	STD  Z+@0+1,R27
                 	STD  Z+@0+2,R24
                 	STD  Z+@0+3,R25
                 	.ENDM
                 
                 	.MACRO __CLRD1S
                 	STD  Y+@0,R30
                 	STD  Y+@0+1,R30
                 	STD  Y+@0+2,R30
                 	STD  Y+@0+3,R30
                 	.ENDM
                 
                 	.MACRO __POINTB1MN
                 	LDI  R30,LOW(@0+(@1))
                 	.ENDM
                 
                 	.MACRO __POINTW1MN
                 	LDI  R30,LOW(@0+(@1))
                 	LDI  R31,HIGH(@0+(@1))
                 	.ENDM
                 
                 	.MACRO __POINTD1M
                 	LDI  R30,LOW(@0)
                 	LDI  R31,HIGH(@0)
                 	LDI  R22,BYTE3(@0)
                 	LDI  R23,BYTE4(@0)
                 	.ENDM
                 
                 	.MACRO __POINTW1FN
                 	LDI  R30,LOW(2*@0+(@1))
                 	LDI  R31,HIGH(2*@0+(@1))
                 	.ENDM
                 
                 	.MACRO __POINTD1FN
                 	LDI  R30,LOW(2*@0+(@1))
                 	LDI  R31,HIGH(2*@0+(@1))
                 	LDI  R22,BYTE3(2*@0+(@1))
                 	LDI  R23,BYTE4(2*@0+(@1))
                 	.ENDM
                 
                 	.MACRO __POINTB2MN
                 	LDI  R26,LOW(@0+(@1))
                 	.ENDM
                 
                 	.MACRO __POINTW2MN
                 	LDI  R26,LOW(@0+(@1))
                 	LDI  R27,HIGH(@0+(@1))
                 	.ENDM
                 
                 	.MACRO __POINTW2FN
                 	LDI  R26,LOW(2*@0+(@1))
                 	LDI  R27,HIGH(2*@0+(@1))
                 	.ENDM
                 
                 	.MACRO __POINTD2FN
                 	LDI  R26,LOW(2*@0+(@1))
                 	LDI  R27,HIGH(2*@0+(@1))
                 	LDI  R24,BYTE3(2*@0+(@1))
                 	LDI  R25,BYTE4(2*@0+(@1))
                 	.ENDM
                 
                 	.MACRO __POINTBRM
                 	LDI  R@0,LOW(@1)
                 	.ENDM
                 
                 	.MACRO __POINTWRM
                 	LDI  R@0,LOW(@2)
                 	LDI  R@1,HIGH(@2)
                 	.ENDM
                 
                 	.MACRO __POINTBRMN
                 	LDI  R@0,LOW(@1+(@2))
                 	.ENDM
                 
                 	.MACRO __POINTWRMN
                 	LDI  R@0,LOW(@2+(@3))
                 	LDI  R@1,HIGH(@2+(@3))
                 	.ENDM
                 
                 	.MACRO __POINTWRFN
                 	LDI  R@0,LOW(@2*2+(@3))
                 	LDI  R@1,HIGH(@2*2+(@3))
                 	.ENDM
                 
                 	.MACRO __GETD1N
                 	LDI  R30,LOW(@0)
                 	LDI  R31,HIGH(@0)
                 	LDI  R22,BYTE3(@0)
                 	LDI  R23,BYTE4(@0)
                 	.ENDM
                 
                 	.MACRO __GETD2N
                 	LDI  R26,LOW(@0)
                 	LDI  R27,HIGH(@0)
                 	LDI  R24,BYTE3(@0)
                 	LDI  R25,BYTE4(@0)
                 	.ENDM
                 
                 	.MACRO __GETB1MN
                 	LDS  R30,@0+(@1)
                 	.ENDM
                 
                 	.MACRO __GETB1HMN
                 	LDS  R31,@0+(@1)
                 	.ENDM
                 
                 	.MACRO __GETW1MN
                 	LDS  R30,@0+(@1)
                 	LDS  R31,@0+(@1)+1
                 	.ENDM
                 
                 	.MACRO __GETD1MN
                 	LDS  R30,@0+(@1)
                 	LDS  R31,@0+(@1)+1
                 	LDS  R22,@0+(@1)+2
                 	LDS  R23,@0+(@1)+3
                 	.ENDM
                 
                 	.MACRO __GETBRMN
                 	LDS  R@0,@1+(@2)
                 	.ENDM
                 
                 	.MACRO __GETWRMN
                 	LDS  R@0,@2+(@3)
                 	LDS  R@1,@2+(@3)+1
                 	.ENDM
                 
                 	.MACRO __GETWRZ
                 	LDD  R@0,Z+@2
                 	LDD  R@1,Z+@2+1
                 	.ENDM
                 
                 	.MACRO __GETD2Z
                 	LDD  R26,Z+@0
                 	LDD  R27,Z+@0+1
                 	LDD  R24,Z+@0+2
                 	LDD  R25,Z+@0+3
                 	.ENDM
                 
                 	.MACRO __GETB2MN
                 	LDS  R26,@0+(@1)
                 	.ENDM
                 
                 	.MACRO __GETW2MN
                 	LDS  R26,@0+(@1)
                 	LDS  R27,@0+(@1)+1
                 	.ENDM
                 
                 	.MACRO __GETD2MN
                 	LDS  R26,@0+(@1)
                 	LDS  R27,@0+(@1)+1
                 	LDS  R24,@0+(@1)+2
                 	LDS  R25,@0+(@1)+3
                 	.ENDM
                 
                 	.MACRO __PUTB1MN
                 	STS  @0+(@1),R30
                 	.ENDM
                 
                 	.MACRO __PUTW1MN
                 	STS  @0+(@1),R30
                 	STS  @0+(@1)+1,R31
                 	.ENDM
                 
                 	.MACRO __PUTD1MN
                 	STS  @0+(@1),R30
                 	STS  @0+(@1)+1,R31
                 	STS  @0+(@1)+2,R22
                 	STS  @0+(@1)+3,R23
                 	.ENDM
                 
                 	.MACRO __PUTB1EN
                 	LDI  R26,LOW(@0+(@1))
                 	LDI  R27,HIGH(@0+(@1))
                 	CALL __EEPROMWRB
                 	.ENDM
                 
                 	.MACRO __PUTW1EN
                 	LDI  R26,LOW(@0+(@1))
                 	LDI  R27,HIGH(@0+(@1))
                 	CALL __EEPROMWRW
                 	.ENDM
                 
                 	.MACRO __PUTD1EN
                 	LDI  R26,LOW(@0+(@1))
                 	LDI  R27,HIGH(@0+(@1))
                 	CALL __EEPROMWRD
                 	.ENDM
                 
                 	.MACRO __PUTBR0MN
                 	STS  @0+(@1),R0
                 	.ENDM
                 
                 	.MACRO __PUTBMRN
                 	STS  @0+(@1),R@2
                 	.ENDM
                 
                 	.MACRO __PUTWMRN
                 	STS  @0+(@1),R@2
                 	STS  @0+(@1)+1,R@3
                 	.ENDM
                 
                 	.MACRO __PUTBZR
                 	STD  Z+@1,R@0
                 	.ENDM
                 
                 	.MACRO __PUTWZR
                 	STD  Z+@2,R@0
                 	STD  Z+@2+1,R@1
                 	.ENDM
                 
                 	.MACRO __GETW1R
                 	MOV  R30,R@0
                 	MOV  R31,R@1
                 	.ENDM
                 
                 	.MACRO __GETW2R
                 	MOV  R26,R@0
                 	MOV  R27,R@1
                 	.ENDM
                 
                 	.MACRO __GETWRN
                 	LDI  R@0,LOW(@2)
                 	LDI  R@1,HIGH(@2)
                 	.ENDM
                 
                 	.MACRO __PUTW1R
                 	MOV  R@0,R30
                 	MOV  R@1,R31
                 	.ENDM
                 
                 	.MACRO __PUTW2R
                 	MOV  R@0,R26
                 	MOV  R@1,R27
                 	.ENDM
                 
                 	.MACRO __ADDWRN
                 	SUBI R@0,LOW(-@2)
                 	SBCI R@1,HIGH(-@2)
                 	.ENDM
                 
                 	.MACRO __ADDWRR
                 	ADD  R@0,R@2
                 	ADC  R@1,R@3
                 	.ENDM
                 
                 	.MACRO __SUBWRN
                 	SUBI R@0,LOW(@2)
                 	SBCI R@1,HIGH(@2)
                 	.ENDM
                 
                 	.MACRO __SUBWRR
                 	SUB  R@0,R@2
                 	SBC  R@1,R@3
                 	.ENDM
                 
                 	.MACRO __ANDWRN
                 	ANDI R@0,LOW(@2)
                 	ANDI R@1,HIGH(@2)
                 	.ENDM
                 
                 	.MACRO __ANDWRR
                 	AND  R@0,R@2
                 	AND  R@1,R@3
                 	.ENDM
                 
                 	.MACRO __ORWRN
                 	ORI  R@0,LOW(@2)
                 	ORI  R@1,HIGH(@2)
                 	.ENDM
                 
                 	.MACRO __ORWRR
                 	OR   R@0,R@2
                 	OR   R@1,R@3
                 	.ENDM
                 
                 	.MACRO __EORWRR
                 	EOR  R@0,R@2
                 	EOR  R@1,R@3
                 	.ENDM
                 
                 	.MACRO __GETWRS
                 	LDD  R@0,Y+@2
                 	LDD  R@1,Y+@2+1
                 	.ENDM
                 
                 	.MACRO __PUTBSR
                 	STD  Y+@1,R@0
                 	.ENDM
                 
                 	.MACRO __PUTWSR
                 	STD  Y+@2,R@0
                 	STD  Y+@2+1,R@1
                 	.ENDM
                 
                 	.MACRO __MOVEWRR
                 	MOV  R@0,R@2
                 	MOV  R@1,R@3
                 	.ENDM
                 
                 	.MACRO __INWR
                 	IN   R@0,@2
                 	IN   R@1,@2+1
                 	.ENDM
                 
                 	.MACRO __OUTWR
                 	OUT  @2+1,R@1
                 	OUT  @2,R@0
                 	.ENDM
                 
                 	.MACRO __CALL1MN
                 	LDS  R30,@0+(@1)
                 	LDS  R31,@0+(@1)+1
                 	ICALL
                 	.ENDM
                 
                 	.MACRO __CALL1FN
                 	LDI  R30,LOW(2*@0+(@1))
                 	LDI  R31,HIGH(2*@0+(@1))
                 	CALL __GETW1PF
                 	ICALL
                 	.ENDM
                 
                 	.MACRO __CALL2EN
                 	PUSH R26
                 	PUSH R27
                 	LDI  R26,LOW(@0+(@1))
                 	LDI  R27,HIGH(@0+(@1))
                 	CALL __EEPROMRDW
                 	POP  R27
                 	POP  R26
                 	ICALL
                 	.ENDM
                 
                 	.MACRO __CALL2EX
                 	SUBI R26,LOW(-@0)
                 	SBCI R27,HIGH(-@0)
                 	CALL __EEPROMRDD
                 	ICALL
                 	.ENDM
                 
                 	.MACRO __GETW1STACK
                 	IN   R30,SPL
                 	IN   R31,SPH
                 	ADIW R30,@0+1
                 	LD   R0,Z+
                 	LD   R31,Z
                 	MOV  R30,R0
                 	.ENDM
                 
                 	.MACRO __GETD1STACK
                 	IN   R30,SPL
                 	IN   R31,SPH
                 	ADIW R30,@0+1
                 	LD   R0,Z+
                 	LD   R1,Z+
                 	LD   R22,Z
                 	MOVW R30,R0
                 	.ENDM
                 
                 	.MACRO __NBST
                 	BST  R@0,@1
                 	IN   R30,SREG
                 	LDI  R31,0x40
                 	EOR  R30,R31
                 	OUT  SREG,R30
                 	.ENDM
                 
                 
                 	.MACRO __PUTB1SN
                 	LDD  R26,Y+@0
                 	LDD  R27,Y+@0+1
                 	SUBI R26,LOW(-@1)
                 	SBCI R27,HIGH(-@1)
                 	ST   X,R30
                 	.ENDM
                 
                 	.MACRO __PUTW1SN
                 	LDD  R26,Y+@0
                 	LDD  R27,Y+@0+1
                 	SUBI R26,LOW(-@1)
                 	SBCI R27,HIGH(-@1)
                 	ST   X+,R30
                 	ST   X,R31
                 	.ENDM
                 
                 	.MACRO __PUTD1SN
                 	LDD  R26,Y+@0
                 	LDD  R27,Y+@0+1
                 	SUBI R26,LOW(-@1)
                 	SBCI R27,HIGH(-@1)
                 	CALL __PUTDP1
                 	.ENDM
                 
                 	.MACRO __PUTB1SNS
                 	LDD  R26,Y+@0
                 	LDD  R27,Y+@0+1
                 	ADIW R26,@1
                 	ST   X,R30
                 	.ENDM
                 
                 	.MACRO __PUTW1SNS
                 	LDD  R26,Y+@0
                 	LDD  R27,Y+@0+1
                 	ADIW R26,@1
                 	ST   X+,R30
                 	ST   X,R31
                 	.ENDM
                 
                 	.MACRO __PUTD1SNS
                 	LDD  R26,Y+@0
                 	LDD  R27,Y+@0+1
                 	ADIW R26,@1
                 	CALL __PUTDP1
                 	.ENDM
                 
                 	.MACRO __PUTB1PMN
                 	LDS  R26,@0
                 	LDS  R27,@0+1
                 	SUBI R26,LOW(-@1)
                 	SBCI R27,HIGH(-@1)
                 	ST   X,R30
                 	.ENDM
                 
                 	.MACRO __PUTW1PMN
                 	LDS  R26,@0
                 	LDS  R27,@0+1
                 	SUBI R26,LOW(-@1)
                 	SBCI R27,HIGH(-@1)
                 	ST   X+,R30
                 	ST   X,R31
                 	.ENDM
                 
                 	.MACRO __PUTD1PMN
                 	LDS  R26,@0
                 	LDS  R27,@0+1
                 	SUBI R26,LOW(-@1)
                 	SBCI R27,HIGH(-@1)
                 	CALL __PUTDP1
                 	.ENDM
                 
                 	.MACRO __PUTB1PMNS
                 	LDS  R26,@0
                 	LDS  R27,@0+1
                 	ADIW R26,@1
                 	ST   X,R30
                 	.ENDM
                 
                 	.MACRO __PUTW1PMNS
                 	LDS  R26,@0
                 	LDS  R27,@0+1
                 	ADIW R26,@1
                 	ST   X+,R30
                 	ST   X,R31
                 	.ENDM
                 
                 	.MACRO __PUTD1PMNS
                 	LDS  R26,@0
                 	LDS  R27,@0+1
                 	ADIW R26,@1
                 	CALL __PUTDP1
                 	.ENDM
                 
                 	.MACRO __PUTB1RN
                 	MOVW R26,R@0
                 	SUBI R26,LOW(-@1)
                 	SBCI R27,HIGH(-@1)
                 	ST   X,R30
                 	.ENDM
                 
                 	.MACRO __PUTW1RN
                 	MOVW R26,R@0
                 	SUBI R26,LOW(-@1)
                 	SBCI R27,HIGH(-@1)
                 	ST   X+,R30
                 	ST   X,R31
                 	.ENDM
                 
                 	.MACRO __PUTD1RN
                 	MOVW R26,R@0
                 	SUBI R26,LOW(-@1)
                 	SBCI R27,HIGH(-@1)
                 	CALL __PUTDP1
                 	.ENDM
                 
                 	.MACRO __PUTB1RNS
                 	MOVW R26,R@0
                 	ADIW R26,@1
                 	ST   X,R30
                 	.ENDM
                 
                 	.MACRO __PUTW1RNS
                 	MOVW R26,R@0
                 	ADIW R26,@1
                 	ST   X+,R30
                 	ST   X,R31
                 	.ENDM
                 
                 	.MACRO __PUTD1RNS
                 	MOVW R26,R@0
                 	ADIW R26,@1
                 	CALL __PUTDP1
                 	.ENDM
                 
                 	.MACRO __PUTB1RON
                 	MOV  R26,R@0
                 	MOV  R27,R@1
                 	SUBI R26,LOW(-@2)
                 	SBCI R27,HIGH(-@2)
                 	ST   X,R30
                 	.ENDM
                 
                 	.MACRO __PUTW1RON
                 	MOV  R26,R@0
                 	MOV  R27,R@1
                 	SUBI R26,LOW(-@2)
                 	SBCI R27,HIGH(-@2)
                 	ST   X+,R30
                 	ST   X,R31
                 	.ENDM
                 
                 	.MACRO __PUTD1RON
                 	MOV  R26,R@0
                 	MOV  R27,R@1
                 	SUBI R26,LOW(-@2)
                 	SBCI R27,HIGH(-@2)
                 	CALL __PUTDP1
                 	.ENDM
                 
                 	.MACRO __PUTB1RONS
                 	MOV  R26,R@0
                 	MOV  R27,R@1
                 	ADIW R26,@2
                 	ST   X,R30
                 	.ENDM
                 
                 	.MACRO __PUTW1RONS
                 	MOV  R26,R@0
                 	MOV  R27,R@1
                 	ADIW R26,@2
                 	ST   X+,R30
                 	ST   X,R31
                 	.ENDM
                 
                 	.MACRO __PUTD1RONS
                 	MOV  R26,R@0
                 	MOV  R27,R@1
                 	ADIW R26,@2
                 	CALL __PUTDP1
                 	.ENDM
                 
                 
                 	.MACRO __GETB1SX
                 	MOVW R30,R28
                 	SUBI R30,LOW(-@0)
                 	SBCI R31,HIGH(-@0)
                 	LD   R30,Z
                 	.ENDM
                 
                 	.MACRO __GETB1HSX
                 	MOVW R30,R28
                 	SUBI R30,LOW(-@0)
                 	SBCI R31,HIGH(-@0)
                 	LD   R31,Z
                 	.ENDM
                 
                 	.MACRO __GETW1SX
                 	MOVW R30,R28
                 	SUBI R30,LOW(-@0)
                 	SBCI R31,HIGH(-@0)
                 	LD   R0,Z+
                 	LD   R31,Z
                 	MOV  R30,R0
                 	.ENDM
                 
                 	.MACRO __GETD1SX
                 	MOVW R30,R28
                 	SUBI R30,LOW(-@0)
                 	SBCI R31,HIGH(-@0)
                 	LD   R0,Z+
                 	LD   R1,Z+
                 	LD   R22,Z+
                 	LD   R23,Z
                 	MOVW R30,R0
                 	.ENDM
                 
                 	.MACRO __GETB2SX
                 	MOVW R26,R28
                 	SUBI R26,LOW(-@0)
                 	SBCI R27,HIGH(-@0)
                 	LD   R26,X
                 	.ENDM
                 
                 	.MACRO __GETW2SX
                 	MOVW R26,R28
                 	SUBI R26,LOW(-@0)
                 	SBCI R27,HIGH(-@0)
                 	LD   R0,X+
                 	LD   R27,X
                 	MOV  R26,R0
                 	.ENDM
                 
                 	.MACRO __GETD2SX
                 	MOVW R26,R28
                 	SUBI R26,LOW(-@0)
                 	SBCI R27,HIGH(-@0)
                 	LD   R0,X+
                 	LD   R1,X+
                 	LD   R24,X+
                 	LD   R25,X
                 	MOVW R26,R0
                 	.ENDM
                 
                 	.MACRO __GETBRSX
                 	MOVW R30,R28
                 	SUBI R30,LOW(-@1)
                 	SBCI R31,HIGH(-@1)
                 	LD   R@0,Z
                 	.ENDM
                 
                 	.MACRO __GETWRSX
                 	MOVW R30,R28
                 	SUBI R30,LOW(-@2)
                 	SBCI R31,HIGH(-@2)
                 	LD   R@0,Z+
                 	LD   R@1,Z
                 	.ENDM
                 
                 	.MACRO __GETBRSX2
                 	MOVW R26,R28
                 	SUBI R26,LOW(-@1)
                 	SBCI R27,HIGH(-@1)
                 	LD   R@0,X
                 	.ENDM
                 
                 	.MACRO __GETWRSX2
                 	MOVW R26,R28
                 	SUBI R26,LOW(-@2)
                 	SBCI R27,HIGH(-@2)
                 	LD   R@0,X+
                 	LD   R@1,X
                 	.ENDM
                 
                 	.MACRO __LSLW8SX
                 	MOVW R30,R28
                 	SUBI R30,LOW(-@0)
                 	SBCI R31,HIGH(-@0)
                 	LD   R31,Z
                 	CLR  R30
                 	.ENDM
                 
                 	.MACRO __PUTB1SX
                 	MOVW R26,R28
                 	SUBI R26,LOW(-@0)
                 	SBCI R27,HIGH(-@0)
                 	ST   X,R30
                 	.ENDM
                 
                 	.MACRO __PUTW1SX
                 	MOVW R26,R28
                 	SUBI R26,LOW(-@0)
                 	SBCI R27,HIGH(-@0)
                 	ST   X+,R30
                 	ST   X,R31
                 	.ENDM
                 
                 	.MACRO __PUTD1SX
                 	MOVW R26,R28
                 	SUBI R26,LOW(-@0)
                 	SBCI R27,HIGH(-@0)
                 	ST   X+,R30
                 	ST   X+,R31
                 	ST   X+,R22
                 	ST   X,R23
                 	.ENDM
                 
                 	.MACRO __CLRW1SX
                 	MOVW R26,R28
                 	SUBI R26,LOW(-@0)
                 	SBCI R27,HIGH(-@0)
                 	ST   X+,R30
                 	ST   X,R30
                 	.ENDM
                 
                 	.MACRO __CLRD1SX
                 	MOVW R26,R28
                 	SUBI R26,LOW(-@0)
                 	SBCI R27,HIGH(-@0)
                 	ST   X+,R30
                 	ST   X+,R30
                 	ST   X+,R30
                 	ST   X,R30
                 	.ENDM
                 
                 	.MACRO __PUTB2SX
                 	MOVW R30,R28
                 	SUBI R30,LOW(-@0)
                 	SBCI R31,HIGH(-@0)
                 	ST   Z,R26
                 	.ENDM
                 
                 	.MACRO __PUTW2SX
                 	MOVW R30,R28
                 	SUBI R30,LOW(-@0)
                 	SBCI R31,HIGH(-@0)
                 	ST   Z+,R26
                 	ST   Z,R27
                 	.ENDM
                 
                 	.MACRO __PUTD2SX
                 	MOVW R30,R28
                 	SUBI R30,LOW(-@0)
                 	SBCI R31,HIGH(-@0)
                 	ST   Z+,R26
                 	ST   Z+,R27
                 	ST   Z+,R24
                 	ST   Z,R25
                 	.ENDM
                 
                 	.MACRO __PUTBSRX
                 	MOVW R30,R28
                 	SUBI R30,LOW(-@1)
                 	SBCI R31,HIGH(-@1)
                 	ST   Z,R@0
                 	.ENDM
                 
                 	.MACRO __PUTWSRX
                 	MOVW R30,R28
                 	SUBI R30,LOW(-@2)
                 	SBCI R31,HIGH(-@2)
                 	ST   Z+,R@0
                 	ST   Z,R@1
                 	.ENDM
                 
                 	.MACRO __PUTB1SNX
                 	MOVW R26,R28
                 	SUBI R26,LOW(-@0)
                 	SBCI R27,HIGH(-@0)
                 	LD   R0,X+
                 	LD   R27,X
                 	MOV  R26,R0
                 	SUBI R26,LOW(-@1)
                 	SBCI R27,HIGH(-@1)
                 	ST   X,R30
                 	.ENDM
                 
                 	.MACRO __PUTW1SNX
                 	MOVW R26,R28
                 	SUBI R26,LOW(-@0)
                 	SBCI R27,HIGH(-@0)
                 	LD   R0,X+
                 	LD   R27,X
                 	MOV  R26,R0
                 	SUBI R26,LOW(-@1)
                 	SBCI R27,HIGH(-@1)
                 	ST   X+,R30
                 	ST   X,R31
                 	.ENDM
                 
                 	.MACRO __PUTD1SNX
                 	MOVW R26,R28
                 	SUBI R26,LOW(-@0)
                 	SBCI R27,HIGH(-@0)
                 	LD   R0,X+
                 	LD   R27,X
                 	MOV  R26,R0
                 	SUBI R26,LOW(-@1)
                 	SBCI R27,HIGH(-@1)
                 	ST   X+,R30
                 	ST   X+,R31
                 	ST   X+,R22
                 	ST   X,R23
                 	.ENDM
                 
                 	.MACRO __MULBRR
                 	MULS R@0,R@1
                 	MOVW R30,R0
                 	.ENDM
                 
                 	.MACRO __MULBRRU
                 	MUL  R@0,R@1
                 	MOVW R30,R0
                 	.ENDM
                 
                 	.MACRO __MULBRR0
                 	MULS R@0,R@1
                 	.ENDM
                 
                 	.MACRO __MULBRRU0
                 	MUL  R@0,R@1
                 	.ENDM
                 
                 	.MACRO __MULBNWRU
                 	LDI  R26,@2
                 	MUL  R26,R@0
                 	MOVW R30,R0
                 	MUL  R26,R@1
                 	ADD  R31,R0
                 	.ENDM
                 
                 ;NAME DEFINITIONS FOR GLOBAL VARIABLES ALLOCATED TO REGISTERS
                 	.DEF _c=R5
                 	.DEF _j=R4
                 	.DEF __hour=R7
                 	.DEF __min=R6
                 	.DEF __sec=R9
                 	.DEF __wday=R8
                 	.DEF __year=R11
                 	.DEF __month=R10
                 	.DEF __day=R13
                 	.DEF _lastsec=R12
                 
                 	.CSEG
                 	.ORG 0x00
                 
                 ;START OF CODE MARKER
                 __START_OF_CODE:
                 
                 ;INTERRUPT VECTORS
000000 940c 0aa3 	JMP  __RESET
000002 940c 0000 	JMP  0x00
000004 940c 0000 	JMP  0x00
000006 940c 0000 	JMP  0x00
000008 940c 0000 	JMP  0x00
00000a 940c 0000 	JMP  0x00
00000c 940c 0000 	JMP  0x00
00000e 940c 0000 	JMP  0x00
000010 940c 0000 	JMP  0x00
000012 940c 0000 	JMP  0x00
000014 940c 0000 	JMP  0x00
000016 940c 0000 	JMP  0x00
000018 940c 0000 	JMP  0x00
00001a 940c 0000 	JMP  0x00
00001c 940c 0000 	JMP  0x00
00001e 940c 0000 	JMP  0x00
000020 940c 0000 	JMP  0x00
000022 940c 0000 	JMP  0x00
000024 940c 0000 	JMP  0x00
000026 940c 0000 	JMP  0x00
000028 940c 0000 	JMP  0x00
                 
                 _font5x7:
00002a 0705
00002b 6020
00002c 0000
00002d 0000      	.DB  0x5,0x7,0x20,0x60,0x0,0x0,0x0,0x0
00002e 0000
00002f 0400
000030 0404
000031 0404      	.DB  0x0,0x0,0x0,0x4,0x4,0x4,0x4,0x4
000032 0400
000033 0a0a
000034 000a
000035 0000      	.DB  0x0,0x4,0xA,0xA,0xA,0x0,0x0,0x0
000036 0a00
000037 1f0a
000038 1f0a
000039 0a0a      	.DB  0x0,0xA,0xA,0x1F,0xA,0x1F,0xA,0xA
00003a 1e04
00003b 0e05
00003c 0f14
00003d 0304      	.DB  0x4,0x1E,0x5,0xE,0x14,0xF,0x4,0x3
00003e 0813
00003f 0204
000040 1819
000041 0906      	.DB  0x13,0x8,0x4,0x2,0x19,0x18,0x6,0x9
000042 0205
000043 0915
000044 0616
000045 0204      	.DB  0x5,0x2,0x15,0x9,0x16,0x6,0x4,0x2
000046 0000
000047 0000
000048 0408
000049 0202      	.DB  0x0,0x0,0x0,0x0,0x8,0x4,0x2,0x2
00004a 0402
00004b 0208
00004c 0804
00004d 0808      	.DB  0x2,0x4,0x8,0x2,0x4,0x8,0x8,0x8
00004e 0204
00004f 0a00
000050 1f04
000051 0a04      	.DB  0x4,0x2,0x0,0xA,0x4,0x1F,0x4,0xA
000052 0000
000053 0404
000054 041f
000055 0004      	.DB  0x0,0x0,0x4,0x4,0x1F,0x4,0x4,0x0
000056 0000
000057 0000
000058 0406
000059 0002      	.DB  0x0,0x0,0x0,0x0,0x6,0x4,0x2,0x0
00005a 0000
00005b 001f
00005c 0000
00005d 0000      	.DB  0x0,0x0,0x1F,0x0,0x0,0x0,0x0,0x0
00005e 0000
00005f 0606
000060 0000
000061 0810      	.DB  0x0,0x0,0x6,0x6,0x0,0x0,0x10,0x8
000062 0204
000063 0001
000064 110e
000065 1519      	.DB  0x4,0x2,0x1,0x0,0xE,0x11,0x19,0x15
000066 1113
000067 040e
000068 0406
000069 0404      	.DB  0x13,0x11,0xE,0x4,0x6,0x4,0x4,0x4
00006a 0e04
00006b 110e
00006c 0810
00006d 0204      	.DB  0x4,0xE,0xE,0x11,0x10,0x8,0x4,0x2
00006e 1f1f
00006f 0408
000070 1008
000071 0e11      	.DB  0x1F,0x1F,0x8,0x4,0x8,0x10,0x11,0xE
000072 0c08
000073 090a
000074 081f
000075 1f08      	.DB  0x8,0xC,0xA,0x9,0x1F,0x8,0x8,0x1F
000076 0f01
000077 1010
000078 0e11
000079 020c      	.DB  0x1,0xF,0x10,0x10,0x11,0xE,0xC,0x2
00007a 0f01
00007b 1111
00007c 1f0e
00007d 0810      	.DB  0x1,0xF,0x11,0x11,0xE,0x1F,0x10,0x8
00007e 0204
00007f 0202
000080 110e
000081 0e11      	.DB  0x4,0x2,0x2,0x2,0xE,0x11,0x11,0xE
000082 1111
000083 0e0e
000084 1111
000085 101e      	.DB  0x11,0x11,0xE,0xE,0x11,0x11,0x1E,0x10
000086 0608
000087 0600
000088 0006
000089 0606      	.DB  0x8,0x6,0x0,0x6,0x6,0x0,0x6,0x6
00008a 0000
00008b 0606
00008c 0600
00008d 0204      	.DB  0x0,0x0,0x6,0x6,0x0,0x6,0x4,0x2
00008e 0810
00008f 0204
000090 0804
000091 0010      	.DB  0x10,0x8,0x4,0x2,0x4,0x8,0x10,0x0
000092 1f00
000093 1f00
000094 0000
000095 0201      	.DB  0x0,0x1F,0x0,0x1F,0x0,0x0,0x1,0x2
000096 0804
000097 0204
000098 0e01
000099 1011      	.DB  0x4,0x8,0x4,0x2,0x1,0xE,0x11,0x10
00009a 0408
00009b 0400
00009c 110e
00009d 1610      	.DB  0x8,0x4,0x0,0x4,0xE,0x11,0x10,0x16
00009e 1515
00009f 0e0e
0000a0 1111
0000a1 1f11      	.DB  0x15,0x15,0xE,0xE,0x11,0x11,0x11,0x1F
0000a2 1111
0000a3 110f
0000a4 0f11
0000a5 1111      	.DB  0x11,0x11,0xF,0x11,0x11,0xF,0x11,0x11
0000a6 0e0f
0000a7 0111
0000a8 0101
0000a9 0e11      	.DB  0xF,0xE,0x11,0x1,0x1,0x1,0x11,0xE
0000aa 0907
0000ab 1111
0000ac 0911
0000ad 1f07      	.DB  0x7,0x9,0x11,0x11,0x11,0x9,0x7,0x1F
0000ae 0101
0000af 010f
0000b0 1f01
0000b1 011f      	.DB  0x1,0x1,0xF,0x1,0x1,0x1F,0x1F,0x1
0000b2 0701
0000b3 0101
0000b4 0e01
0000b5 0111      	.DB  0x1,0x7,0x1,0x1,0x1,0xE,0x11,0x1
0000b6 1901
0000b7 0e11
0000b8 1111
0000b9 1f11      	.DB  0x1,0x19,0x11,0xE,0x11,0x11,0x11,0x1F
0000ba 1111
0000bb 0e11
0000bc 0404
0000bd 0404      	.DB  0x11,0x11,0x11,0xE,0x4,0x4,0x4,0x4
0000be 0e04
0000bf 081c
0000c0 0808
0000c1 0908      	.DB  0x4,0xE,0x1C,0x8,0x8,0x8,0x8,0x9
0000c2 1106
0000c3 0509
0000c4 0503
0000c5 1109      	.DB  0x6,0x11,0x9,0x5,0x3,0x5,0x9,0x11
0000c6 0101
0000c7 0101
0000c8 0101
0000c9 111f      	.DB  0x1,0x1,0x1,0x1,0x1,0x1,0x1F,0x11
0000ca 151b
0000cb 1111
0000cc 1111
0000cd 1111      	.DB  0x1B,0x15,0x11,0x11,0x11,0x11,0x11,0x11
0000ce 1513
0000cf 1119
0000d0 0e11
0000d1 1111      	.DB  0x13,0x15,0x19,0x11,0x11,0xE,0x11,0x11
0000d2 1111
0000d3 0e11
0000d4 110f
0000d5 0f11      	.DB  0x11,0x11,0x11,0xE,0xF,0x11,0x11,0xF
0000d6 0101
0000d7 0e01
0000d8 1111
0000d9 1511      	.DB  0x1,0x1,0x1,0xE,0x11,0x11,0x11,0x15
0000da 1609
0000db 110f
0000dc 0f11
0000dd 0905      	.DB  0x9,0x16,0xF,0x11,0x11,0xF,0x5,0x9
0000de 1e11
0000df 0101
0000e0 100e
0000e1 0f10      	.DB  0x11,0x1E,0x1,0x1,0xE,0x10,0x10,0xF
0000e2 041f
0000e3 0404
0000e4 0404
0000e5 1104      	.DB  0x1F,0x4,0x4,0x4,0x4,0x4,0x4,0x11
0000e6 1111
0000e7 1111
0000e8 0e11
0000e9 1111      	.DB  0x11,0x11,0x11,0x11,0x11,0xE,0x11,0x11
0000ea 1111
0000eb 0a11
0000ec 1104
0000ed 1111      	.DB  0x11,0x11,0x11,0xA,0x4,0x11,0x11,0x11
0000ee 1515
0000ef 111b
0000f0 1111
0000f1 040a      	.DB  0x15,0x15,0x1B,0x11,0x11,0x11,0xA,0x4
0000f2 110a
0000f3 1111
0000f4 0a11
0000f5 0404      	.DB  0xA,0x11,0x11,0x11,0x11,0xA,0x4,0x4
0000f6 0404
0000f7 101f
0000f8 0408
0000f9 0102      	.DB  0x4,0x4,0x1F,0x10,0x8,0x4,0x2,0x1
0000fa 1c1f
0000fb 0404
0000fc 0404
0000fd 1c04      	.DB  0x1F,0x1C,0x4,0x4,0x4,0x4,0x4,0x1C
0000fe 0100
0000ff 0402
000100 1008
000101 0700      	.DB  0x0,0x1,0x2,0x4,0x8,0x10,0x0,0x7
000102 0404
000103 0404
000104 0704
000105 0a04      	.DB  0x4,0x4,0x4,0x4,0x4,0x7,0x4,0xA
000106 0011
000107 0000
000108 0000
000109 0000      	.DB  0x11,0x0,0x0,0x0,0x0,0x0,0x0,0x0
00010a 0000
00010b 1f00
00010c 0402
00010d 0008      	.DB  0x0,0x0,0x0,0x1F,0x2,0x4,0x8,0x0
00010e 0000
00010f 0000
000110 0e00
000111 1e10      	.DB  0x0,0x0,0x0,0x0,0x0,0xE,0x10,0x1E
000112 1e11
000113 0101
000114 130d
000115 1111      	.DB  0x11,0x1E,0x1,0x1,0xD,0x13,0x11,0x11
000116 000f
000117 0e00
000118 0101
000119 0e11      	.DB  0xF,0x0,0x0,0xE,0x1,0x1,0x11,0xE
00011a 1010
00011b 1916
00011c 1111
00011d 001e      	.DB  0x10,0x10,0x16,0x19,0x11,0x11,0x1E,0x0
00011e 0e00
00011f 1f11
000120 0e01
000121 120c      	.DB  0x0,0xE,0x11,0x1F,0x1,0xE,0xC,0x12
000122 0702
000123 0202
000124 0002
000125 1e00      	.DB  0x2,0x7,0x2,0x2,0x2,0x0,0x0,0x1E
000126 1e11
000127 0c10
000128 0101
000129 130d      	.DB  0x11,0x1E,0x10,0xC,0x1,0x1,0xD,0x13
00012a 1111
00012b 0411
00012c 0600
00012d 0404      	.DB  0x11,0x11,0x11,0x4,0x0,0x6,0x4,0x4
00012e 0e04
00012f 0008
000130 080c
000131 0908      	.DB  0x4,0xE,0x8,0x0,0xC,0x8,0x8,0x9
000132 0206
000133 1202
000134 060a
000135 120a      	.DB  0x6,0x2,0x2,0x12,0xA,0x6,0xA,0x12
000136 0406
000137 0404
000138 0404
000139 000e      	.DB  0x6,0x4,0x4,0x4,0x4,0x4,0xE,0x0
00013a 0b00
00013b 1515
00013c 1111
00013d 0000      	.DB  0x0,0xB,0x15,0x15,0x11,0x11,0x0,0x0
00013e 130d
00013f 1111
000140 0011
000141 0e00      	.DB  0xD,0x13,0x11,0x11,0x11,0x0,0x0,0xE
000142 1111
000143 0e11
000144 0000
000145 110f      	.DB  0x11,0x11,0x11,0xE,0x0,0x0,0xF,0x11
000146 010f
000147 0001
000148 1600
000149 1e19      	.DB  0xF,0x1,0x1,0x0,0x0,0x16,0x19,0x1E
00014a 1010
00014b 0000
00014c 130d
00014d 0101      	.DB  0x10,0x10,0x0,0x0,0xD,0x13,0x1,0x1
00014e 0001
00014f 0e00
000150 0e01
000151 0f10      	.DB  0x1,0x0,0x0,0xE,0x1,0xE,0x10,0xF
000152 0202
000153 0207
000154 1202
000155 000c      	.DB  0x2,0x2,0x7,0x2,0x2,0x12,0xC,0x0
000156 1100
000157 1111
000158 1619
000159 0000      	.DB  0x0,0x11,0x11,0x11,0x19,0x16,0x0,0x0
00015a 1111
00015b 0a11
00015c 0004
00015d 1100      	.DB  0x11,0x11,0x11,0xA,0x4,0x0,0x0,0x11
00015e 1511
00015f 0a15
000160 0000
000161 0a11      	.DB  0x11,0x15,0x15,0xA,0x0,0x0,0x11,0xA
000162 0a04
000163 0011
000164 1100
000165 1e11      	.DB  0x4,0xA,0x11,0x0,0x0,0x11,0x11,0x1E
000166 0e10
000167 0000
000168 081f
000169 0204      	.DB  0x10,0xE,0x0,0x0,0x1F,0x8,0x4,0x2
00016a 081f
00016b 0404
00016c 0402
00016d 0804      	.DB  0x1F,0x8,0x4,0x4,0x2,0x4,0x4,0x8
00016e 0404
00016f 0404
000170 0404
000171 0204      	.DB  0x4,0x4,0x4,0x4,0x4,0x4,0x4,0x2
000172 0404
000173 0408
000174 0204
000175 1502      	.DB  0x4,0x4,0x8,0x4,0x4,0x2,0x2,0x15
000176 0008
000177 0000
000178 1f00
000179 1111      	.DB  0x8,0x0,0x0,0x0,0x0,0x1F,0x11,0x11
00017a 1111
00017b 1f11      	.DB  0x11,0x11,0x11,0x1F
                 _arial:
00017c 0e00
00017d 6020
00017e 0205
00017f 0604      	.DB  0x0,0xE,0x20,0x60,0x5,0x2,0x4,0x6
000180 0a06
000181 0207
000182 0404
000183 0604      	.DB  0x6,0xA,0x7,0x2,0x4,0x4,0x4,0x6
000184 0403
000185 0303
000186 0606
000187 0606      	.DB  0x3,0x4,0x3,0x3,0x6,0x6,0x6,0x6
000188 0606
000189 0606
00018a 0606
00018b 0303      	.DB  0x6,0x6,0x6,0x6,0x6,0x6,0x3,0x3
00018c 0606
00018d 0606
00018e 080b
00018f 0707      	.DB  0x6,0x6,0x6,0x6,0xB,0x8,0x7,0x7
000190 0607
000191 0806
000192 0207
000193 0705      	.DB  0x7,0x6,0x6,0x8,0x7,0x2,0x5,0x7
000194 0806
000195 0807
000196 0806
000197 0707      	.DB  0x6,0x8,0x7,0x8,0x6,0x8,0x7,0x7
000198 0706
000199 0b08
00019a 0807
00019b 0307      	.DB  0x6,0x7,0x8,0xB,0x7,0x8,0x7,0x3
00019c 0303
00019d 0605
00019e 0604
00019f 0606      	.DB  0x3,0x3,0x5,0x6,0x4,0x6,0x6,0x6
0001a0 0606
0001a1 0604
0001a2 0206
0001a3 0502      	.DB  0x6,0x6,0x4,0x6,0x6,0x2,0x2,0x5
0001a4 0802
0001a5 0606
0001a6 0606
0001a7 0604      	.DB  0x2,0x8,0x6,0x6,0x6,0x6,0x4,0x6
0001a8 0603
0001a9 0a06
0001aa 0606
0001ab 0406      	.DB  0x3,0x6,0x6,0xA,0x6,0x6,0x6,0x4
0001ac 0402
0001ad 0806
0001ae 0000
0001af 0000      	.DB  0x2,0x4,0x6,0x8,0x0,0x0,0x0,0x0
0001b0 0000
0001b1 0000
0001b2 0000
0001b3 0000      	.DB  0x0,0x0,0x0,0x0,0x0,0x0,0x0,0x0
0001b4 0000
0001b5 0000
0001b6 0100
0001b7 0101      	.DB  0x0,0x0,0x0,0x0,0x0,0x1,0x1,0x1
0001b8 0101
0001b9 0001
0001ba 0001
0001bb 0000      	.DB  0x1,0x1,0x1,0x0,0x1,0x0,0x0,0x0
0001bc 0000
0001bd 0500
0001be 0505
0001bf 0000      	.DB  0x0,0x0,0x0,0x5,0x5,0x5,0x0,0x0
0001c0 0000
0001c1 0000
0001c2 0000
0001c3 0000      	.DB  0x0,0x0,0x0,0x0,0x0,0x0,0x0,0x0
0001c4 1400
0001c5 1f14
0001c6 0a0a
0001c7 051f      	.DB  0x0,0x14,0x14,0x1F,0xA,0xA,0x1F,0x5
0001c8 0005
0001c9 0000
0001ca 0000
0001cb 0e00      	.DB  0x5,0x0,0x0,0x0,0x0,0x0,0x0,0xE
0001cc 0515
0001cd 140e
0001ce 1514
0001cf 040e      	.DB  0x15,0x5,0xE,0x14,0x14,0x15,0xE,0x4
0001d0 0000
0001d1 0000
0001d2 0000
0001d3 0000      	.DB  0x0,0x0,0x0,0x0,0x0,0x0,0x0,0x0
0001d4 0046
0001d5 0029
0001d6 0029
0001d7 0016      	.DB  0x46,0x0,0x29,0x0,0x29,0x0,0x16,0x0
0001d8 00d0
0001d9 0128
0001da 0128
0001db 00c4      	.DB  0xD0,0x0,0x28,0x1,0x28,0x1,0xC4,0x0
0001dc 0000
0001dd 0000
0001de 0000
0001df 0000      	.DB  0x0,0x0,0x0,0x0,0x0,0x0,0x0,0x0
0001e0 0c00
0001e1 1212
0001e2 0a0c
0001e3 1131      	.DB  0x0,0xC,0x12,0x12,0xC,0xA,0x31,0x11
0001e4 002e
0001e5 0000
0001e6 0000
0001e7 0100      	.DB  0x2E,0x0,0x0,0x0,0x0,0x0,0x0,0x1
0001e8 0101
0001e9 0000
0001ea 0000
0001eb 0000      	.DB  0x1,0x1,0x0,0x0,0x0,0x0,0x0,0x0
0001ec 0000
0001ed 0000
0001ee 0400
0001ef 0102      	.DB  0x0,0x0,0x0,0x0,0x0,0x4,0x2,0x1
0001f0 0101
0001f1 0101
0001f2 0201
0001f3 0004      	.DB  0x1,0x1,0x1,0x1,0x1,0x2,0x4,0x0
0001f4 0000
0001f5 0100
0001f6 0402
0001f7 0404      	.DB  0x0,0x0,0x0,0x1,0x2,0x4,0x4,0x4
0001f8 0404
0001f9 0204
0001fa 0001
0001fb 0000      	.DB  0x4,0x4,0x4,0x2,0x1,0x0,0x0,0x0
0001fc 0200
0001fd 0207
0001fe 0005
0001ff 0000      	.DB  0x0,0x2,0x7,0x2,0x5,0x0,0x0,0x0
000200 0000
000201 0000
000202 0000
000203 0000      	.DB  0x0,0x0,0x0,0x0,0x0,0x0,0x0,0x0
000204 0400
000205 1f04
000206 0404
000207 0000      	.DB  0x0,0x4,0x4,0x1F,0x4,0x4,0x0,0x0
000208 0000
000209 0000
00020a 0000
00020b 0000      	.DB  0x0,0x0,0x0,0x0,0x0,0x0,0x0,0x0
00020c 0000
00020d 0000
00020e 0202
00020f 0002      	.DB  0x0,0x0,0x0,0x0,0x2,0x2,0x2,0x0
000210 0000
000211 0000
000212 0000
000213 0000      	.DB  0x0,0x0,0x0,0x0,0x0,0x0,0x0,0x0
000214 0007
000215 0000
000216 0000
000217 0000      	.DB  0x7,0x0,0x0,0x0,0x0,0x0,0x0,0x0
000218 0000
000219 0000
00021a 0000
00021b 0000      	.DB  0x0,0x0,0x0,0x0,0x0,0x0,0x0,0x0
00021c 0002
00021d 0000
00021e 0000
00021f 0400      	.DB  0x2,0x0,0x0,0x0,0x0,0x0,0x0,0x4
000220 0204
000221 0202
000222 0102
000223 0001      	.DB  0x4,0x2,0x2,0x2,0x2,0x1,0x1,0x0
000224 0000
000225 0000
000226 0e00
000227 1111      	.DB  0x0,0x0,0x0,0x0,0x0,0xE,0x11,0x11
000228 1111
000229 1111
00022a 000e
00022b 0000      	.DB  0x11,0x11,0x11,0x11,0xE,0x0,0x0,0x0
00022c 0000
00022d 0400
00022e 0506
00022f 0404      	.DB  0x0,0x0,0x0,0x4,0x6,0x5,0x4,0x4
000230 0404
000231 0004
000232 0000
000233 0000      	.DB  0x4,0x4,0x4,0x0,0x0,0x0,0x0,0x0
000234 0e00
000235 1011
000236 0810
000237 0204      	.DB  0x0,0xE,0x11,0x10,0x10,0x8,0x4,0x2
000238 001f
000239 0000
00023a 0000
00023b 0e00      	.DB  0x1F,0x0,0x0,0x0,0x0,0x0,0x0,0xE
00023c 1011
00023d 100c
00023e 1110
00023f 000e      	.DB  0x11,0x10,0xC,0x10,0x10,0x11,0xE,0x0
000240 0000
000241 0000
000242 0800
000243 0a0c      	.DB  0x0,0x0,0x0,0x0,0x0,0x8,0xC,0xA
000244 090a
000245 081f
000246 0008
000247 0000      	.DB  0xA,0x9,0x1F,0x8,0x8,0x0,0x0,0x0
000248 0000
000249 1e00
00024a 0102
00024b 100f      	.DB  0x0,0x0,0x0,0x1E,0x2,0x1,0xF,0x10
00024c 1110
00024d 000e
00024e 0000
00024f 0000      	.DB  0x10,0x11,0xE,0x0,0x0,0x0,0x0,0x0
000250 0e00
000251 0111
000252 110f
000253 1111      	.DB  0x0,0xE,0x11,0x1,0xF,0x11,0x11,0x11
000254 000e
000255 0000
000256 0000
000257 1f00      	.DB  0xE,0x0,0x0,0x0,0x0,0x0,0x0,0x1F
000258 0808
000259 0404
00025a 0202
00025b 0002      	.DB  0x8,0x8,0x4,0x4,0x2,0x2,0x2,0x0
00025c 0000
00025d 0000
00025e 0e00
00025f 1111      	.DB  0x0,0x0,0x0,0x0,0x0,0xE,0x11,0x11
000260 110e
000261 1111
000262 000e
000263 0000      	.DB  0xE,0x11,0x11,0x11,0xE,0x0,0x0,0x0
000264 0000
000265 0e00
000266 1111
000267 1e11      	.DB  0x0,0x0,0x0,0xE,0x11,0x11,0x11,0x1E
000268 1110
000269 000e
00026a 0000
00026b 0000      	.DB  0x10,0x11,0xE,0x0,0x0,0x0,0x0,0x0
00026c 0000
00026d 0100
00026e 0000
00026f 0000      	.DB  0x0,0x0,0x0,0x1,0x0,0x0,0x0,0x0
000270 0001
000271 0000
000272 0000
000273 0000      	.DB  0x1,0x0,0x0,0x0,0x0,0x0,0x0,0x0
000274 0100
000275 0000
000276 0000
000277 0101      	.DB  0x0,0x1,0x0,0x0,0x0,0x0,0x1,0x1
000278 0001
000279 0000
00027a 0000
00027b 1000      	.DB  0x1,0x0,0x0,0x0,0x0,0x0,0x0,0x10
00027c 010e
00027d 100e
00027e 0000
00027f 0000      	.DB  0xE,0x1,0xE,0x10,0x0,0x0,0x0,0x0
000280 0000
000281 0000
000282 0000
000283 001f      	.DB  0x0,0x0,0x0,0x0,0x0,0x0,0x1F,0x0
000284 001f
000285 0000
000286 0000
000287 0000      	.DB  0x1F,0x0,0x0,0x0,0x0,0x0,0x0,0x0
000288 0000
000289 0100
00028a 100e
00028b 010e      	.DB  0x0,0x0,0x0,0x1,0xE,0x10,0xE,0x1
00028c 0000
00028d 0000
00028e 0000
00028f 0e00      	.DB  0x0,0x0,0x0,0x0,0x0,0x0,0x0,0xE
000290 1011
000291 0408
000292 0004
000293 0004      	.DB  0x11,0x10,0x8,0x4,0x4,0x0,0x4,0x0
000294 0000
000295 0000
000296 0000
000297 0000      	.DB  0x0,0x0,0x0,0x0,0x0,0x0,0x0,0x0
000298 00f8
000299 0106
00029a 02b2
00029b 02c9      	.DB  0xF8,0x0,0x6,0x1,0xB2,0x2,0xC9,0x2
00029c 0245
00029d 0245
00029e 0165
00029f 00d9      	.DB  0x45,0x2,0x45,0x2,0x65,0x1,0xD9,0x0
0002a0 0202
0002a1 01fc
0002a2 0000
0002a3 0000      	.DB  0x2,0x2,0xFC,0x1,0x0,0x0,0x0,0x0
0002a4 0800
0002a5 1414
0002a6 2214
0002a7 413e      	.DB  0x0,0x8,0x14,0x14,0x14,0x22,0x3E,0x41
0002a8 0041
0002a9 0000
0002aa 0000
0002ab 1f00      	.DB  0x41,0x0,0x0,0x0,0x0,0x0,0x0,0x1F
0002ac 2121
0002ad 213f
0002ae 2121
0002af 001f      	.DB  0x21,0x21,0x3F,0x21,0x21,0x21,0x1F,0x0
0002b0 0000
0002b1 0000
0002b2 1c00
0002b3 0122      	.DB  0x0,0x0,0x0,0x0,0x0,0x1C,0x22,0x1
0002b4 0101
0002b5 2201
0002b6 001c
0002b7 0000      	.DB  0x1,0x1,0x1,0x22,0x1C,0x0,0x0,0x0
0002b8 0000
0002b9 0f00
0002ba 2111
0002bb 2121      	.DB  0x0,0x0,0x0,0xF,0x11,0x21,0x21,0x21
0002bc 1121
0002bd 000f
0002be 0000
0002bf 0000      	.DB  0x21,0x11,0xF,0x0,0x0,0x0,0x0,0x0
0002c0 1f00
0002c1 0101
0002c2 011f
0002c3 0101      	.DB  0x0,0x1F,0x1,0x1,0x1F,0x1,0x1,0x1
0002c4 001f
0002c5 0000
0002c6 0000
0002c7 1f00      	.DB  0x1F,0x0,0x0,0x0,0x0,0x0,0x0,0x1F
0002c8 0101
0002c9 010f
0002ca 0101
0002cb 0001      	.DB  0x1,0x1,0xF,0x1,0x1,0x1,0x1,0x0
0002cc 0000
0002cd 0000
0002ce 1c00
0002cf 4122      	.DB  0x0,0x0,0x0,0x0,0x0,0x1C,0x22,0x41
0002d0 7101
0002d1 2241
0002d2 001c
0002d3 0000      	.DB  0x1,0x71,0x41,0x22,0x1C,0x0,0x0,0x0
0002d4 0000
0002d5 2100
0002d6 2121
0002d7 213f      	.DB  0x0,0x0,0x0,0x21,0x21,0x21,0x3F,0x21
0002d8 2121
0002d9 0021
0002da 0000
0002db 0000      	.DB  0x21,0x21,0x21,0x0,0x0,0x0,0x0,0x0
0002dc 0100
0002dd 0101
0002de 0101
0002df 0101      	.DB  0x0,0x1,0x1,0x1,0x1,0x1,0x1,0x1
0002e0 0001
0002e1 0000
0002e2 0000
0002e3 0800      	.DB  0x1,0x0,0x0,0x0,0x0,0x0,0x0,0x8
0002e4 0808
0002e5 0808
0002e6 0909
0002e7 0006      	.DB  0x8,0x8,0x8,0x8,0x9,0x9,0x6,0x0
0002e8 0000
0002e9 0000
0002ea 2100
0002eb 0911      	.DB  0x0,0x0,0x0,0x0,0x0,0x21,0x11,0x9
0002ec 0b0d
0002ed 1111
0002ee 0021
0002ef 0000      	.DB  0xD,0xB,0x11,0x11,0x21,0x0,0x0,0x0
0002f0 0000
0002f1 0100
0002f2 0101
0002f3 0101      	.DB  0x0,0x0,0x0,0x1,0x1,0x1,0x1,0x1
0002f4 0101
0002f5 001f
0002f6 0000
0002f7 0000      	.DB  0x1,0x1,0x1F,0x0,0x0,0x0,0x0,0x0
0002f8 4100
0002f9 6363
0002fa 5555
0002fb 4955      	.DB  0x0,0x41,0x63,0x63,0x55,0x55,0x55,0x49
0002fc 0049
0002fd 0000
0002fe 0000
0002ff 2100      	.DB  0x49,0x0,0x0,0x0,0x0,0x0,0x0,0x21
000300 2523
000301 2925
000302 3129
000303 0021      	.DB  0x23,0x25,0x25,0x29,0x29,0x31,0x21,0x0
000304 0000
000305 0000
000306 1c00
000307 4122      	.DB  0x0,0x0,0x0,0x0,0x0,0x1C,0x22,0x41
000308 4141
000309 2241
00030a 001c
00030b 0000      	.DB  0x41,0x41,0x41,0x22,0x1C,0x0,0x0,0x0
00030c 0000
00030d 0f00
00030e 1111
00030f 0f11      	.DB  0x0,0x0,0x0,0xF,0x11,0x11,0x11,0xF
000310 0101
000311 0001
000312 0000
000313 0000      	.DB  0x1,0x1,0x1,0x0,0x0,0x0,0x0,0x0
000314 1c00
000315 4122
000316 4141
000317 2259      	.DB  0x0,0x1C,0x22,0x41,0x41,0x41,0x59,0x22
000318 005c
000319 0000
00031a 0000
00031b 1f00      	.DB  0x5C,0x0,0x0,0x0,0x0,0x0,0x0,0x1F
00031c 2121
00031d 091f
00031e 1111
00031f 0021      	.DB  0x21,0x21,0x1F,0x9,0x11,0x11,0x21,0x0
000320 0000
000321 0000
000322 1e00
000323 0121      	.DB  0x0,0x0,0x0,0x0,0x0,0x1E,0x21,0x1
000324 1806
000325 2120
000326 001e
000327 0000      	.DB  0x6,0x18,0x20,0x21,0x1E,0x0,0x0,0x0
000328 0000
000329 1f00
00032a 0404
00032b 0404      	.DB  0x0,0x0,0x0,0x1F,0x4,0x4,0x4,0x4
00032c 0404
00032d 0004
00032e 0000
00032f 0000      	.DB  0x4,0x4,0x4,0x0,0x0,0x0,0x0,0x0
000330 2100
000331 2121
000332 2121
000333 2121      	.DB  0x0,0x21,0x21,0x21,0x21,0x21,0x21,0x21
000334 001e
000335 0000
000336 0000
000337 4100      	.DB  0x1E,0x0,0x0,0x0,0x0,0x0,0x0,0x41
000338 2241
000339 1422
00033a 0814
00033b 0008      	.DB  0x41,0x22,0x22,0x14,0x14,0x8,0x8,0x0
00033c 0000
00033d 0000
00033e 0000
00033f 0000      	.DB  0x0,0x0,0x0,0x0,0x0,0x0,0x0,0x0
000340 0421
000341 0451
000342 0252
000343 0252      	.DB  0x21,0x4,0x51,0x4,0x52,0x2,0x52,0x2
000344 028a
000345 028a
000346 0104
000347 0104      	.DB  0x8A,0x2,0x8A,0x2,0x4,0x1,0x4,0x1
000348 0000
000349 0000
00034a 0000
00034b 0000      	.DB  0x0,0x0,0x0,0x0,0x0,0x0,0x0,0x0
00034c 2100
00034d 1212
00034e 0c0c
00034f 1212      	.DB  0x0,0x21,0x12,0x12,0xC,0xC,0x12,0x12
000350 0021
000351 0000
000352 0000
000353 4100      	.DB  0x21,0x0,0x0,0x0,0x0,0x0,0x0,0x41
000354 2222
000355 0814
000356 0808
000357 0008      	.DB  0x22,0x22,0x14,0x8,0x8,0x8,0x8,0x0
000358 0000
000359 0000
00035a 3e00
00035b 0810      	.DB  0x0,0x0,0x0,0x0,0x0,0x3E,0x10,0x8
00035c 0408
00035d 0204
00035e 003f
00035f 0000      	.DB  0x8,0x4,0x4,0x2,0x3F,0x0,0x0,0x0
000360 0000
000361 0300
000362 0101
000363 0101      	.DB  0x0,0x0,0x0,0x3,0x1,0x1,0x1,0x1
000364 0101
000365 0101
000366 0003
000367 0000      	.DB  0x1,0x1,0x1,0x1,0x3,0x0,0x0,0x0
000368 0100
000369 0201
00036a 0202
00036b 0402      	.DB  0x0,0x1,0x1,0x2,0x2,0x2,0x2,0x4
00036c 0004
00036d 0000
00036e 0000
00036f 0300      	.DB  0x4,0x0,0x0,0x0,0x0,0x0,0x0,0x3
000370 0202
000371 0202
000372 0202
000373 0202      	.DB  0x2,0x2,0x2,0x2,0x2,0x2,0x2,0x2
000374 0003
000375 0000
000376 0400
000377 0a0a      	.DB  0x3,0x0,0x0,0x0,0x0,0x4,0xA,0xA
000378 0011
000379 0000
00037a 0000
00037b 0000      	.DB  0x11,0x0,0x0,0x0,0x0,0x0,0x0,0x0
00037c 0000
00037d 0000
00037e 0000
00037f 0000      	.DB  0x0,0x0,0x0,0x0,0x0,0x0,0x0,0x0
000380 0000
000381 0000
000382 003f
000383 0000      	.DB  0x0,0x0,0x0,0x0,0x3F,0x0,0x0,0x0
000384 0100
000385 0002
000386 0000
000387 0000      	.DB  0x0,0x1,0x2,0x0,0x0,0x0,0x0,0x0
000388 0000
000389 0000
00038a 0000
00038b 0000      	.DB  0x0,0x0,0x0,0x0,0x0,0x0,0x0,0x0
00038c 0e00
00038d 1e11
00038e 1911
00038f 0016      	.DB  0x0,0xE,0x11,0x1E,0x11,0x19,0x16,0x0
000390 0000
000391 0000
000392 0100
000393 0d01      	.DB  0x0,0x0,0x0,0x0,0x0,0x1,0x1,0xD
000394 1113
000395 1311
000396 000d
000397 0000      	.DB  0x13,0x11,0x11,0x13,0xD,0x0,0x0,0x0
000398 0000
000399 0000
00039a 0e00
00039b 0111      	.DB  0x0,0x0,0x0,0x0,0x0,0xE,0x11,0x1
00039c 1101
00039d 000e
00039e 0000
00039f 0000      	.DB  0x1,0x11,0xE,0x0,0x0,0x0,0x0,0x0
0003a0 1000
0003a1 1610
0003a2 1119
0003a3 1911      	.DB  0x0,0x10,0x10,0x16,0x19,0x11,0x11,0x19
0003a4 0016
0003a5 0000
0003a6 0000
0003a7 0000      	.DB  0x16,0x0,0x0,0x0,0x0,0x0,0x0,0x0
0003a8 0e00
0003a9 1f11
0003aa 1101
0003ab 000e      	.DB  0x0,0xE,0x11,0x1F,0x1,0x11,0xE,0x0
0003ac 0000
0003ad 0000
0003ae 0400
0003af 0702      	.DB  0x0,0x0,0x0,0x0,0x0,0x4,0x2,0x7
0003b0 0202
0003b1 0202
0003b2 0002
0003b3 0000      	.DB  0x2,0x2,0x2,0x2,0x2,0x0,0x0,0x0
0003b4 0000
0003b5 0000
0003b6 1600
0003b7 1119      	.DB  0x0,0x0,0x0,0x0,0x0,0x16,0x19,0x11
0003b8 1911
0003b9 1016
0003ba 000f
0003bb 0000      	.DB  0x11,0x19,0x16,0x10,0xF,0x0,0x0,0x0
0003bc 0100
0003bd 0d01
0003be 1113
0003bf 1111      	.DB  0x0,0x1,0x1,0xD,0x13,0x11,0x11,0x11
0003c0 0011
0003c1 0000
0003c2 0000
0003c3 0100      	.DB  0x11,0x0,0x0,0x0,0x0,0x0,0x0,0x1
0003c4 0100
0003c5 0101
0003c6 0101
0003c7 0001      	.DB  0x0,0x1,0x1,0x1,0x1,0x1,0x1,0x0
0003c8 0000
0003c9 0000
0003ca 0200
0003cb 0200      	.DB  0x0,0x0,0x0,0x0,0x0,0x2,0x0,0x2
0003cc 0202
0003cd 0202
0003ce 0202
0003cf 0001      	.DB  0x2,0x2,0x2,0x2,0x2,0x2,0x1,0x0
0003d0 0000
0003d1 0100
0003d2 0901
0003d3 0305      	.DB  0x0,0x0,0x0,0x1,0x1,0x9,0x5,0x3
0003d4 0505
0003d5 0009
0003d6 0000
0003d7 0000      	.DB  0x5,0x5,0x9,0x0,0x0,0x0,0x0,0x0
0003d8 0100
0003d9 0101
0003da 0101
0003db 0101      	.DB  0x0,0x1,0x1,0x1,0x1,0x1,0x1,0x1
0003dc 0001
0003dd 0000
0003de 0000
0003df 0000      	.DB  0x1,0x0,0x0,0x0,0x0,0x0,0x0,0x0
0003e0 3d00
0003e1 494b
0003e2 4949
0003e3 0049      	.DB  0x0,0x3D,0x4B,0x49,0x49,0x49,0x49,0x0
0003e4 0000
0003e5 0000
0003e6 0000
0003e7 0f00      	.DB  0x0,0x0,0x0,0x0,0x0,0x0,0x0,0xF
0003e8 1111
0003e9 1111
0003ea 0011
0003eb 0000      	.DB  0x11,0x11,0x11,0x11,0x11,0x0,0x0,0x0
0003ec 0000
0003ed 0000
0003ee 0e00
0003ef 1111      	.DB  0x0,0x0,0x0,0x0,0x0,0xE,0x11,0x11
0003f0 1111
0003f1 000e
0003f2 0000
0003f3 0000      	.DB  0x11,0x11,0xE,0x0,0x0,0x0,0x0,0x0
0003f4 0000
0003f5 0d00
0003f6 1113
0003f7 1311      	.DB  0x0,0x0,0x0,0xD,0x13,0x11,0x11,0x13
0003f8 010d
0003f9 0001
0003fa 0000
0003fb 0000      	.DB  0xD,0x1,0x1,0x0,0x0,0x0,0x0,0x0
0003fc 1600
0003fd 1119
0003fe 1911
0003ff 1016      	.DB  0x0,0x16,0x19,0x11,0x11,0x19,0x16,0x10
000400 0010
000401 0000
000402 0000
000403 0500      	.DB  0x10,0x0,0x0,0x0,0x0,0x0,0x0,0x5
000404 0103
000405 0101
000406 0001
000407 0000      	.DB  0x3,0x1,0x1,0x1,0x1,0x0,0x0,0x0
000408 0000
000409 0000
00040a 0e00
00040b 0611      	.DB  0x0,0x0,0x0,0x0,0x0,0xE,0x11,0x6
00040c 1108
00040d 000e
00040e 0000
00040f 0000      	.DB  0x8,0x11,0xE,0x0,0x0,0x0,0x0,0x0
000410 0200
000411 0702
000412 0202
000413 0202      	.DB  0x0,0x2,0x2,0x7,0x2,0x2,0x2,0x2
000414 0006
000415 0000
000416 0000
000417 0000      	.DB  0x6,0x0,0x0,0x0,0x0,0x0,0x0,0x0
000418 1100
000419 1111
00041a 1911
00041b 0016      	.DB  0x0,0x11,0x11,0x11,0x11,0x19,0x16,0x0
00041c 0000
00041d 0000
00041e 0000
00041f 1100      	.DB  0x0,0x0,0x0,0x0,0x0,0x0,0x0,0x11
000420 0a11
000421 040a
000422 0004
000423 0000      	.DB  0x11,0xA,0xA,0x4,0x4,0x0,0x0,0x0
000424 0000
000425 0000
000426 0000
000427 0000      	.DB  0x0,0x0,0x0,0x0,0x0,0x0,0x0,0x0
000428 0000
000429 0111
00042a 0129
00042b 00aa      	.DB  0x0,0x0,0x11,0x1,0x29,0x1,0xAA,0x0
00042c 00aa
00042d 0044
00042e 0044
00042f 0000      	.DB  0xAA,0x0,0x44,0x0,0x44,0x0,0x0,0x0
000430 0000
000431 0000
000432 0000
000433 0000      	.DB  0x0,0x0,0x0,0x0,0x0,0x0,0x0,0x0
000434 1100
000435 040a
000436 0a04
000437 0011      	.DB  0x0,0x11,0xA,0x4,0x4,0xA,0x11,0x0
000438 0000
000439 0000
00043a 0000
00043b 1100      	.DB  0x0,0x0,0x0,0x0,0x0,0x0,0x0,0x11
00043c 0a11
00043d 040a
00043e 0404
00043f 0002      	.DB  0x11,0xA,0xA,0x4,0x4,0x4,0x2,0x0
000440 0000
000441 0000
000442 1f00
000443 0408      	.DB  0x0,0x0,0x0,0x0,0x0,0x1F,0x8,0x4
000444 0204
000445 001f
000446 0000
000447 0000      	.DB  0x4,0x2,0x1F,0x0,0x0,0x0,0x0,0x0
000448 0400
000449 0202
00044a 0102
00044b 0202      	.DB  0x0,0x4,0x2,0x2,0x2,0x1,0x2,0x2
00044c 0202
00044d 0004
00044e 0000
00044f 0100      	.DB  0x2,0x2,0x4,0x0,0x0,0x0,0x0,0x1
000450 0101
000451 0101
000452 0101
000453 0101      	.DB  0x1,0x1,0x1,0x1,0x1,0x1,0x1,0x1
000454 0001
000455 0000
000456 0200
000457 0404      	.DB  0x1,0x0,0x0,0x0,0x0,0x2,0x4,0x4
000458 0804
000459 0404
00045a 0404
00045b 0002      	.DB  0x4,0x8,0x4,0x4,0x4,0x4,0x2,0x0
00045c 0000
00045d 0000
00045e 0000
00045f 0d17      	.DB  0x0,0x0,0x0,0x0,0x0,0x0,0x17,0xD
000460 0000
000461 0000
000462 0000
000463 0000      	.DB  0x0,0x0,0x0,0x0,0x0,0x0,0x0,0x0
000464 7e00
000465 4242
000466 4242
000467 4242      	.DB  0x0,0x7E,0x42,0x42,0x42,0x42,0x42,0x42
000468 007e
000469 0000      	.DB  0x7E,0x0,0x0,0x0
                 _truck:
00046a 0080
00046b 0040
00046c 0000
00046d 0000      	.DB  0x80,0x0,0x40,0x0,0x0,0x0,0x0,0x0
00046e 0000
00046f 0000
000470 0000
000471 0000      	.DB  0x0,0x0,0x0,0x0,0x0,0x0,0x0,0x0
000472 0000
000473 0000
000474 0000
000475 0000      	.DB  0x0,0x0,0x0,0x0,0x0,0x0,0x0,0x0
000476 0000
000477 0000
000478 0000
000479 0000      	.DB  0x0,0x0,0x0,0x0,0x0,0x0,0x0,0x0
00047a 0000
00047b 0000
00047c 0000
00047d 0000      	.DB  0x0,0x0,0x0,0x0,0x0,0x0,0x0,0x0
00047e 0000
00047f 0000
000480 0000
000481 0000      	.DB  0x0,0x0,0x0,0x0,0x0,0x0,0x0,0x0
000482 0000
000483 0000
000484 0000
000485 0000      	.DB  0x0,0x0,0x0,0x0,0x0,0x0,0x0,0x0
000486 0000
000487 0000
000488 0000
000489 0000      	.DB  0x0,0x0,0x0,0x0,0x0,0x0,0x0,0x0
00048a 0000
00048b 0000
00048c 0000
00048d 0000      	.DB  0x0,0x0,0x0,0x0,0x0,0x0,0x0,0x0
00048e 0000
00048f 0000
000490 0000
000491 0000      	.DB  0x0,0x0,0x0,0x0,0x0,0x0,0x0,0x0
000492 0000
000493 0000
000494 0000
000495 0000      	.DB  0x0,0x0,0x0,0x0,0x0,0x0,0x0,0x0
000496 0000
000497 0000
000498 0000
000499 0000      	.DB  0x0,0x0,0x0,0x0,0x0,0x0,0x0,0x0
00049a 0000
00049b 0000
00049c 0000
00049d 0000      	.DB  0x0,0x0,0x0,0x0,0x0,0x0,0x0,0x0
00049e 0000
00049f 0000
0004a0 0000
0004a1 0000      	.DB  0x0,0x0,0x0,0x0,0x0,0x0,0x0,0x0
0004a2 0000
0004a3 0000
0004a4 0000
0004a5 0000      	.DB  0x0,0x0,0x0,0x0,0x0,0x0,0x0,0x0
0004a6 0000
0004a7 0000
0004a8 0000
0004a9 0000      	.DB  0x0,0x0,0x0,0x0,0x0,0x0,0x0,0x0
0004aa 0000
0004ab 0000
0004ac 0000
0004ad 0000      	.DB  0x0,0x0,0x0,0x0,0x0,0x0,0x0,0x0
0004ae 0000
0004af 0000
0004b0 0000
0004b1 0000      	.DB  0x0,0x0,0x0,0x0,0x0,0x0,0x0,0x0
0004b2 0000
0004b3 0000
0004b4 0000
0004b5 0000      	.DB  0x0,0x0,0x0,0x0,0x0,0x0,0x0,0x0
0004b6 0000
0004b7 0000
0004b8 0000
0004b9 0000      	.DB  0x0,0x0,0x0,0x0,0x0,0x0,0x0,0x0
0004ba 0000
0004bb 0000
0004bc 0000
0004bd 0000      	.DB  0x0,0x0,0x0,0x0,0x0,0x0,0x0,0x0
0004be 0000
0004bf 0000
0004c0 0000
0004c1 0000      	.DB  0x0,0x0,0x0,0x0,0x0,0x0,0x0,0x0
0004c2 0000
0004c3 0000
0004c4 0000
0004c5 0000      	.DB  0x0,0x0,0x0,0x0,0x0,0x0,0x0,0x0
0004c6 0000
0004c7 0000
0004c8 0000
0004c9 0000      	.DB  0x0,0x0,0x0,0x0,0x0,0x0,0x0,0x0
0004ca 0000
0004cb 0000
0004cc 0000
0004cd 0000      	.DB  0x0,0x0,0x0,0x0,0x0,0x0,0x0,0x0
0004ce 0000
0004cf 0000
0004d0 0000
0004d1 0000      	.DB  0x0,0x0,0x0,0x0,0x0,0x0,0x0,0x0
0004d2 0000
0004d3 0000
0004d4 0000
0004d5 ff80      	.DB  0x0,0x0,0x0,0x0,0x0,0x0,0x80,0xFF
0004d6 ffff
0004d7 ffff
0004d8 efff
0004d9 003f      	.DB  0xFF,0xFF,0xFF,0xFF,0xFF,0xEF,0x3F,0x0
0004da 0000
0004db 0000
0004dc 0000
0004dd 007e      	.DB  0x0,0x0,0x0,0x0,0x0,0x0,0x7E,0x0
0004de 0000
0004df 0000
0004e0 07e0
0004e1 0700      	.DB  0x0,0x0,0x0,0x0,0xE0,0x7,0x0,0x7
0004e2 0000
0004e3 0000
0004e4 f000
0004e5 0001      	.DB  0x0,0x0,0x0,0x0,0x0,0xF0,0x1,0x0
0004e6 0000
0004e7 0000
0004e8 00dc
0004e9 1000      	.DB  0x0,0x0,0x0,0x0,0xDC,0x0,0x0,0x10
0004ea 0000
0004eb 0000
0004ec ff80
0004ed ffff      	.DB  0x0,0x0,0x0,0x0,0x80,0xFF,0xFF,0xFF
0004ee ffff
0004ef ffff
0004f0 0013
0004f1 3000      	.DB  0xFF,0xFF,0xFF,0xFF,0x13,0x0,0x0,0x30
0004f2 0000
0004f3 0000
0004f4 0020
0004f5 0000      	.DB  0x0,0x0,0x0,0x0,0x20,0x0,0x0,0x0
0004f6 0000
0004f7 2000
0004f8 0008
0004f9 0c00      	.DB  0x0,0x0,0x0,0x20,0x8,0x0,0x0,0xC
0004fa 0000
0004fb 0000
0004fc f020
0004fd c3c0      	.DB  0x0,0x0,0x0,0x0,0x20,0xF0,0xC0,0xC3
0004fe 7c03
0004ff 27f8
000500 0008
000501 5180      	.DB  0x3,0x7C,0xF8,0x27,0x8,0x0,0x80,0x51
000502 0000
000503 0000
000504 f020
000505 c3c0      	.DB  0x0,0x0,0x0,0x0,0x20,0xF0,0xC0,0xC3
000506 7e07
000507 27f8
000508 ffe8
000509 004f      	.DB  0x7,0x7E,0xF8,0x27,0xE8,0xFF,0x4F,0x0
00050a 0000
00050b 0000
00050c f020
00050d c3c0      	.DB  0x0,0x0,0x0,0x0,0x20,0xF0,0xC0,0xC3
00050e 7e0f
00050f 2ff8
000510 0008
000511 a050      	.DB  0xF,0x7E,0xF8,0x2F,0x8,0x0,0x50,0xA0
000512 0000
000513 0000
000514 f020
000515 c3c0      	.DB  0x0,0x0,0x0,0x0,0x20,0xF0,0xC0,0xC3
000516 7f1f
000517 2078
000518 0028
000519 80a0      	.DB  0x1F,0x7F,0x78,0x20,0x28,0x0,0xA0,0x80
00051a 001d
00051b 0000
00051c f020
00051d c3c0      	.DB  0x1D,0x0,0x0,0x0,0x20,0xF0,0xC0,0xC3
00051e 7fbf
00051f 23f8
000520 0008
000521 e020      	.DB  0xBF,0x7F,0xF8,0x23,0x8,0x0,0x20,0xE0
000522 0f0e
000523 0000
000524 f020
000525 c3c0      	.DB  0xE,0xF,0x0,0x0,0x20,0xF0,0xC0,0xC3
000526 7fff
000527 23f8
000528 0028
000529 0920      	.DB  0xFF,0x7F,0xF8,0x23,0x28,0x0,0x20,0x9
00052a 07c3
00052b 0002
00052c f020
00052d c3c0      	.DB  0xC3,0x7,0x2,0x0,0x20,0xF0,0xC0,0xC3
00052e 7fff
00052f 23f8
000530 0020
000531 4000      	.DB  0xFF,0x7F,0xF8,0x23,0x20,0x0,0x0,0x40
000532 e000
000533 000c
000534 f020
000535 c3c0      	.DB  0x0,0xE0,0xC,0x0,0x20,0xF0,0xC0,0xC3
000536 7bfb
000537 2078
000538 ffd0
000539 e07f      	.DB  0xFB,0x7B,0x78,0x20,0xD0,0xFF,0x7F,0xE0
00053a 0000
00053b 0064
00053c f020
00053d c3cf      	.DB  0x0,0x0,0x64,0x0,0x20,0xF0,0xCF,0xC3
00053e 79fb
00053f 2ff8
000540 01d8
000541 1080      	.DB  0xFB,0x79,0xF8,0x2F,0xD8,0x1,0x80,0x10
000542 00f8
000543 0068
000544 f020
000545 c3cf      	.DB  0xF8,0x0,0x68,0x0,0x20,0xF0,0xCF,0xC3
000546 78f3
000547 27f8
000548 0048
000549 0080      	.DB  0xF3,0x78,0xF8,0x27,0x48,0x0,0x80,0x0
00054a e000
00054b 0160
00054c f020
00054d c3cf      	.DB  0x0,0xE0,0x60,0x1,0x20,0xF0,0xCF,0xC3
00054e 7863
00054f 2ff8
000550 0018
000551 06c0      	.DB  0x63,0x78,0xF8,0x2F,0x18,0x0,0xC0,0x6
000552 1f80
000553 0131
000554 ffe0
000555 ffff      	.DB  0x80,0x1F,0x31,0x1,0xE0,0xFF,0xFF,0xFF
000556 ffff
000557 3fff
000558 001e
000559 01c0      	.DB  0xFF,0xFF,0xFF,0x3F,0x1E,0x0,0xC0,0x1
00055a 8000
00055b 0173
00055c ffc0
00055d ffff      	.DB  0x0,0x80,0x73,0x1,0xC0,0xFF,0xFF,0xFF
00055e ffff
00055f ffff
000560 001d
000561 0060      	.DB  0xFF,0xFF,0xFF,0xFF,0x1D,0x0,0x60,0x0
000562 0000
000563 0035
000564 0200
000565 0000      	.DB  0x0,0x0,0x35,0x0,0x0,0x2,0x0,0x0
000566 0000
000567 0000
000568 001a
000569 0000      	.DB  0x0,0x0,0x0,0x0,0x1A,0x0,0x0,0x0
00056a 0000
00056b 00d0
00056c fe00
00056d ffff      	.DB  0x0,0x0,0xD0,0x0,0x0,0xFE,0xFF,0xFF
00056e ffff
00056f ffff
000570 001f
000571 0010      	.DB  0xFF,0xFF,0xFF,0xFF,0x1F,0x0,0x10,0x0
000572 0000
000573 0011
000574 0000
000575 1ffc      	.DB  0x0,0x0,0x11,0x0,0x0,0x0,0xFC,0x1F
000576 ff62
000577 ffff
000578 000f
000579 0010      	.DB  0x62,0xFF,0xFF,0xFF,0xF,0x0,0x10,0x0
00057a 0000
00057b 0081
00057c 0000
00057d f9fc      	.DB  0x0,0x0,0x81,0x0,0x0,0x0,0xFC,0xF9
00057e fd87
00057f ffff
000580 001f
000581 0010      	.DB  0x87,0xFD,0xFF,0xFF,0x1F,0x0,0x10,0x0
000582 07fe
000583 0021
000584 0000
000585 fefc      	.DB  0xFE,0x7,0x21,0x0,0x0,0x0,0xFC,0xFE
000586 f70f
000587 ffff
000588 ffff
000589 8007      	.DB  0xF,0xF7,0xFF,0xFF,0xFF,0xFF,0x7,0x80
00058a 3fff
00058b 004f
00058c 0000
00058d fffc      	.DB  0xFF,0x3F,0x4F,0x0,0x0,0x0,0xFC,0xFF
00058e de7f
00058f ffff
000590 ffff
000591 c007      	.DB  0x7F,0xDE,0xFF,0xFF,0xFF,0xFF,0x7,0xC0
000592 3fff
000593 0014
000594 0000
000595 cffc      	.DB  0xFF,0x3F,0x14,0x0,0x0,0x0,0xFC,0xCF
000596 dcf3
000597 ffff
000598 ffff
000599 c00f      	.DB  0xF3,0xDC,0xFF,0xFF,0xFF,0xFF,0xF,0xC0
00059a 7c93
00059b 0312
00059c 0000
00059d 77fc      	.DB  0x93,0x7C,0x12,0x3,0x0,0x0,0xFC,0x77
00059e b9ec
00059f ffff
0005a0 ffff
0005a1 c00f      	.DB  0xEC,0xB9,0xFF,0xFF,0xFF,0xFF,0xF,0xC0
0005a2 fb1d
0005a3 0264
0005a4 0000
0005a5 8bc0      	.DB  0x1D,0xFB,0x64,0x2,0x0,0x0,0xC0,0x8B
0005a6 f1d1
0005a7 807f
0005a8 0403
0005a9 e01e      	.DB  0xD1,0xF1,0x7F,0x80,0x3,0x4,0x1E,0xE0
0005aa b016
0005ab 010f
0005ac 0000
0005ad 8be0      	.DB  0x16,0xB0,0xF,0x1,0x0,0x0,0xE0,0x8B
0005ae f1e5
0005af bf9f
0005b0 003f
0005b1 ebf0      	.DB  0xE5,0xF1,0x9F,0xBF,0x3F,0x0,0xF0,0xEB
0005b2 200e
0005b3 0080
0005b4 fc00
0005b5 6fff      	.DB  0xE,0x20,0x80,0x0,0x0,0xFC,0xFF,0x6F
0005b6 f1a0
0005b7 ffff
0005b8 ffff
0005b9 7fff      	.DB  0xA0,0xF1,0xFF,0xFF,0xFF,0xFF,0xFF,0x7F
0005ba 689a
0005bb 0030
0005bc fe00
0005bd efff      	.DB  0x9A,0x68,0x30,0x0,0x0,0xFE,0xFF,0xEF
0005be f7a0
0005bf ffff
0005c0 ffff
0005c1 ffff      	.DB  0xA0,0xF7,0xFF,0xFF,0xFF,0xFF,0xFF,0xFF
0005c2 ed1e
0005c3 0000
0005c4 ffe0
0005c5 cbff      	.DB  0x1E,0xED,0x0,0x0,0xE0,0xFF,0xFF,0xCB
0005c6 f7c1
0005c7 ffff
0005c8 ffff
0005c9 ffff      	.DB  0xC1,0xF7,0xFF,0xFF,0xFF,0xFF,0xFF,0xFF
0005ca f0fe
0005cb 0001
0005cc ffe0
0005cd 37ff      	.DB  0xFE,0xF0,0x1,0x0,0xE0,0xFF,0xFF,0x37
0005ce ffec
0005cf ffff
0005d0 ffff
0005d1 ffff      	.DB  0xEC,0xFF,0xFF,0xFF,0xFF,0xFF,0xFF,0xFF
0005d2 f21d
0005d3 00fd
0005d4 ffe0
0005d5 efff      	.DB  0x1D,0xF2,0xFD,0x0,0xE0,0xFF,0xFF,0xEF
0005d6 bbf1
0005d7 ffff
0005d8 ffff
0005d9 ffff      	.DB  0xF1,0xBB,0xFF,0xFF,0xFF,0xFF,0xFF,0xFF
0005da 7cb3
0005db 01fe
0005dc fff0
0005dd 3fff      	.DB  0xB3,0x7C,0xFE,0x1,0xF0,0xFF,0xFF,0x3F
0005de fffc
0005df ffff
0005e0 ffff
0005e1 efff      	.DB  0xFC,0xFF,0xFF,0xFF,0xFF,0xFF,0xFF,0xEF
0005e2 7f1f
0005e3 007f
0005e4 fff8
0005e5 ffff      	.DB  0x1F,0x7F,0x7F,0x0,0xF8,0xFF,0xFF,0xFF
0005e6 efff
0005e7 ffff
0005e8 ffff
0005e9 ffff      	.DB  0xFF,0xEF,0xFF,0xFF,0xFF,0xFF,0xFF,0xFF
0005ea 9fff
0005eb 00ff
0005ec fff8
0005ed fdff      	.DB  0xFF,0x9F,0xFF,0x0,0xF8,0xFF,0xFF,0xFD
0005ee fbff
0005ef ffff
0005f0 ffff
0005f1 7fff      	.DB  0xFF,0xFB,0xFF,0xFF,0xFF,0xFF,0xFF,0x7F
0005f2 ffff
0005f3 03ff
0005f4 ff80
0005f5 f7ff      	.DB  0xFF,0xFF,0xFF,0x3,0x80,0xFF,0xFF,0xF7
0005f6 fe7f
0005f7 ffff
0005f8 ffff
0005f9 ffff      	.DB  0x7F,0xFE,0xFF,0xFF,0xFF,0xFF,0xFF,0xFF
0005fa fbfd
0005fb 03ff
0005fc fc00
0005fd 3fff      	.DB  0xFD,0xFB,0xFF,0x3,0x0,0xFC,0xFF,0x3F
0005fe fff8
0005ff ffff
000600 ffff
000601 ffff      	.DB  0xF8,0xFF,0xFF,0xFF,0xFF,0xFF,0xFF,0xFF
000602 ffdf
000603 007f
000604 8000
000605 ff3b      	.DB  0xDF,0xFF,0x7F,0x0,0x0,0x80,0x3B,0xFF
000606 ffff
000607 ffff
000608 ffff
000609 ffff      	.DB  0xFF,0xFF,0xFF,0xFF,0xFF,0xFF,0xFF,0xFF
00060a ffff
00060b 001f
00060c 0000
00060d 0000      	.DB  0xFF,0xFF,0x1F,0x0,0x0,0x0,0x0,0x0
00060e ffc0
00060f ffe3
000610 ffff
000611 ffff      	.DB  0xC0,0xFF,0xE3,0xFF,0xFF,0xFF,0xFF,0xFF
000612 ffff
000613 0007
000614 0000
000615 e000      	.DB  0xFF,0xFF,0x7,0x0,0x0,0x0,0x0,0xE0
000616 ffff
000617 ffff
000618 ffff
000619 ffff      	.DB  0xFF,0xFF,0xFF,0xFF,0xFF,0xFF,0xFF,0xFF
00061a 0fff
00061b 0004
00061c 0000
00061d 0000      	.DB  0xFF,0xF,0x4,0x0,0x0,0x0,0x0,0x0
00061e fff0
00061f ff5c
000620 ffff
000621 c3ff      	.DB  0xF0,0xFF,0x5C,0xFF,0xFF,0xFF,0xFF,0xC3
000622 07ff
000623 0000
000624 0000
000625 0000      	.DB  0xFF,0x7,0x0,0x0,0x0,0x0,0x0,0x0
000626 ffe0
000627 ffff
000628 ffff
000629 ff0f      	.DB  0xE0,0xFF,0xFF,0xFF,0xFF,0xFF,0xF,0xFF
00062a 01ff
00062b 0000
00062c 0000
00062d 0000      	.DB  0xFF,0x1,0x0,0x0,0x0,0x0,0x0,0x0
00062e 6000
00062f f003
000630 1fff
000631 3ff8      	.DB  0x0,0x60,0x3,0xF0,0xFF,0x1F,0xF8,0x3F
000632 00fe
000633 0000
000634 0000
000635 0000      	.DB  0xFE,0x0,0x0,0x0,0x0,0x0,0x0,0x0
000636 0000
000637 0000
000638 fff0
000639 f87f      	.DB  0x0,0x0,0x0,0x0,0xF0,0xFF,0x7F,0xF8
00063a 01ff
00063b 0000
00063c 0000
00063d 0000      	.DB  0xFF,0x1,0x0,0x0,0x0,0x0,0x0,0x0
00063e 0000
00063f 0000
000640 e800
000641 c1c1      	.DB  0x0,0x0,0x0,0x0,0x0,0xE8,0xC1,0xC1
000642 007f
000643 0000
000644 0000
000645 0000      	.DB  0x7F,0x0,0x0,0x0,0x0,0x0,0x0,0x0
000646 0000
000647 0000
000648 2780
000649 0000      	.DB  0x0,0x0,0x0,0x0,0x80,0x27,0x0,0x0
00064a 00f7
00064b 0000
00064c 0000
00064d 0000      	.DB  0xF7,0x0,0x0,0x0,0x0,0x0,0x0,0x0
00064e 0000
00064f 0000
000650 0000
000651 1bdc      	.DB  0x0,0x0,0x0,0x0,0x0,0x0,0xDC,0x1B
000652 0000
000653 0000
000654 0000
000655 0000      	.DB  0x0,0x0,0x0,0x0,0x0,0x0,0x0,0x0
000656 0000
000657 0000
000658 0000
000659 0000      	.DB  0x0,0x0,0x0,0x0,0x0,0x0,0x0,0x0
00065a 0000
00065b 0000
00065c 0000
00065d 0000      	.DB  0x0,0x0,0x0,0x0,0x0,0x0,0x0,0x0
00065e 0000
00065f 0000
000660 0000
000661 0000      	.DB  0x0,0x0,0x0,0x0,0x0,0x0,0x0,0x0
000662 0000
000663 0000
000664 0000
000665 0000      	.DB  0x0,0x0,0x0,0x0,0x0,0x0,0x0,0x0
000666 0000
000667 0000
000668 0000
000669 0000      	.DB  0x0,0x0,0x0,0x0,0x0,0x0,0x0,0x0
00066a 0000
00066b 0000      	.DB  0x0,0x0,0x0,0x0
                 _AF8x8_G000:
00066c 9005
00066d 0809
00066e 0001
00066f 04fe      	.DB  0x5,0x90,0x9,0x8,0x1,0x0,0xFE,0x4
000670 0000
000671 0300
000672 0403
000673 0706      	.DB  0x0,0x0,0x0,0x3,0x3,0x4,0x6,0x7
000674 0706
000675 0706
000676 0808
000677 0206      	.DB  0x6,0x7,0x6,0x7,0x8,0x8,0x6,0x2
000678 0402
000679 0505
00067a 0405
00067b 0505      	.DB  0x2,0x4,0x5,0x5,0x5,0x4,0x5,0x5
00067c 0604
00067d 0305
00067e 0303
00067f 0203      	.DB  0x4,0x6,0x5,0x3,0x3,0x3,0x3,0x2
000680 0301
000681 0507
000682 0607
000683 0301      	.DB  0x1,0x3,0x7,0x5,0x7,0x6,0x1,0x3
000684 0503
000685 0105
000686 0103
000687 0503      	.DB  0x3,0x5,0x5,0x1,0x3,0x1,0x3,0x5
000688 0505
000689 0505
00068a 0505
00068b 0505      	.DB  0x5,0x5,0x5,0x5,0x5,0x5,0x5,0x5
00068c 0105
00068d 0502
00068e 0505
00068f 0704      	.DB  0x5,0x1,0x2,0x5,0x5,0x5,0x4,0x7
000690 0506
000691 0505
000692 0505
000693 0505      	.DB  0x6,0x5,0x5,0x5,0x5,0x5,0x5,0x5
000694 0403
000695 0405
000696 0607
000697 0506      	.DB  0x3,0x4,0x5,0x4,0x7,0x6,0x6,0x5
000698 0506
000699 0506
00069a 0505
00069b 0507      	.DB  0x6,0x5,0x6,0x5,0x5,0x5,0x7,0x5
00069c 0505
00069d 0302
00069e 0502
00069f 0205      	.DB  0x5,0x5,0x2,0x3,0x2,0x5,0x5,0x2
0006a0 0505
0006a1 0504
0006a2 0305
0006a3 0505      	.DB  0x5,0x5,0x4,0x5,0x5,0x3,0x5,0x5
0006a4 0301
0006a5 0104
0006a6 0407
0006a7 0405      	.DB  0x1,0x3,0x4,0x1,0x7,0x4,0x5,0x4
0006a8 0504
0006a9 0304
0006aa 0504
0006ab 0505      	.DB  0x4,0x5,0x4,0x3,0x4,0x5,0x5,0x5
0006ac 0404
0006ad 0204
0006ae 0704
0006af 0506      	.DB  0x4,0x4,0x4,0x2,0x4,0x7,0x6,0x5
0006b0 0307
0006b1 0606
0006b2 0505
0006b3 0505      	.DB  0x7,0x3,0x6,0x6,0x5,0x5,0x5,0x5
0006b4 0805
0006b5 0705
0006b6 0407
0006b7 0805      	.DB  0x5,0x8,0x5,0x7,0x7,0x4,0x5,0x8
0006b8 0505
0006b9 0505
0006ba 0606
0006bb 0805      	.DB  0x5,0x5,0x5,0x5,0x6,0x6,0x5,0x8
0006bc 0702
0006bd 0803
0006be 0706
0006bf 0706      	.DB  0x2,0x7,0x3,0x8,0x6,0x7,0x6,0x7
0006c0 0302
0006c1 0506
0006c2 0505
0006c3 0805      	.DB  0x2,0x3,0x6,0x5,0x5,0x5,0x5,0x8
0006c4 0b08
0006c5 0508
0006c6 0805
0006c7 0405      	.DB  0x8,0xB,0x8,0x5,0x5,0x8,0x5,0x4
0006c8 0504
0006c9 0000
0006ca 0008
0006cb 0002      	.DB  0x4,0x5,0x0,0x0,0x8,0x0,0x2,0x0
0006cc 0200
0006cd 0008
0006ce 0000
0006cf 0404      	.DB  0x0,0x2,0x8,0x0,0x0,0x0,0x4,0x4
0006d0 0503
0006d1 0404
0006d2 0702
0006d3 0701      	.DB  0x3,0x5,0x4,0x4,0x2,0x7,0x1,0x7
0006d4 0704
0006d5 0707
0006d6 0707
0006d7 0303      	.DB  0x4,0x7,0x7,0x7,0x7,0x7,0x3,0x3
0006d8 0404
0006d9 0808
0006da 0808
0006db 0606      	.DB  0x4,0x4,0x8,0x8,0x8,0x8,0x6,0x6
0006dc 0506
0006dd 0405
0006de 0708
0006df 0008      	.DB  0x6,0x5,0x5,0x4,0x8,0x7,0x8,0x0
0006e0 0006
0006e1 0607
0006e2 0404
0006e3 0006      	.DB  0x6,0x0,0x7,0x6,0x4,0x4,0x6,0x0
0006e4 0006
0006e5 0700
0006e6 0308
0006e7 0500      	.DB  0x6,0x0,0x0,0x7,0x8,0x3,0x0,0x5
0006e8 0305
0006e9 0003
0006ea 0505
0006eb 0505      	.DB  0x5,0x3,0x3,0x0,0x5,0x5,0x5,0x5
0006ec 0600
0006ed 0000
0006ee 0705
0006ef 1e00      	.DB  0x0,0x6,0x0,0x0,0x5,0x7,0x0,0x1E
0006f0 2020
0006f1 a020
0006f2 2218
0006f3 1822      	.DB  0x20,0x20,0x20,0xA0,0x18,0x22,0x22,0x18
0006f4 2624
0006f5 1820
0006f6 2820
0006f7 a824      	.DB  0x24,0x26,0x20,0x18,0x20,0x28,0x24,0xA8
0006f8 2030
0006f9 a040
0006fa a4a8
0006fb b028      	.DB  0x30,0x20,0x40,0xA0,0xA8,0xA4,0x28,0xB0
0006fc 2020
0006fd 2428
0006fe 3028
0006ff 4020      	.DB  0x20,0x20,0x28,0x24,0x28,0x30,0x20,0x40
000700 a8a0
000701 28a4
000702 2030
000703 2822      	.DB  0xA0,0xA8,0xA4,0x28,0x30,0x20,0x22,0x28
000704 2824
000705 2030
000706 a240
000707 a4a8      	.DB  0x24,0x28,0x30,0x20,0x40,0xA2,0xA8,0xA4
000708 3028
000709 2020
00070a 1820
00070b 1820      	.DB  0x28,0x30,0x20,0x20,0x20,0x18,0x20,0x18
00070c 2420
00070d 2018
00070e 1a20
00070f 1a22      	.DB  0x20,0x24,0x18,0x20,0x20,0x1A,0x22,0x1A
000710 2420
000711 2018
000712 3038
000713 2428      	.DB  0x20,0x24,0x18,0x20,0x38,0x30,0x28,0x24
000714 1818
000715 0618
000716 067c
000717 740c      	.DB  0x18,0x18,0x18,0x6,0x7C,0x6,0xC,0x74
000718 0602
000719 760c
00071a 0204
00071b 0e04      	.DB  0x2,0x6,0xC,0x76,0x4,0x2,0x4,0xE
00071c 0a7c
00071d 300a
00071e 244a
00071f 3048      	.DB  0x7C,0xA,0xA,0x30,0x4A,0x24,0x48,0x30
000720 2c40
000721 0a1a
000722 1806
000723 1860      	.DB  0x40,0x2C,0x1A,0xA,0x6,0x18,0x60,0x18
000724 6006
000725 0618
000726 6018
000727 0a04      	.DB  0x6,0x60,0x18,0x6,0x18,0x60,0x4,0xA
000728 403c
000729 3820
00072a 2832
00072b 1824      	.DB  0x3C,0x40,0x20,0x38,0x32,0x28,0x24,0x18
00072c 2820
00072d 2434
00072e 0010
00072f 1818      	.DB  0x20,0x28,0x34,0x24,0x10,0x0,0x18,0x18
000730 3800
000731 0034
000732 1c2c
000733 5c00      	.DB  0x0,0x38,0x34,0x0,0x2C,0x1C,0x0,0x5C
000734 005a
000735 5e00
000736 000e
000737 200e      	.DB  0x5A,0x0,0x0,0x5E,0xE,0x0,0xE,0x20
000738 38e8
000739 38ee
00073a 082e
00073b 5448      	.DB  0xE8,0x38,0xEE,0x38,0x2E,0x8,0x48,0x54
00073c 54d6
00073d 8424
00073e 244a
00073f 4810      	.DB  0xD6,0x54,0x24,0x84,0x4A,0x24,0x10,0x48
000740 42a4
000741 926c
000742 ac92
000743 a040      	.DB  0xA4,0x42,0x6C,0x92,0x92,0xAC,0x40,0xA0
000744 380e
000745 8244
000746 4482
000747 2838      	.DB  0xE,0x38,0x44,0x82,0x82,0x44,0x38,0x28
000748 7c10
000749 2810
00074a 1010
00074b 107c      	.DB  0x10,0x7C,0x10,0x28,0x10,0x10,0x7C,0x10
00074c e010
00074d 1010
00074e 2010
00074f 38c0      	.DB  0x10,0xE0,0x10,0x10,0x10,0x20,0xC0,0x38
000750 7c06
000751 92a2
000752 7c8a
000753 8400      	.DB  0x6,0x7C,0xA2,0x92,0x8A,0x7C,0x0,0x84
000754 80fe
000755 c400
000756 92a2
000757 8c92      	.DB  0xFE,0x80,0x0,0xC4,0xA2,0x92,0x92,0x8C
000758 8244
000759 9292
00075a 306c
00075b 2428      	.DB  0x44,0x82,0x92,0x92,0x6C,0x30,0x28,0x24
00075c 20fe
00075d 8a4e
00075e 8a8a
00075f 7872      	.DB  0xFE,0x20,0x4E,0x8A,0x8A,0x8A,0x72,0x78
000760 9294
000761 6092
000762 8202
000763 1a62      	.DB  0x94,0x92,0x92,0x60,0x2,0x82,0x62,0x1A
000764 6c06
000765 9292
000766 6c92
000767 920c      	.DB  0x6,0x6C,0x92,0x92,0x92,0x6C,0xC,0x92
000768 5292
000769 6c3c
00076a 6c80
00076b 2810      	.DB  0x92,0x52,0x3C,0x6C,0x80,0x6C,0x10,0x28
00076c 4428
00076d 2844
00076e 2828
00076f 2828      	.DB  0x28,0x44,0x44,0x28,0x28,0x28,0x28,0x28
000770 4444
000771 2828
000772 0410
000773 12a2      	.DB  0x44,0x44,0x28,0x28,0x10,0x4,0xA2,0x12
000774 380c
000775 b244
000776 baaa
000777 1824      	.DB  0xC,0x38,0x44,0xB2,0xAA,0xBA,0x24,0x18
000778 2cf0
000779 2222
00077a f02c
00077b 92fe      	.DB  0xF0,0x2C,0x22,0x22,0x2C,0xF0,0xFE,0x92
00077c 9292
00077d 7c6c
00077e 8282
00077f 4482      	.DB  0x92,0x92,0x6C,0x7C,0x82,0x82,0x82,0x44
000780 82fe
000781 8282
000782 fe7c
000783 9292      	.DB  0xFE,0x82,0x82,0x82,0x7C,0xFE,0x92,0x92
000784 8292
000785 12fe
000786 1212
000787 7c02      	.DB  0x92,0x82,0xFE,0x12,0x12,0x12,0x2,0x7C
000788 9282
000789 7492
00078a 10fe
00078b 1010      	.DB  0x82,0x92,0x92,0x74,0xFE,0x10,0x10,0x10
00078c 82fe
00078d 82fe
00078e 8280
00078f 7e82      	.DB  0xFE,0x82,0xFE,0x82,0x80,0x82,0x82,0x7E
000790 10fe
000791 4428
000792 fe82
000793 8080      	.DB  0xFE,0x10,0x28,0x44,0x82,0xFE,0x80,0x80
000794 fe80
000795 1806
000796 1860
000797 fe06      	.DB  0x80,0xFE,0x6,0x18,0x60,0x18,0x6,0xFE
000798 06fe
000799 6018
00079a fe80
00079b 4438      	.DB  0xFE,0x6,0x18,0x60,0x80,0xFE,0x38,0x44
00079c 8282
00079d 3844
00079e 22fe
00079f 2222      	.DB  0x82,0x82,0x44,0x38,0xFE,0x22,0x22,0x22
0007a0 381c
0007a1 8244
0007a2 44a2
0007a3 feb8      	.DB  0x1C,0x38,0x44,0x82,0xA2,0x44,0xB8,0xFE
0007a4 3212
0007a5 8c52
0007a6 924c
0007a7 9292      	.DB  0x12,0x32,0x52,0x8C,0x4C,0x92,0x92,0x92
0007a8 6492
0007a9 0202
0007aa 02fe
0007ab 7e02      	.DB  0x92,0x64,0x2,0x2,0xFE,0x2,0x2,0x7E
0007ac 8080
0007ad 7e80
0007ae 700e
0007af 7080      	.DB  0x80,0x80,0x80,0x7E,0xE,0x70,0x80,0x70
0007b0 0e0e
0007b1 8070
0007b2 807c
0007b3 0e70      	.DB  0xE,0xE,0x70,0x80,0x7C,0x80,0x70,0xE
0007b4 28c6
0007b5 2810
0007b6 06c6
0007b7 f008      	.DB  0xC6,0x28,0x10,0x28,0xC6,0x6,0x8,0xF0
0007b8 0608
0007b9 a2c2
0007ba 8a92
0007bb fe86      	.DB  0x8,0x6,0xC2,0xA2,0x92,0x8A,0x86,0xFE
0007bc 0682
0007bd c038
0007be fe82
0007bf 0408      	.DB  0x82,0x6,0x38,0xC0,0x82,0xFE,0x8,0x4
0007c0 0402
0007c1 8008
0007c2 8080
0007c3 8080      	.DB  0x2,0x4,0x8,0x80,0x80,0x80,0x80,0x80
0007c4 0402
0007c5 9460
0007c6 9494
0007c7 fef8      	.DB  0x2,0x4,0x60,0x94,0x94,0x94,0xF8,0xFE
0007c8 8850
0007c9 7088
0007ca 8870
0007cb 5088      	.DB  0x50,0x88,0x88,0x70,0x70,0x88,0x88,0x50
0007cc 8870
0007cd 5088
0007ce 78fe
0007cf 9494      	.DB  0x70,0x88,0x88,0x50,0xFE,0x78,0x94,0x94
0007d0 5894
0007d1 fc08
0007d2 4c0a
0007d3 9292      	.DB  0x94,0x58,0x8,0xFC,0xA,0x4C,0x92,0x92
0007d4 7e94
0007d5 10fe
0007d6 0808
0007d7 faf0      	.DB  0x94,0x7E,0xFE,0x10,0x8,0x8,0xF0,0xFA
0007d8 8880
0007d9 fe7a
0007da 5020
0007db fe88      	.DB  0x80,0x88,0x7A,0xFE,0x20,0x50,0x88,0xFE
0007dc 20f0
0007dd f010
0007de 1010
0007df f0e0      	.DB  0xF0,0x20,0x10,0xF0,0x10,0x10,0xE0,0xF0
0007e0 1010
0007e1 70e0
0007e2 8888
0007e3 7088      	.DB  0x10,0x10,0xE0,0x70,0x88,0x88,0x88,0x70
0007e4 24fc
0007e5 1824
0007e6 2418
0007e7 fc24      	.DB  0xFC,0x24,0x24,0x18,0x18,0x24,0x24,0xFC
0007e8 10f8
0007e9 0808
0007ea 5810
0007eb a494      	.DB  0xF8,0x10,0x8,0x8,0x10,0x58,0x94,0xA4
0007ec 7c68
0007ed 8888
0007ee 8078
0007ef f840      	.DB  0x68,0x7C,0x88,0x88,0x78,0x80,0x40,0xF8
0007f0 6018
0007f1 6080
0007f2 7818
0007f3 7080      	.DB  0x18,0x60,0x80,0x60,0x18,0x78,0x80,0x70
0007f4 7880
0007f5 5088
0007f6 5020
0007f7 8688      	.DB  0x80,0x78,0x88,0x50,0x20,0x50,0x88,0x86
0007f8 4888
0007f9 883e
0007fa a8c8
0007fb 1098      	.DB  0x88,0x48,0x3E,0x88,0xC8,0xA8,0x98,0x10
0007fc 826c
0007fd 0082
0007fe 827c
0007ff 6c82      	.DB  0x6C,0x82,0x82,0x0,0x7C,0x82,0x82,0x6C
000800 1810
000801 2020
000802 0810
000803 3008      	.DB  0x10,0x18,0x20,0x20,0x10,0x8,0x8,0x30
000804 6002
000805 8a94
000806 2096
000807 2220      	.DB  0x2,0x60,0x94,0x8A,0x96,0x20,0x20,0x22
000808 3428
000809 1818
00080a a024
00080b a0a0      	.DB  0x28,0x34,0x18,0x18,0x24,0xA0,0xA0,0xA0
00080c 1820
00080d 6040
00080e 2020
00080f 2222      	.DB  0x20,0x18,0x40,0x60,0x20,0x20,0x22,0x22
000810 3428
000811 4018
000812 2060
000813 6040      	.DB  0x28,0x34,0x18,0x40,0x60,0x20,0x40,0x60
000814 2020
000815 2000
000816 2000
000817 0c08      	.DB  0x20,0x20,0x0,0x20,0x0,0x20,0x8,0xC
000818 0c7e
000819 2808
00081a fe6c
00081b 286c      	.DB  0x7E,0xC,0x8,0x28,0x6C,0xFE,0x6C,0x28
00081c 1e0c
00081d 1e3c
00081e 0c0c
00081f 2412      	.DB  0xC,0x1E,0x3C,0x1E,0xC,0xC,0x12,0x24
000820 0c12
000821 2020
000822 2038
000823 2018      	.DB  0x12,0xC,0x20,0x20,0x38,0x20,0x18,0x20
000824 1824
000825 1e10
000826 1e5f
000827 2010      	.DB  0x24,0x18,0x10,0x1E,0x5F,0x1E,0x10,0x20
000828 2a24
000829 2a2a
00082a 0012
00082b a040      	.DB  0x24,0x2A,0x2A,0x2A,0x12,0x0,0x40,0xA0
00082c 24a8
00082d b0a8
00082e 80a0
00082f 4480      	.DB  0xA8,0x24,0xA8,0xB0,0xA0,0x80,0x80,0x44
000830 1836
000831 3c18
000832 ff7e
000833 2418      	.DB  0x36,0x18,0x18,0x3C,0x7E,0xFF,0x18,0x24
000834 2c20
000835 2b2a
000836 132b
000837 f8c0      	.DB  0x20,0x2C,0x2A,0x2B,0x2B,0x13,0xC0,0xF8
000838 6204
000839 1c7f
00083a e427
00083b 1c27      	.DB  0x4,0x62,0x7F,0x1C,0x27,0xE4,0x27,0x1C
00083c fe60
00083d fef9
00083e 7060
00083f 838c      	.DB  0x60,0xFE,0xF9,0xFE,0x60,0x70,0x8C,0x83
000840 708c
000841 2020
000842 d478
000843 2028      	.DB  0x8C,0x70,0x20,0x20,0x78,0xD4,0x28,0x20
000844 1000
000845 1010
000846 1010
000847 1000      	.DB  0x0,0x10,0x10,0x10,0x10,0x10,0x0,0x10
000848 1010
000849 1810
00084a 2024
00084b 2a2c      	.DB  0x10,0x10,0x10,0x18,0x24,0x20,0x2C,0x2A
00084c 2a2a
00084d c012
00084e 40c0
00084f a8a0      	.DB  0x2A,0x2A,0x12,0xC0,0xC0,0x40,0xA0,0xA8
000850 28a4
000851 20b0
000852 2844
000853 7010      	.DB  0xA4,0x28,0xB0,0x20,0x44,0x28,0x10,0x70
000854 8088
000855 a890
000856 1048
000857 2020      	.DB  0x88,0x80,0x90,0xA8,0x48,0x10,0x20,0x20
000858 a4a8
000859 30a8
00085a 4020
00085b a8a0      	.DB  0xA8,0xA4,0xA8,0x30,0x20,0x40,0xA0,0xA8
00085c a824
00085d a0b0
00085e 2400
00085f 2038      	.DB  0x24,0xA8,0xB0,0xA0,0x0,0x24,0x38,0x20
000860 201e
000861 4038
000862 8c80
000863 9292      	.DB  0x1E,0x20,0x38,0x40,0x80,0x8C,0x92,0x92
000864 3864
000865 4434
000866 3246
000867 0503      	.DB  0x64,0x38,0x34,0x44,0x46,0x32,0x3,0x5
000868 ffff
000869 0305
00086a c0c0
00086b f000      	.DB  0xFF,0xFF,0x5,0x3,0xC0,0xC0,0x0,0xF0
00086c 00f0
00086d 2826
00086e 3e30
00086f 797e      	.DB  0xF0,0x0,0x26,0x28,0x30,0x3E,0x7E,0x79
000870 7949
000871 7e7e
000872 4979
000873 7879      	.DB  0x49,0x79,0x7E,0x7E,0x79,0x49,0x79,0x78
000874 c0c0
000875 f000
000876 00f0
000877 fcfc      	.DB  0xC0,0xC0,0x0,0xF0,0xF0,0x0,0xFC,0xFC
000878 423c
000879 a599
00087a a5a5
00087b 3c42      	.DB  0x3C,0x42,0x99,0xA5,0xA5,0xA5,0x42,0x3C
00087c c0c0
00087d f000
00087e 00f0
00087f fcfc      	.DB  0xC0,0xC0,0x0,0xF0,0xF0,0x0,0xFC,0xFC
000880 ff00
000881 10ff
000882 7c38
000883 10fe      	.DB  0x0,0xFF,0xFF,0x10,0x38,0x7C,0xFE,0x10
000884 7c38
000885 fefe
000886 8183
000887 fe83      	.DB  0x38,0x7C,0xFE,0xFE,0x83,0x81,0x83,0xFE
000888 e3fe
000889 e3e1
00088a 3cfe
00088b bd42      	.DB  0xFE,0xE3,0xE1,0xE3,0xFE,0x3C,0x42,0xBD
00088c 9595
00088d 42a9
00088e fe3c
00088f f9fb      	.DB  0x95,0x95,0xA9,0x42,0x3C,0xFE,0xFB,0xF9
000890 fefb
000891 0e00
000892 0e0a
000893 2400      	.DB  0xFB,0xFE,0x0,0xE,0xA,0xE,0x0,0x24
000894 242e
000895 fffe
000896 ffff
000897 30fe      	.DB  0x2E,0x24,0xFE,0xFF,0xFF,0xFF,0xFE,0x30
000898 4048
000899 5040
00089a 2858
00089b 3008      	.DB  0x48,0x40,0x40,0x50,0x58,0x28,0x8,0x30
00089c 5c30
00089d fe5a
00089e 387c
00089f fe10      	.DB  0x30,0x5C,0x5A,0xFE,0x7C,0x38,0x10,0xFE
0008a0 387c
0008a1 0c10
0008a2 b212
0008a3 2004      	.DB  0x7C,0x38,0x10,0xC,0x12,0xB2,0x4,0x20
0008a4 a4a0
0008a5 2018
0008a6 1418
0008a7 0400      	.DB  0xA0,0xA4,0x18,0x20,0x18,0x14,0x0,0x4
0008a8 7a02
0008a9 0002
0008aa 0604
0008ab 80f2      	.DB  0x2,0x7A,0x2,0x0,0x4,0x6,0xF2,0x80
0008ac 5488
0008ad 0038
0008ae 307e
0008af 4048      	.DB  0x88,0x54,0x38,0x0,0x7E,0x30,0x48,0x40
0008b0 5448
0008b1 0434
0008b2 187e
0008b3 2024      	.DB  0x48,0x54,0x34,0x4,0x7E,0x18,0x24,0x20
0008b4 20a0
0008b5 1820
0008b6 4a30
0008b7 2052      	.DB  0xA0,0x20,0x20,0x18,0x30,0x4A,0x52,0x20
0008b8 2418
0008b9 2220
0008ba 2022
0008bb 1818      	.DB  0x18,0x24,0x20,0x22,0x22,0x20,0x18,0x18
0008bc 2024
0008bd 2624
0008be 1820
0008bf a040      	.DB  0x24,0x20,0x24,0x26,0x20,0x18,0x40,0xA0
0008c0 a4a8
0008c1 b028
0008c2 4020
0008c3 a8a0      	.DB  0xA8,0xA4,0x28,0xB0,0x20,0x40,0xA0,0xA8
0008c4 28a4
0008c5 2030
0008c6 a240
0008c7 a4a8      	.DB  0xA4,0x28,0x30,0x20,0x40,0xA2,0xA8,0xA4
0008c8 3028
0008c9 2020
0008ca 1824
0008cb 2520      	.DB  0x28,0x30,0x20,0x20,0x24,0x18,0x20,0x25
0008cc 8018
0008cd 4080
0008ce 8030
0008cf 4480      	.DB  0x18,0x80,0x80,0x40,0x30,0x80,0x80,0x44
0008d0 7030
0008d1 8088
0008d2 2078
0008d3 2018      	.DB  0x30,0x70,0x88,0x80,0x78,0x20,0x18,0x20
0008d4 7018
0008d5 8088
0008d6 2278
0008d7 221a      	.DB  0x18,0x70,0x88,0x80,0x78,0x22,0x1A,0x22
0008d8 7018
0008d9 8088
0008da 3078
0008db 2428      	.DB  0x18,0x70,0x88,0x80,0x78,0x30,0x28,0x24
0008dc 7018
0008dd 8088
0008de 3278
0008df 2428      	.DB  0x18,0x70,0x88,0x80,0x78,0x32,0x28,0x24
0008e0 0018
0008e1 1422
0008e2 1408
0008e3 2022      	.DB  0x18,0x0,0x22,0x14,0x8,0x14,0x22,0x20
0008e4 303e
0008e5 2428
0008e6 2018
0008e7 303e      	.DB  0x3E,0x30,0x28,0x24,0x18,0x20,0x3E,0x30
0008e8 242a
0008e9 6018
0008ea 9890
0008eb 9494      	.DB  0x2A,0x24,0x18,0x60,0x90,0x98,0x94,0x94
0008ec 9062
0008ed 9498
0008ee 2094
0008ef 2020      	.DB  0x62,0x90,0x98,0x94,0x94,0x20,0x20,0x20
0008f0 6020
0008f1 8090
0008f2 8084
0008f3 d0a0      	.DB  0x20,0x60,0x90,0x80,0x84,0x80,0xA0,0xD0
0008f4 3060
0008f5 824a
0008f6 8c80
0008f7 3c52      	.DB  0x60,0x30,0x4A,0x82,0x80,0x8C,0x52,0x3C
0008f8 2418
0008f9 2c20
0008fa 2a2a
0008fb 122a      	.DB  0x18,0x24,0x20,0x2C,0x2A,0x2A,0x2A,0x12
0008fc 4830
0008fd 4040
0008fe 1e20
0008ff 9060      	.DB  0x30,0x48,0x40,0x40,0x20,0x1E,0x60,0x90
000900 1c08
000901 2422
000902 7018
000903 8088      	.DB  0x8,0x1C,0x22,0x24,0x18,0x70,0x88,0x80
000904 4082
000905 0c38
000906 1412
000907 8008      	.DB  0x82,0x40,0x38,0xC,0x12,0x14,0x8,0x80
000908 5488
000909 0838
00090a 1214
00090b 100c      	.DB  0x88,0x54,0x38,0x8,0x14,0x12,0xC,0x10
00090c 1020
00090d 2529
00090e 2018
00090f 3840      	.DB  0x20,0x10,0x29,0x25,0x18,0x20,0x40,0x38
000910 8044
000911 928c
000912 6492
000913 8870      	.DB  0x44,0x80,0x8C,0x92,0x92,0x64,0x70,0x88
000914 8080
000915 a890
000916 0464
000917 7204      	.DB  0x80,0x80,0x90,0xA8,0x64,0x4,0x4,0x72
000918 2004
000919 3428
00091a 202c
00091b 9460      	.DB  0x4,0x20,0x28,0x34,0x2C,0x20,0x60,0x94
00091c 968a
00091d 2020
00091e 1822
00091f 2020      	.DB  0x8A,0x96,0x20,0x20,0x22,0x18,0x20,0x20
000920 221e
000921 3428
000922 1024
000923 2822      	.DB  0x1E,0x22,0x28,0x34,0x24,0x10,0x22,0x28
000924 2c34
000925 1020
000926 5410
000927 1010      	.DB  0x34,0x2C,0x20,0x10,0x10,0x54,0x10,0x10
000928 2020
000929 2418
00092a 2018
00092b 2a2c      	.DB  0x20,0x20,0x18,0x24,0x18,0x20,0x2C,0x2A
00092c 2b2b
00092d 2013
00092e a0a0
00092f 18a4      	.DB  0x2B,0x2B,0x13,0x20,0xA0,0xA0,0xA4,0x18
000930 4020
000931 2a50
000932 4854
000933 0030      	.DB  0x20,0x40,0x50,0x2A,0x54,0x48,0x30,0x0
                 _PEmap:
000934 c1c1
000935 c1c1
000936 0000
000937 c2c2      	.DB  0xC1,0xC1,0xC1,0xC1,0x0,0x0,0xC2,0xC2
000938 0202
000939 0001
00093a c3c3
00093b 0101      	.DB  0x2,0x2,0x1,0x0,0xC3,0xC3,0x1,0x1
00093c 0001
00093d c4c4
00093e c4c4
00093f 0000      	.DB  0x1,0x0,0xC4,0xC4,0xC4,0xC4,0x0,0x0
000940 c5c5
000941 0303
000942 0001
000943 c6c6      	.DB  0xC5,0xC5,0x3,0x3,0x1,0x0,0xC6,0xC6
000944 c6c6
000945 0000
000946 c7c7
000947 0000      	.DB  0xC6,0xC6,0x0,0x0,0xC7,0xC7,0x0,0x0
000948 0001
000949 04c8
00094a 04c8
00094b 0101      	.DB  0x1,0x0,0xC8,0x4,0xC8,0x4,0x1,0x1
00094c fec9
00094d 95e9
00094e 0101
00094f 05ca      	.DB  0xC9,0xFE,0xE9,0x95,0x1,0x1,0xCA,0x5
000950 05ca
000951 0101
000952 06cb
000953 06cb      	.DB  0xCA,0x5,0x1,0x1,0xCB,0x6,0xCB,0x6
000954 0101
000955 07cc
000956 0708
000957 0101      	.DB  0x1,0x1,0xCC,0x7,0x8,0x7,0x1,0x1
000958 09cd
000959 099a
00095a 0101
00095b 0bce      	.DB  0xCD,0x9,0x9A,0x9,0x1,0x1,0xCE,0xB
00095c 0b0c
00095d 0101
00095e cfcf
00095f cfcf      	.DB  0xC,0xB,0x1,0x1,0xCF,0xCF,0xCF,0xCF
000960 0001
000961 d0d0
000962 d0d0
000963 0001      	.DB  0x1,0x0,0xD0,0xD0,0xD0,0xD0,0x1,0x0
000964 d1d1
000965 d1d1
000966 0001
000967 d2d2      	.DB  0xD1,0xD1,0xD1,0xD1,0x1,0x0,0xD2,0xD2
000968 d2d2
000969 0001
00096a 8ad3
00096b 8ad3      	.DB  0xD2,0xD2,0x1,0x0,0xD3,0x8A,0xD3,0x8A
00096c 0101
00096d 0ed4
00096e 0ed4
00096f 0101      	.DB  0x1,0x1,0xD4,0xE,0xD4,0xE,0x1,0x1
000970 0fd5
000971 0fd5
000972 0101
000973 1ad6      	.DB  0xD5,0xF,0xD5,0xF,0x1,0x1,0xD6,0x1A
000974 1ad6
000975 0101
000976 d7d7
000977 d7d7      	.DB  0xD6,0x1A,0x1,0x1,0xD7,0xD7,0xD7,0xD7
000978 0000
000979 d8d8
00097a d8d8
00097b 0101      	.DB  0x0,0x0,0xD8,0xD8,0xD8,0xD8,0x1,0x1
00097c d9d9
00097d d9d9
00097e 0101
00097f 1bda      	.DB  0xD9,0xD9,0xD9,0xD9,0x1,0x1,0xDA,0x1B
000980 f0f1
000981 0101
000982 f5db
000983 f67f      	.DB  0xF1,0xF0,0x1,0x1,0xDB,0xF5,0x7F,0xF6
000984 0101
000985 dcdc
000986 dcdc
000987 0101      	.DB  0x1,0x1,0xDC,0xDC,0xDC,0xDC,0x1,0x1
000988 80dd
000989 80dd
00098a 0101
00098b 83de      	.DB  0xDD,0x80,0xDD,0x80,0x1,0x1,0xDE,0x83
00098c 83de
00098d 0101
00098e 8cdf
00098f 8cdf      	.DB  0xDE,0x83,0x1,0x1,0xDF,0x8C,0xDF,0x8C
000990 0101
000991 e0e0
000992 e0e0
000993 0000      	.DB  0x1,0x1,0xE0,0xE0,0xE0,0xE0,0x0,0x0
000994 f3e1
000995 f3e1
000996 0101
000997 e2e2      	.DB  0xE1,0xF3,0xE1,0xF3,0x1,0x1,0xE2,0xE2
000998 e2e2
000999 0000
00099a f8e3
00099b f8e3      	.DB  0xE2,0xE2,0x0,0x0,0xE3,0xF8,0xE3,0xF8
00099c 0101
00099d f2e4
00099e f2e4
00099f 0101      	.DB  0x1,0x1,0xE4,0xF2,0xE4,0xF2,0x1,0x1
0009a0 fee5
0009a1 95e7
0009a2 0101
0009a3 e6e6      	.DB  0xE5,0xFE,0xE7,0x95,0x1,0x1,0xE6,0xE6
0009a4 e6e6
0009a5 0001
0009a6 e7e7
0009a7 e7e7      	.DB  0xE6,0xE6,0x1,0x0,0xE7,0xE7,0xE7,0xE7
0009a8 0000
0009a9 e8e8
0009aa e8e8
0009ab 0000      	.DB  0x0,0x0,0xE8,0xE8,0xE8,0xE8,0x0,0x0
0009ac e9e9
0009ad e9e9
0009ae 0000
0009af fd81      	.DB  0xE9,0xE9,0xE9,0xE9,0x0,0x0,0x81,0xFD
0009b0 fd81
0009b1 0101
0009b2 9d8d
0009b3 9d9e      	.DB  0x81,0xFD,0x1,0x1,0x8D,0x9D,0x9E,0x9D
0009b4 0101
0009b5 c0ec
0009b6 c0a0
0009b7 0101      	.DB  0x1,0x1,0xEC,0xC0,0xA0,0xC0,0x1,0x1
0009b8 c0ed
0009b9 c09c
0009ba 0101
0009bb 8e8e      	.DB  0xED,0xC0,0x9C,0xC0,0x1,0x1,0x8E,0x8E
0009bc 8e8e
0009bd 0001
0009be fa90
0009bf fa90      	.DB  0x8E,0x8E,0x1,0x0,0x90,0xFA,0x90,0xFA
0009c0 0101
0009c1 f0f0
0009c2 f0f0
0009c3 0000      	.DB  0x1,0x1,0xF0,0xF0,0xF0,0xF0,0x0,0x0
0009c4 f1f1
0009c5 f1f1
0009c6 0000
0009c7 f2f2      	.DB  0xF1,0xF1,0xF1,0xF1,0x0,0x0,0xF2,0xF2
0009c8 f2f2
0009c9 0000
0009ca f3f3
0009cb f3f3      	.DB  0xF2,0xF2,0x0,0x0,0xF3,0xF3,0xF3,0xF3
0009cc 0000
0009cd f4f4
0009ce f4f4
0009cf 0000      	.DB  0x0,0x0,0xF4,0xF4,0xF4,0xF4,0x0,0x0
0009d0 f5f5
0009d1 f5f5
0009d2 0000
0009d3 f6f6      	.DB  0xF5,0xF5,0xF5,0xF5,0x0,0x0,0xF6,0xF6
0009d4 f6f6
0009d5 0000
0009d6 f7f7
0009d7 f7f7      	.DB  0xF6,0xF6,0x0,0x0,0xF7,0xF7,0xF7,0xF7
0009d8 0000
0009d9 f8f8
0009da f8f8
0009db 0000      	.DB  0x0,0x0,0xF8,0xF8,0xF8,0xF8,0x0,0x0
0009dc f9f9
0009dd f9f9
0009de 0000
0009df fafa      	.DB  0xF9,0xF9,0xF9,0xF9,0x0,0x0,0xFA,0xFA
0009e0 fafa
0009e1 0000
0009e2 a5a5
0009e3 9f9f      	.DB  0xFA,0xFA,0x0,0x0,0xA5,0xA5,0x9F,0x9F
0009e4 0001
0009e5 fcfc
0009e6 fcfc
0009e7 0000      	.DB  0x1,0x0,0xFC,0xFC,0xFC,0xFC,0x0,0x0
0009e8 fdfd
0009e9 fdfd
0009ea 0000
0009eb fefe      	.DB  0xFD,0xFD,0xFD,0xFD,0x0,0x0,0xFE,0xFE
0009ec fefe
0009ed 0000
0009ee ffff
0009ef ffff      	.DB  0xFE,0xFE,0x0,0x0,0xFF,0xFF,0xFF,0xFF
0009f0 0000      	.DB  0x0,0x0
                 __glcd_mask:
0009f1 0100
0009f2 0703
0009f3 1f0f
0009f4 7f3f      	.DB  0x0,0x1,0x3,0x7,0xF,0x1F,0x3F,0x7F
C:\Users\Barouei\Desktop\Bms\sazman\14000514\Debug\List\st7920-4bit.asm(1762): warning: .cseg .db misalignment - padding zero byte
0009f5 00ff      	.DB  0xFF
                 _st7920_init_4bit_G101:
0009f6 3030
0009f7 0020
0009f8 0020      	.DB  0x30,0x30,0x20,0x0,0x20,0x0
                 _st7920_base_y_G101:
0009f9 9080
0009fa 9888      	.DB  0x80,0x90,0x88,0x98
                 
                 ;REGISTER BIT VARIABLES INITIALIZATION
                 __REG_BIT_VARS:
0009fb 0001      	.DW  0x0001
                 
                 ;GLOBAL REGISTER VARIABLES INITIALIZATION
                 __REG_VARS:
0009fc 01fa
0009fd 0000      	.DB  0xFA,0x1,0x0,0x0
0009fe 0000
0009ff 0000      	.DB  0x0,0x0,0x0,0x0
C:\Users\Barouei\Desktop\Bms\sazman\14000514\Debug\List\st7920-4bit.asm(1776): warning: .cseg .db misalignment - padding zero byte
000a00 0000      	.DB  0x0
                 
                 _0x3:
000a01 6153
000a02 0074
000a03 7553
000a04 006e      	.DB  0x53,0x61,0x74,0x0,0x53,0x75,0x6E,0x0
000a05 6f4d
000a06 006e
000a07 7554
000a08 0065      	.DB  0x4D,0x6F,0x6E,0x0,0x54,0x75,0x65,0x0
000a09 6557
000a0a 0064
000a0b 6854
000a0c 0075      	.DB  0x57,0x65,0x64,0x0,0x54,0x68,0x75,0x0
000a0d 7246
C:\Users\Barouei\Desktop\Bms\sazman\14000514\Debug\List\st7920-4bit.asm(1782): warning: .cseg .db misalignment - padding zero byte
000a0e 0069      	.DB  0x46,0x72,0x69
                 _0x0:
000a0f 6568
000a10 6c6c
000a11 206f
000a12 6f77      	.DB  0x68,0x65,0x6C,0x6C,0x6F,0x20,0x77,0x6F
000a13 6c72
000a14 2164
000a15 7400
000a16 7365      	.DB  0x72,0x6C,0x64,0x21,0x0,0x74,0x65,0x73
000a17 2074
000a18 3231
000a19 3433
000a1a 0035      	.DB  0x74,0x20,0x31,0x32,0x33,0x34,0x35,0x0
000a1b e5c8
000a1c e420
000a1d e3c7
000a1e ce20      	.DB  0xC8,0xE5,0x20,0xE4,0xC7,0xE3,0x20,0xCE
000a1f c7cf
000a20 d300
000a21 c7e1
000a22 00e3      	.DB  0xCF,0xC7,0x0,0xD3,0xE1,0xC7,0xE3,0x0
000a23 cde3
000a24 cfe3
000a25 cd20
000a26 e4d3      	.DB  0xE3,0xCD,0xE3,0xCF,0x20,0xCD,0xD3,0xE4
000a27 c820
000a28 d1c7
000a29 ede6
000a2a c700      	.DB  0x20,0xC8,0xC7,0xD1,0xE6,0xED,0x0,0xC7
000a2b d3ce
000a2c e4c7
000a2d db20
000a2e e6dd      	.DB  0xCE,0xD3,0xC7,0xE4,0x20,0xDB,0xDD,0xE6
000a2f edd1
000a30 e4c7
000a31 e300
000a32 98ed      	.DB  0xD1,0xED,0xC7,0xE4,0x0,0xE3,0xED,0x98
000a33 e6d1
000a34 ede4
000a35 0098
000a36 6d45      	.DB  0xD1,0xE6,0xE4,0xED,0x98,0x0,0x45,0x6D
000a37 6574
000a38 6863
000a39 696e
000a3a 2e63      	.DB  0x74,0x65,0x63,0x68,0x6E,0x69,0x63,0x2E
000a3b 7269
000a3c 7600
000a3d 6c61
000a3e 6575      	.DB  0x69,0x72,0x0,0x76,0x61,0x6C,0x75,0x65
000a3f 253d
000a40 2064
000a41 2500
000a42 3230      	.DB  0x3D,0x25,0x64,0x20,0x0,0x25,0x30,0x32
000a43 3a64
000a44 3025
000a45 6432
000a46 253a      	.DB  0x64,0x3A,0x25,0x30,0x32,0x64,0x3A,0x25
000a47 3230
000a48 0064
000a49 3425
000a4a 2f64      	.DB  0x30,0x32,0x64,0x0,0x25,0x34,0x64,0x2F
000a4b 3025
000a4c 6432
000a4d 252f
000a4e 3230      	.DB  0x25,0x30,0x32,0x64,0x2F,0x25,0x30,0x32
000a4f 0064      	.DB  0x64,0x0
                 _0x40003:
C:\Users\Barouei\Desktop\Bms\sazman\14000514\Debug\List\st7920-4bit.asm(1802): warning: .cseg .db misalignment - padding zero byte
000a50 0001      	.DB  0x1
                 _0x40004:
C:\Users\Barouei\Desktop\Bms\sazman\14000514\Debug\List\st7920-4bit.asm(1804): warning: .cseg .db misalignment - padding zero byte
000a51 0001      	.DB  0x1
                 _0x40005:
C:\Users\Barouei\Desktop\Bms\sazman\14000514\Debug\List\st7920-4bit.asm(1806): warning: .cseg .db misalignment - padding zero byte
000a52 0001      	.DB  0x1
                 _0x40006:
C:\Users\Barouei\Desktop\Bms\sazman\14000514\Debug\List\st7920-4bit.asm(1808): warning: .cseg .db misalignment - padding zero byte
000a53 0001      	.DB  0x1
                 _0x40007:
C:\Users\Barouei\Desktop\Bms\sazman\14000514\Debug\List\st7920-4bit.asm(1810): warning: .cseg .db misalignment - padding zero byte
000a54 0001      	.DB  0x1
                 _0x40008:
C:\Users\Barouei\Desktop\Bms\sazman\14000514\Debug\List\st7920-4bit.asm(1812): warning: .cseg .db misalignment - padding zero byte
000a55 00ff      	.DB  0xFF
                 _0x40009:
C:\Users\Barouei\Desktop\Bms\sazman\14000514\Debug\List\st7920-4bit.asm(1814): warning: .cseg .db misalignment - padding zero byte
000a56 00ff      	.DB  0xFF
                 _0x4000A:
000a57 0000
000a58 0000
000a59 0000
000a5a 0000      	.DB  0x0,0x0,0x0,0x0,0x0,0x0,0x0,0x0
000a5b 0000
000a5c 0000      	.DB  0x0,0x0,0x0,0x0
                 _0x4003A:
000a5d 0000
000a5e 0000
000a5f 0000
000a60 0000      	.DB  0x0,0x0,0x0,0x0,0x0,0x0,0x0,0x0
000a61 0000
000a62 0000      	.DB  0x0,0x0,0x0,0x0
                 _0x2080060:
C:\Users\Barouei\Desktop\Bms\sazman\14000514\Debug\List\st7920-4bit.asm(1822): warning: .cseg .db misalignment - padding zero byte
000a63 0001      	.DB  0x1
                 _0x2080000:
000a64 4e2d
000a65 4e41
000a66 4900
000a67 464e      	.DB  0x2D,0x4E,0x41,0x4E,0x0,0x49,0x4E,0x46
C:\Users\Barouei\Desktop\Bms\sazman\14000514\Debug\List\st7920-4bit.asm(1825): warning: .cseg .db misalignment - padding zero byte
000a68 0000      	.DB  0x0
                 _0x20A0000:
000a69 4e2d
000a6a 4e41
C:\Users\Barouei\Desktop\Bms\sazman\14000514\Debug\List\st7920-4bit.asm(1827): warning: .cseg .db misalignment - padding zero byte
000a6b 0000      	.DB  0x2D,0x4E,0x41,0x4E,0x0
                 
                 __GLOBAL_INI_TBL:
000a6c 0001      	.DW  0x01
000a6d 0002      	.DW  0x02
000a6e 13f6      	.DW  __REG_BIT_VARS*2
                 
000a6f 0009      	.DW  0x09
000a70 0004      	.DW  0x04
000a71 13f8      	.DW  __REG_VARS*2
                 
000a72 001b      	.DW  0x1B
000a73 02e1      	.DW  __weekday
000a74 1402      	.DW  _0x3*2
                 
000a75 000d      	.DW  0x0D
000a76 0260      	.DW  _0x4
000a77 141e      	.DW  _0x0*2
                 
000a78 000b      	.DW  0x0B
000a79 026d      	.DW  _0x4+13
000a7a 142b      	.DW  _0x0*2+13
                 
000a7b 000b      	.DW  0x0B
000a7c 0278      	.DW  _0x4+24
000a7d 1436      	.DW  _0x0*2+24
                 
000a7e 0005      	.DW  0x05
000a7f 0283      	.DW  _0x4+35
000a80 1441      	.DW  _0x0*2+35
                 
000a81 000f      	.DW  0x0F
000a82 0288      	.DW  _0x4+40
000a83 1446      	.DW  _0x0*2+40
                 
000a84 000e      	.DW  0x0E
000a85 0297      	.DW  _0x4+55
000a86 1455      	.DW  _0x0*2+55
                 
000a87 0009      	.DW  0x09
000a88 02a5      	.DW  _0x4+69
000a89 1463      	.DW  _0x0*2+69
                 
000a8a 0001      	.DW  0x01
000a8b 02cd      	.DW  _Horizontal
000a8c 14a0      	.DW  _0x40003*2
                 
000a8d 0001      	.DW  0x01
000a8e 02ce      	.DW  _FgColor
000a8f 14a2      	.DW  _0x40004*2
                 
000a90 0001      	.DW  0x01
000a91 02d6      	.DW  _FontXScale
000a92 14a4      	.DW  _0x40005*2
                 
000a93 0001      	.DW  0x01
000a94 02d7      	.DW  _FontYScale
000a95 14a6      	.DW  _0x40006*2
                 
000a96 0001      	.DW  0x01
000a97 02d8      	.DW  _FontSpaceX
000a98 14a8      	.DW  _0x40007*2
                 
000a99 0001      	.DW  0x01
000a9a 0325      	.DW  _prevLet
000a9b 14aa      	.DW  _0x40008*2
                 
000a9c 0001      	.DW  0x01
000a9d 0326      	.DW  _nextLet
000a9e 14ac      	.DW  _0x40009*2
                 
000a9f 0001      	.DW  0x01
000aa0 032b      	.DW  __seed_G104
000aa1 14c6      	.DW  _0x2080060*2
                 
                 _0xFFFFFFFF:
000aa2 0000      	.DW  0
                 
                 #define __GLOBAL_INI_TBL_PRESENT 1
                 
                 __RESET:
000aa3 94f8      	CLI
000aa4 27ee      	CLR  R30
000aa5 bbec      	OUT  EECR,R30
                 
                 ;INTERRUPT VECTORS ARE PLACED
                 ;AT THE START OF FLASH
000aa6 e0f1      	LDI  R31,1
000aa7 bff5      	OUT  MCUCR,R31
000aa8 bfe5      	OUT  MCUCR,R30
                 
                 ;CLEAR R2-R14
000aa9 e08d      	LDI  R24,(14-2)+1
000aaa e0a2      	LDI  R26,2
000aab 27bb      	CLR  R27
                 __CLEAR_REG:
000aac 93ed      	ST   X+,R30
000aad 958a      	DEC  R24
000aae f7e9      	BRNE __CLEAR_REG
                 
                 ;CLEAR SRAM
000aaf e080      	LDI  R24,LOW(__CLEAR_SRAM_SIZE)
000ab0 e098      	LDI  R25,HIGH(__CLEAR_SRAM_SIZE)
000ab1 e6a0      	LDI  R26,__SRAM_START
                 __CLEAR_SRAM:
000ab2 93ed      	ST   X+,R30
000ab3 9701      	SBIW R24,1
000ab4 f7e9      	BRNE __CLEAR_SRAM
                 
                 ;GLOBAL VARIABLES INITIALIZATION
000ab5 ede8      	LDI  R30,LOW(__GLOBAL_INI_TBL*2)
000ab6 e1f4      	LDI  R31,HIGH(__GLOBAL_INI_TBL*2)
                 __GLOBAL_INI_NEXT:
000ab7 9185      	LPM  R24,Z+
000ab8 9195      	LPM  R25,Z+
000ab9 9700      	SBIW R24,0
000aba f061      	BREQ __GLOBAL_INI_END
000abb 91a5      	LPM  R26,Z+
000abc 91b5      	LPM  R27,Z+
000abd 9005      	LPM  R0,Z+
000abe 9015      	LPM  R1,Z+
000abf 01bf      	MOVW R22,R30
000ac0 01f0      	MOVW R30,R0
                 __GLOBAL_INI_LOOP:
000ac1 9005      	LPM  R0,Z+
000ac2 920d      	ST   X+,R0
000ac3 9701      	SBIW R24,1
000ac4 f7e1      	BRNE __GLOBAL_INI_LOOP
000ac5 01fb      	MOVW R30,R22
000ac6 cff0      	RJMP __GLOBAL_INI_NEXT
                 __GLOBAL_INI_END:
                 
                 ;HARDWARE STACK POINTER INITIALIZATION
000ac7 e5ef      	LDI  R30,LOW(__SRAM_END-__HEAP_SIZE)
000ac8 bfed      	OUT  SPL,R30
000ac9 e0e8      	LDI  R30,HIGH(__SRAM_END-__HEAP_SIZE)
000aca bfee      	OUT  SPH,R30
                 
                 ;DATA STACK POINTER INITIALIZATION
000acb e6c0      	LDI  R28,LOW(__SRAM_START+__DSTACK_SIZE)
000acc e0d2      	LDI  R29,HIGH(__SRAM_START+__DSTACK_SIZE)
                 
000acd 940c 0acf 	JMP  _main
                 
                 	.ESEG
                 	.ORG 0
                 
                 	.DSEG
                 	.ORG 0x260
                 
                 	.CSEG
                 ;#include <mega32a.h>
                 	#ifndef __SLEEP_DEFINED__
                 	#define __SLEEP_DEFINED__
                 	.EQU __se_bit=0x80
                 	.EQU __sm_mask=0x70
                 	.EQU __sm_powerdown=0x20
                 	.EQU __sm_powersave=0x30
                 	.EQU __sm_standby=0x60
                 	.EQU __sm_ext_standby=0x70
                 	.EQU __sm_adc_noise_red=0x10
                 	.SET power_ctrl_reg=mcucr
                 	#endif
                 ;
                 ;#include <ds1307.h>
                 ;#include <glcd.h>
                 ;#include <font5x7.h>
                 ;#include <mhbfont.c>
                 ;/****************************************************************************
                 ;Font created by the LCD Vision V1.05 font & image editor/converter
                 ;(C) Copyright 2011-2013 Pavel Haiduc, HP InfoTech s.r.l.
                 ;http://www.hpinfotech.com
                 ;
                 ;Font name: New font
                 ;Fixed font width: 8 pixels
                 ;Font height: 8 pixels
                 ;First character: 0xA0
                 ;Last character: 0xFF
                 ;
                 ;Exported font data size:
                 ;772 bytes for displays organized as horizontal rows of bytes
                 ;772 bytes for displays organized as rows of vertical bytes.
                 ;****************************************************************************/
                 ;
                 ;flash unsigned char mhbfont[]=
                 ;{
                 ;0x08, /* Fixed font width */
                 ;0x08, /* Font height */
                 ;0xA0, /* First character */
                 ;0x60, /* Number of characters in font */
                 ;
                 ;#ifndef _GLCD_DATA_BYTEY_
                 ;/* Font data for displays organized as
                 ;   horizontal rows of bytes */
                 ;
                 ;/* Code: 0xA0, ASCII Character: '' */
                 ;0x00, 0x00, 0x31, 0x22, 0xFC, 0xDA, 0x01, 0x00,
                 ;
                 ;/* Code: 0xA1, ASCII Character: '' */
                 ;0x00, 0x00, 0x00, 0x00, 0x00, 0x00, 0x00, 0x00,
                 ;
                 ;/* Code: 0xA2, ASCII Character: '' */
                 ;0x00, 0x00, 0x00, 0x00, 0x00, 0x00, 0x00, 0x00,
                 ;
                 ;/* Code: 0xA3, ASCII Character: '' */
                 ;0xFF, 0x81, 0xA1, 0x9D, 0x95, 0xF5, 0x05, 0x07,
                 ;
                 ;/* Code: 0xA4, ASCII Character: '' */
                 ;0x00, 0x00, 0x00, 0x00, 0x00, 0x00, 0x00, 0x00,
                 ;
                 ;/* Code: 0xA5, ASCII Character: '' */
                 ;0x00, 0x00, 0x00, 0x00, 0x00, 0x00, 0x00, 0x00,
                 ;
                 ;/* Code: 0xA6, ASCII Character: '' */
                 ;0x00, 0x00, 0x00, 0x00, 0x00, 0x00, 0x00, 0x00,
                 ;
                 ;/* Code: 0xA7, ASCII Character: '' */
                 ;0x00, 0x00, 0x00, 0x00, 0x00, 0x00, 0x00, 0x00,
                 ;
                 ;/* Code: 0xA8, ASCII Character: '' */
                 ;0x00, 0x00, 0x00, 0x00, 0x00, 0x00, 0x00, 0x00,
                 ;
                 ;/* Code: 0xA9, ASCII Character: '' */
                 ;0x00, 0x00, 0x00, 0x00, 0x00, 0x00, 0x00, 0x00,
                 ;
                 ;/* Code: 0xAA, ASCII Character: '' */
                 ;0x00, 0x00, 0x00, 0x00, 0x00, 0x00, 0x00, 0x00,
                 ;
                 ;/* Code: 0xAB, ASCII Character: '' */
                 ;0x00, 0x00, 0x00, 0x00, 0x00, 0x00, 0x00, 0x00,
                 ;
                 ;/* Code: 0xAC, ASCII Character: '' */
                 ;0x00, 0x00, 0x00, 0x00, 0x00, 0x00, 0x00, 0x00,
                 ;
                 ;/* Code: 0xAD, ASCII Character: '' */
                 ;0x00, 0x00, 0x00, 0x00, 0x00, 0x00, 0x00, 0x00,
                 ;
                 ;/* Code: 0xAE, ASCII Character: '' */
                 ;0x00, 0x00, 0x00, 0x00, 0x00, 0x00, 0x00, 0x00,
                 ;
                 ;/* Code: 0xAF, ASCII Character: '' */
                 ;0x00, 0x00, 0x00, 0x00, 0x00, 0x00, 0x00, 0x00,
                 ;
                 ;/* Code: 0xB0, ASCII Character: '' */
                 ;0x00, 0x00, 0x00, 0x00, 0x00, 0x00, 0x00, 0x00,
                 ;
                 ;/* Code: 0xB1, ASCII Character: '' */
                 ;0x00, 0x00, 0x00, 0x00, 0x00, 0x00, 0x00, 0x00,
                 ;
                 ;/* Code: 0xB2, ASCII Character: '' */
                 ;0x00, 0x00, 0x00, 0x00, 0x00, 0x00, 0x00, 0x00,
                 ;
                 ;/* Code: 0xB3, ASCII Character: '' */
                 ;0x00, 0x00, 0x00, 0x00, 0x00, 0x00, 0x00, 0x00,
                 ;
                 ;/* Code: 0xB4, ASCII Character: '' */
                 ;0x00, 0x00, 0x00, 0x00, 0x00, 0x00, 0x00, 0x00,
                 ;
                 ;/* Code: 0xB5, ASCII Character: '' */
                 ;0x00, 0x00, 0x00, 0x00, 0x00, 0x00, 0x00, 0x00,
                 ;
                 ;/* Code: 0xB6, ASCII Character: '' */
                 ;0x00, 0x00, 0x00, 0x00, 0x00, 0x00, 0x00, 0x00,
                 ;
                 ;/* Code: 0xB7, ASCII Character: '' */
                 ;0x00, 0x00, 0x00, 0x00, 0x00, 0x00, 0x00, 0x00,
                 ;
                 ;/* Code: 0xB8, ASCII Character: '' */
                 ;0x00, 0x00, 0x00, 0x00, 0x00, 0x00, 0x00, 0x00,
                 ;
                 ;/* Code: 0xB9, ASCII Character: '' */
                 ;0x00, 0x00, 0x00, 0x00, 0x00, 0x00, 0x00, 0x00,
                 ;
                 ;/* Code: 0xBA, ASCII Character: '' */
                 ;0x00, 0x00, 0x00, 0x00, 0x00, 0x00, 0x00, 0x00,
                 ;
                 ;/* Code: 0xBB, ASCII Character: '' */
                 ;0x00, 0x00, 0x00, 0x00, 0x00, 0x00, 0x00, 0x00,
                 ;
                 ;/* Code: 0xBC, ASCII Character: '' */
                 ;0x00, 0x00, 0x00, 0x00, 0x00, 0x00, 0x00, 0x00,
                 ;
                 ;/* Code: 0xBD, ASCII Character: '' */
                 ;0x00, 0x00, 0x00, 0x00, 0x00, 0x00, 0x00, 0x00,
                 ;
                 ;/* Code: 0xBE, ASCII Character: '' */
                 ;0x00, 0x00, 0x00, 0x00, 0x00, 0x00, 0x00, 0x00,
                 ;
                 ;/* Code: 0xBF, ASCII Character: '' */
                 ;0x00, 0x00, 0x00, 0x00, 0x00, 0x00, 0x00, 0x00,
                 ;
                 ;/* Code: 0xC0, ASCII Character: '' */
                 ;0x00, 0x00, 0x00, 0x00, 0x00, 0x00, 0x00, 0x00,
                 ;
                 ;/* Code: 0xC1, ASCII Character: '' */
                 ;0x00, 0x00, 0x00, 0x00, 0x00, 0x00, 0x00, 0x00,
                 ;
                 ;/* Code: 0xC2, ASCII Character: '' */
                 ;0x00, 0x00, 0x00, 0x00, 0x00, 0x00, 0x00, 0x00,
                 ;
                 ;/* Code: 0xC3, ASCII Character: '' */
                 ;0x00, 0x00, 0x00, 0x00, 0x00, 0x00, 0x00, 0x00,
                 ;
                 ;/* Code: 0xC4, ASCII Character: '' */
                 ;0x00, 0x00, 0x00, 0x00, 0x00, 0x00, 0x00, 0x00,
                 ;
                 ;/* Code: 0xC5, ASCII Character: '' */
                 ;0x00, 0x00, 0x00, 0x00, 0x00, 0x00, 0x00, 0x00,
                 ;
                 ;/* Code: 0xC6, ASCII Character: '' */
                 ;0x00, 0x00, 0x00, 0x00, 0x00, 0x00, 0x00, 0x00,
                 ;
                 ;/* Code: 0xC7, ASCII Character: '' */
                 ;0x00, 0x00, 0x00, 0x00, 0x00, 0x00, 0x00, 0x00,
                 ;
                 ;/* Code: 0xC8, ASCII Character: '' */
                 ;0x00, 0x00, 0x00, 0x00, 0x00, 0x00, 0x00, 0x00,
                 ;
                 ;/* Code: 0xC9, ASCII Character: '' */
                 ;0x00, 0x00, 0x00, 0x00, 0x00, 0x00, 0x00, 0x00,
                 ;
                 ;/* Code: 0xCA, ASCII Character: '' */
                 ;0x00, 0x00, 0x00, 0x00, 0x00, 0x00, 0x00, 0x00,
                 ;
                 ;/* Code: 0xCB, ASCII Character: '' */
                 ;0x00, 0x00, 0x00, 0x00, 0x00, 0x00, 0x00, 0x00,
                 ;
                 ;/* Code: 0xCC, ASCII Character: '' */
                 ;0x00, 0x00, 0x00, 0x00, 0x00, 0x00, 0x00, 0x00,
                 ;
                 ;/* Code: 0xCD, ASCII Character: '' */
                 ;0x00, 0x00, 0x00, 0x00, 0x00, 0x00, 0x00, 0x00,
                 ;
                 ;/* Code: 0xCE, ASCII Character: '' */
                 ;0x00, 0x00, 0x00, 0x00, 0x00, 0x00, 0x00, 0x00,
                 ;
                 ;/* Code: 0xCF, ASCII Character: '' */
                 ;0x00, 0x00, 0x00, 0x00, 0x00, 0x00, 0x00, 0x00,
                 ;
                 ;/* Code: 0xD0, ASCII Character: '' */
                 ;0x00, 0x00, 0x00, 0x00, 0x00, 0x00, 0x00, 0x00,
                 ;
                 ;/* Code: 0xD1, ASCII Character: '' */
                 ;0x00, 0x00, 0x00, 0x00, 0x00, 0x00, 0x00, 0x00,
                 ;
                 ;/* Code: 0xD2, ASCII Character: '' */
                 ;0x00, 0x00, 0x00, 0x00, 0x00, 0x00, 0x00, 0x00,
                 ;
                 ;/* Code: 0xD3, ASCII Character: '' */
                 ;0x00, 0x00, 0x00, 0x00, 0x00, 0x00, 0x00, 0x00,
                 ;
                 ;/* Code: 0xD4, ASCII Character: '' */
                 ;0x00, 0x00, 0x00, 0x00, 0x00, 0x00, 0x00, 0x00,
                 ;
                 ;/* Code: 0xD5, ASCII Character: '' */
                 ;0x00, 0x00, 0x00, 0x00, 0x00, 0x00, 0x00, 0x00,
                 ;
                 ;/* Code: 0xD6, ASCII Character: '' */
                 ;0x00, 0x00, 0x00, 0x00, 0x00, 0x00, 0x00, 0x00,
                 ;
                 ;/* Code: 0xD7, ASCII Character: '' */
                 ;0x00, 0x00, 0x00, 0x00, 0x00, 0x00, 0x00, 0x00,
                 ;
                 ;/* Code: 0xD8, ASCII Character: '' */
                 ;0x00, 0x00, 0x00, 0x00, 0x00, 0x00, 0x00, 0x00,
                 ;
                 ;/* Code: 0xD9, ASCII Character: '' */
                 ;0x00, 0x00, 0x00, 0x00, 0x00, 0x00, 0x00, 0x00,
                 ;
                 ;/* Code: 0xDA, ASCII Character: '' */
                 ;0x00, 0x00, 0x00, 0x00, 0x00, 0x00, 0x00, 0x00,
                 ;
                 ;/* Code: 0xDB, ASCII Character: '' */
                 ;0x00, 0x00, 0x00, 0x00, 0x00, 0x00, 0x00, 0x00,
                 ;
                 ;/* Code: 0xDC, ASCII Character: '' */
                 ;0x00, 0x00, 0x00, 0x00, 0x00, 0x00, 0x00, 0x00,
                 ;
                 ;/* Code: 0xDD, ASCII Character: '' */
                 ;0x00, 0x00, 0x00, 0x00, 0x00, 0x00, 0x00, 0x00,
                 ;
                 ;/* Code: 0xDE, ASCII Character: '' */
                 ;0x00, 0x00, 0x00, 0x00, 0x00, 0x00, 0x00, 0x00,
                 ;
                 ;/* Code: 0xDF, ASCII Character: '' */
                 ;0x00, 0x00, 0x00, 0x00, 0x00, 0x00, 0x00, 0x00,
                 ;
                 ;/* Code: 0xE0, ASCII Character: '' */
                 ;0x00, 0x00, 0x00, 0x00, 0x00, 0x00, 0x00, 0x00,
                 ;
                 ;/* Code: 0xE1, ASCII Character: '' */
                 ;0x00, 0x00, 0x00, 0x00, 0x00, 0x00, 0x00, 0x00,
                 ;
                 ;/* Code: 0xE2, ASCII Character: '' */
                 ;0x00, 0x00, 0x00, 0x00, 0x00, 0x00, 0x00, 0x00,
                 ;
                 ;/* Code: 0xE3, ASCII Character: '' */
                 ;0x00, 0x00, 0x00, 0x00, 0x00, 0x00, 0x00, 0x00,
                 ;
                 ;/* Code: 0xE4, ASCII Character: '' */
                 ;0x00, 0x00, 0x00, 0x00, 0x00, 0x00, 0x00, 0x00,
                 ;
                 ;/* Code: 0xE5, ASCII Character: '' */
                 ;0x00, 0x00, 0x00, 0x00, 0x00, 0x00, 0x00, 0x00,
                 ;
                 ;/* Code: 0xE6, ASCII Character: '' */
                 ;0x00, 0x00, 0x00, 0x00, 0x00, 0x00, 0x00, 0x00,
                 ;
                 ;/* Code: 0xE7, ASCII Character: '' */
                 ;0x00, 0x00, 0x00, 0x00, 0x00, 0x00, 0x00, 0x00,
                 ;
                 ;/* Code: 0xE8, ASCII Character: '' */
                 ;0x00, 0x00, 0x00, 0x00, 0x00, 0x00, 0x00, 0x00,
                 ;
                 ;/* Code: 0xE9, ASCII Character: '' */
                 ;0x00, 0x00, 0x00, 0x00, 0x00, 0x00, 0x00, 0x00,
                 ;
                 ;/* Code: 0xEA, ASCII Character: '' */
                 ;0x00, 0x00, 0x00, 0x00, 0x00, 0x00, 0x00, 0x00,
                 ;
                 ;/* Code: 0xEB, ASCII Character: '' */
                 ;0x00, 0x00, 0x00, 0x00, 0x00, 0x00, 0x00, 0x00,
                 ;
                 ;/* Code: 0xEC, ASCII Character: '' */
                 ;0x00, 0x00, 0x00, 0x00, 0x00, 0x00, 0x00, 0x00,
                 ;
                 ;/* Code: 0xED, ASCII Character: '' */
                 ;0x00, 0x00, 0x00, 0x00, 0x00, 0x00, 0x00, 0x00,
                 ;
                 ;/* Code: 0xEE, ASCII Character: '' */
                 ;0x00, 0x00, 0x00, 0x00, 0x00, 0x00, 0x00, 0x00,
                 ;
                 ;/* Code: 0xEF, ASCII Character: '' */
                 ;0x00, 0x00, 0x00, 0x00, 0x00, 0x00, 0x00, 0x00,
                 ;
                 ;/* Code: 0xF0, ASCII Character: '' */
                 ;0x00, 0x00, 0x00, 0x00, 0x00, 0x00, 0x00, 0x00,
                 ;
                 ;/* Code: 0xF1, ASCII Character: '' */
                 ;0x00, 0x00, 0x00, 0x00, 0x00, 0x00, 0x00, 0x00,
                 ;
                 ;/* Code: 0xF2, ASCII Character: '' */
                 ;0x00, 0x00, 0x00, 0x00, 0x00, 0x00, 0x00, 0x00,
                 ;
                 ;/* Code: 0xF3, ASCII Character: '' */
                 ;0x00, 0x00, 0x00, 0x00, 0x00, 0x00, 0x00, 0x00,
                 ;
                 ;/* Code: 0xF4, ASCII Character: '' */
                 ;0x00, 0x00, 0x00, 0x00, 0x00, 0x00, 0x00, 0x00,
                 ;
                 ;/* Code: 0xF5, ASCII Character: '' */
                 ;0x00, 0x00, 0x00, 0x00, 0x00, 0x00, 0x00, 0x00,
                 ;
                 ;/* Code: 0xF6, ASCII Character: '' */
                 ;0x00, 0x00, 0x00, 0x00, 0x00, 0x00, 0x00, 0x00,
                 ;
                 ;/* Code: 0xF7, ASCII Character: '' */
                 ;0x00, 0x00, 0x00, 0x00, 0x00, 0x00, 0x00, 0x00,
                 ;
                 ;/* Code: 0xF8, ASCII Character: '' */
                 ;0x00, 0x00, 0x00, 0x00, 0x00, 0x00, 0x00, 0x00,
                 ;
                 ;/* Code: 0xF9, ASCII Character: '' */
                 ;0x00, 0x00, 0x00, 0x00, 0x00, 0x00, 0x00, 0x00,
                 ;
                 ;/* Code: 0xFA, ASCII Character: '' */
                 ;0x00, 0x00, 0x00, 0x00, 0x00, 0x00, 0x00, 0x00,
                 ;
                 ;/* Code: 0xFB, ASCII Character: '' */
                 ;0x00, 0x00, 0x00, 0x00, 0x00, 0x00, 0x00, 0x00,
                 ;
                 ;/* Code: 0xFC, ASCII Character: '' */
                 ;0x00, 0x00, 0x00, 0x00, 0x00, 0x00, 0x00, 0x00,
                 ;
                 ;/* Code: 0xFD, ASCII Character: '' */
                 ;0x00, 0x00, 0x00, 0x00, 0x00, 0x00, 0x00, 0x00,
                 ;
                 ;/* Code: 0xFE, ASCII Character: '' */
                 ;0x00, 0x00, 0x00, 0x00, 0x00, 0x00, 0x00, 0x00,
                 ;
                 ;/* Code: 0xFF, ASCII Character: '' */
                 ;0x00, 0x00, 0x00, 0x00, 0x00, 0x00, 0x00, 0x00,
                 ;
                 ;#else
                 ;/* Font data for displays organized as
                 ;   rows of vertical bytes */
                 ;
                 ;/* Code: 0xA0, ASCII Character: '' */
                 ;0x44, 0x28, 0x10, 0x30, 0x34, 0x1C, 0x30, 0x30,
                 ;
                 ;/* Code: 0xA1, ASCII Character: '' */
                 ;0x00, 0x00, 0x00, 0x00, 0x00, 0x00, 0x00, 0x00,
                 ;
                 ;/* Code: 0xA2, ASCII Character: '' */
                 ;0x00, 0x00, 0x00, 0x00, 0x00, 0x00, 0x00, 0x00,
                 ;
                 ;/* Code: 0xA3, ASCII Character: '' */
                 ;0xFF, 0x81, 0xF9, 0x09, 0x39, 0x25, 0x21, 0x3F,
                 ;
                 ;/* Code: 0xA4, ASCII Character: '' */
                 ;0x00, 0x00, 0x00, 0x00, 0x00, 0x00, 0x00, 0x00,
                 ;
                 ;/* Code: 0xA5, ASCII Character: '' */
                 ;0x00, 0x00, 0x00, 0x00, 0x00, 0x00, 0x00, 0x00,
                 ;
                 ;/* Code: 0xA6, ASCII Character: '' */
                 ;0x00, 0x00, 0x00, 0x00, 0x00, 0x00, 0x00, 0x00,
                 ;
                 ;/* Code: 0xA7, ASCII Character: '' */
                 ;0x00, 0x00, 0x00, 0x00, 0x00, 0x00, 0x00, 0x00,
                 ;
                 ;/* Code: 0xA8, ASCII Character: '' */
                 ;0x00, 0x00, 0x00, 0x00, 0x00, 0x00, 0x00, 0x00,
                 ;
                 ;/* Code: 0xA9, ASCII Character: '' */
                 ;0x00, 0x00, 0x00, 0x00, 0x00, 0x00, 0x00, 0x00,
                 ;
                 ;/* Code: 0xAA, ASCII Character: '' */
                 ;0x00, 0x00, 0x00, 0x00, 0x00, 0x00, 0x00, 0x00,
                 ;
                 ;/* Code: 0xAB, ASCII Character: '' */
                 ;0x00, 0x00, 0x00, 0x00, 0x00, 0x00, 0x00, 0x00,
                 ;
                 ;/* Code: 0xAC, ASCII Character: '' */
                 ;0x00, 0x00, 0x00, 0x00, 0x00, 0x00, 0x00, 0x00,
                 ;
                 ;/* Code: 0xAD, ASCII Character: '' */
                 ;0x00, 0x00, 0x00, 0x00, 0x00, 0x00, 0x00, 0x00,
                 ;
                 ;/* Code: 0xAE, ASCII Character: '' */
                 ;0x00, 0x00, 0x00, 0x00, 0x00, 0x00, 0x00, 0x00,
                 ;
                 ;/* Code: 0xAF, ASCII Character: '' */
                 ;0x00, 0x00, 0x00, 0x00, 0x00, 0x00, 0x00, 0x00,
                 ;
                 ;/* Code: 0xB0, ASCII Character: '' */
                 ;0x00, 0x00, 0x00, 0x00, 0x00, 0x00, 0x00, 0x00,
                 ;
                 ;/* Code: 0xB1, ASCII Character: '' */
                 ;0x00, 0x00, 0x00, 0x00, 0x00, 0x00, 0x00, 0x00,
                 ;
                 ;/* Code: 0xB2, ASCII Character: '' */
                 ;0x00, 0x00, 0x00, 0x00, 0x00, 0x00, 0x00, 0x00,
                 ;
                 ;/* Code: 0xB3, ASCII Character: '' */
                 ;0x00, 0x00, 0x00, 0x00, 0x00, 0x00, 0x00, 0x00,
                 ;
                 ;/* Code: 0xB4, ASCII Character: '' */
                 ;0x00, 0x00, 0x00, 0x00, 0x00, 0x00, 0x00, 0x00,
                 ;
                 ;/* Code: 0xB5, ASCII Character: '' */
                 ;0x00, 0x00, 0x00, 0x00, 0x00, 0x00, 0x00, 0x00,
                 ;
                 ;/* Code: 0xB6, ASCII Character: '' */
                 ;0x00, 0x00, 0x00, 0x00, 0x00, 0x00, 0x00, 0x00,
                 ;
                 ;/* Code: 0xB7, ASCII Character: '' */
                 ;0x00, 0x00, 0x00, 0x00, 0x00, 0x00, 0x00, 0x00,
                 ;
                 ;/* Code: 0xB8, ASCII Character: '' */
                 ;0x00, 0x00, 0x00, 0x00, 0x00, 0x00, 0x00, 0x00,
                 ;
                 ;/* Code: 0xB9, ASCII Character: '' */
                 ;0x00, 0x00, 0x00, 0x00, 0x00, 0x00, 0x00, 0x00,
                 ;
                 ;/* Code: 0xBA, ASCII Character: '' */
                 ;0x00, 0x00, 0x00, 0x00, 0x00, 0x00, 0x00, 0x00,
                 ;
                 ;/* Code: 0xBB, ASCII Character: '' */
                 ;0x00, 0x00, 0x00, 0x00, 0x00, 0x00, 0x00, 0x00,
                 ;
                 ;/* Code: 0xBC, ASCII Character: '' */
                 ;0x00, 0x00, 0x00, 0x00, 0x00, 0x00, 0x00, 0x00,
                 ;
                 ;/* Code: 0xBD, ASCII Character: '' */
                 ;0x00, 0x00, 0x00, 0x00, 0x00, 0x00, 0x00, 0x00,
                 ;
                 ;/* Code: 0xBE, ASCII Character: '' */
                 ;0x00, 0x00, 0x00, 0x00, 0x00, 0x00, 0x00, 0x00,
                 ;
                 ;/* Code: 0xBF, ASCII Character: '' */
                 ;0x00, 0x00, 0x00, 0x00, 0x00, 0x00, 0x00, 0x00,
                 ;
                 ;/* Code: 0xC0, ASCII Character: '' */
                 ;0x00, 0x00, 0x00, 0x00, 0x00, 0x00, 0x00, 0x00,
                 ;
                 ;/* Code: 0xC1, ASCII Character: '' */
                 ;0x00, 0x00, 0x00, 0x00, 0x00, 0x00, 0x00, 0x00,
                 ;
                 ;/* Code: 0xC2, ASCII Character: '' */
                 ;0x00, 0x00, 0x00, 0x00, 0x00, 0x00, 0x00, 0x00,
                 ;
                 ;/* Code: 0xC3, ASCII Character: '' */
                 ;0x00, 0x00, 0x00, 0x00, 0x00, 0x00, 0x00, 0x00,
                 ;
                 ;/* Code: 0xC4, ASCII Character: '' */
                 ;0x00, 0x00, 0x00, 0x00, 0x00, 0x00, 0x00, 0x00,
                 ;
                 ;/* Code: 0xC5, ASCII Character: '' */
                 ;0x00, 0x00, 0x00, 0x00, 0x00, 0x00, 0x00, 0x00,
                 ;
                 ;/* Code: 0xC6, ASCII Character: '' */
                 ;0x00, 0x00, 0x00, 0x00, 0x00, 0x00, 0x00, 0x00,
                 ;
                 ;/* Code: 0xC7, ASCII Character: '' */
                 ;0x00, 0x00, 0x00, 0x00, 0x00, 0x00, 0x00, 0x00,
                 ;
                 ;/* Code: 0xC8, ASCII Character: '' */
                 ;0x00, 0x00, 0x00, 0x00, 0x00, 0x00, 0x00, 0x00,
                 ;
                 ;/* Code: 0xC9, ASCII Character: '' */
                 ;0x00, 0x00, 0x00, 0x00, 0x00, 0x00, 0x00, 0x00,
                 ;
                 ;/* Code: 0xCA, ASCII Character: '' */
                 ;0x00, 0x00, 0x00, 0x00, 0x00, 0x00, 0x00, 0x00,
                 ;
                 ;/* Code: 0xCB, ASCII Character: '' */
                 ;0x00, 0x00, 0x00, 0x00, 0x00, 0x00, 0x00, 0x00,
                 ;
                 ;/* Code: 0xCC, ASCII Character: '' */
                 ;0x00, 0x00, 0x00, 0x00, 0x00, 0x00, 0x00, 0x00,
                 ;
                 ;/* Code: 0xCD, ASCII Character: '' */
                 ;0x00, 0x00, 0x00, 0x00, 0x00, 0x00, 0x00, 0x00,
                 ;
                 ;/* Code: 0xCE, ASCII Character: '' */
                 ;0x00, 0x00, 0x00, 0x00, 0x00, 0x00, 0x00, 0x00,
                 ;
                 ;/* Code: 0xCF, ASCII Character: '' */
                 ;0x00, 0x00, 0x00, 0x00, 0x00, 0x00, 0x00, 0x00,
                 ;
                 ;/* Code: 0xD0, ASCII Character: '' */
                 ;0x00, 0x00, 0x00, 0x00, 0x00, 0x00, 0x00, 0x00,
                 ;
                 ;/* Code: 0xD1, ASCII Character: '' */
                 ;0x00, 0x00, 0x00, 0x00, 0x00, 0x00, 0x00, 0x00,
                 ;
                 ;/* Code: 0xD2, ASCII Character: '' */
                 ;0x00, 0x00, 0x00, 0x00, 0x00, 0x00, 0x00, 0x00,
                 ;
                 ;/* Code: 0xD3, ASCII Character: '' */
                 ;0x00, 0x00, 0x00, 0x00, 0x00, 0x00, 0x00, 0x00,
                 ;
                 ;/* Code: 0xD4, ASCII Character: '' */
                 ;0x00, 0x00, 0x00, 0x00, 0x00, 0x00, 0x00, 0x00,
                 ;
                 ;/* Code: 0xD5, ASCII Character: '' */
                 ;0x00, 0x00, 0x00, 0x00, 0x00, 0x00, 0x00, 0x00,
                 ;
                 ;/* Code: 0xD6, ASCII Character: '' */
                 ;0x00, 0x00, 0x00, 0x00, 0x00, 0x00, 0x00, 0x00,
                 ;
                 ;/* Code: 0xD7, ASCII Character: '' */
                 ;0x00, 0x00, 0x00, 0x00, 0x00, 0x00, 0x00, 0x00,
                 ;
                 ;/* Code: 0xD8, ASCII Character: '' */
                 ;0x00, 0x00, 0x00, 0x00, 0x00, 0x00, 0x00, 0x00,
                 ;
                 ;/* Code: 0xD9, ASCII Character: '' */
                 ;0x00, 0x00, 0x00, 0x00, 0x00, 0x00, 0x00, 0x00,
                 ;
                 ;/* Code: 0xDA, ASCII Character: '' */
                 ;0x00, 0x00, 0x00, 0x00, 0x00, 0x00, 0x00, 0x00,
                 ;
                 ;/* Code: 0xDB, ASCII Character: '' */
                 ;0x00, 0x00, 0x00, 0x00, 0x00, 0x00, 0x00, 0x00,
                 ;
                 ;/* Code: 0xDC, ASCII Character: '' */
                 ;0x00, 0x00, 0x00, 0x00, 0x00, 0x00, 0x00, 0x00,
                 ;
                 ;/* Code: 0xDD, ASCII Character: '' */
                 ;0x00, 0x00, 0x00, 0x00, 0x00, 0x00, 0x00, 0x00,
                 ;
                 ;/* Code: 0xDE, ASCII Character: '' */
                 ;0x00, 0x00, 0x00, 0x00, 0x00, 0x00, 0x00, 0x00,
                 ;
                 ;/* Code: 0xDF, ASCII Character: '' */
                 ;0x00, 0x00, 0x00, 0x00, 0x00, 0x00, 0x00, 0x00,
                 ;
                 ;/* Code: 0xE0, ASCII Character: '' */
                 ;0x00, 0x00, 0x00, 0x00, 0x00, 0x00, 0x00, 0x00,
                 ;
                 ;/* Code: 0xE1, ASCII Character: '' */
                 ;0x00, 0x00, 0x00, 0x00, 0x00, 0x00, 0x00, 0x00,
                 ;
                 ;/* Code: 0xE2, ASCII Character: '' */
                 ;0x00, 0x00, 0x00, 0x00, 0x00, 0x00, 0x00, 0x00,
                 ;
                 ;/* Code: 0xE3, ASCII Character: '' */
                 ;0x00, 0x00, 0x00, 0x00, 0x00, 0x00, 0x00, 0x00,
                 ;
                 ;/* Code: 0xE4, ASCII Character: '' */
                 ;0x00, 0x00, 0x00, 0x00, 0x00, 0x00, 0x00, 0x00,
                 ;
                 ;/* Code: 0xE5, ASCII Character: '' */
                 ;0x00, 0x00, 0x00, 0x00, 0x00, 0x00, 0x00, 0x00,
                 ;
                 ;/* Code: 0xE6, ASCII Character: '' */
                 ;0x00, 0x00, 0x00, 0x00, 0x00, 0x00, 0x00, 0x00,
                 ;
                 ;/* Code: 0xE7, ASCII Character: '' */
                 ;0x00, 0x00, 0x00, 0x00, 0x00, 0x00, 0x00, 0x00,
                 ;
                 ;/* Code: 0xE8, ASCII Character: '' */
                 ;0x00, 0x00, 0x00, 0x00, 0x00, 0x00, 0x00, 0x00,
                 ;
                 ;/* Code: 0xE9, ASCII Character: '' */
                 ;0x00, 0x00, 0x00, 0x00, 0x00, 0x00, 0x00, 0x00,
                 ;
                 ;/* Code: 0xEA, ASCII Character: '' */
                 ;0x00, 0x00, 0x00, 0x00, 0x00, 0x00, 0x00, 0x00,
                 ;
                 ;/* Code: 0xEB, ASCII Character: '' */
                 ;0x00, 0x00, 0x00, 0x00, 0x00, 0x00, 0x00, 0x00,
                 ;
                 ;/* Code: 0xEC, ASCII Character: '' */
                 ;0x00, 0x00, 0x00, 0x00, 0x00, 0x00, 0x00, 0x00,
                 ;
                 ;/* Code: 0xED, ASCII Character: '' */
                 ;0x00, 0x00, 0x00, 0x00, 0x00, 0x00, 0x00, 0x00,
                 ;
                 ;/* Code: 0xEE, ASCII Character: '' */
                 ;0x00, 0x00, 0x00, 0x00, 0x00, 0x00, 0x00, 0x00,
                 ;
                 ;/* Code: 0xEF, ASCII Character: '' */
                 ;0x00, 0x00, 0x00, 0x00, 0x00, 0x00, 0x00, 0x00,
                 ;
                 ;/* Code: 0xF0, ASCII Character: '' */
                 ;0x00, 0x00, 0x00, 0x00, 0x00, 0x00, 0x00, 0x00,
                 ;
                 ;/* Code: 0xF1, ASCII Character: '' */
                 ;0x00, 0x00, 0x00, 0x00, 0x00, 0x00, 0x00, 0x00,
                 ;
                 ;/* Code: 0xF2, ASCII Character: '' */
                 ;0x00, 0x00, 0x00, 0x00, 0x00, 0x00, 0x00, 0x00,
                 ;
                 ;/* Code: 0xF3, ASCII Character: '' */
                 ;0x00, 0x00, 0x00, 0x00, 0x00, 0x00, 0x00, 0x00,
                 ;
                 ;/* Code: 0xF4, ASCII Character: '' */
                 ;0x00, 0x00, 0x00, 0x00, 0x00, 0x00, 0x00, 0x00,
                 ;
                 ;/* Code: 0xF5, ASCII Character: '' */
                 ;0x00, 0x00, 0x00, 0x00, 0x00, 0x00, 0x00, 0x00,
                 ;
                 ;/* Code: 0xF6, ASCII Character: '' */
                 ;0x00, 0x00, 0x00, 0x00, 0x00, 0x00, 0x00, 0x00,
                 ;
                 ;/* Code: 0xF7, ASCII Character: '' */
                 ;0x00, 0x00, 0x00, 0x00, 0x00, 0x00, 0x00, 0x00,
                 ;
                 ;/* Code: 0xF8, ASCII Character: '' */
                 ;0x00, 0x00, 0x00, 0x00, 0x00, 0x00, 0x00, 0x00,
                 ;
                 ;/* Code: 0xF9, ASCII Character: '' */
                 ;0x00, 0x00, 0x00, 0x00, 0x00, 0x00, 0x00, 0x00,
                 ;
                 ;/* Code: 0xFA, ASCII Character: '' */
                 ;0x00, 0x00, 0x00, 0x00, 0x00, 0x00, 0x00, 0x00,
                 ;
                 ;/* Code: 0xFB, ASCII Character: '' */
                 ;0x00, 0x00, 0x00, 0x00, 0x00, 0x00, 0x00, 0x00,
                 ;
                 ;/* Code: 0xFC, ASCII Character: '' */
                 ;0x00, 0x00, 0x00, 0x00, 0x00, 0x00, 0x00, 0x00,
                 ;
                 ;/* Code: 0xFD, ASCII Character: '' */
                 ;0x00, 0x00, 0x00, 0x00, 0x00, 0x00, 0x00, 0x00,
                 ;
                 ;/* Code: 0xFE, ASCII Character: '' */
                 ;0x00, 0x00, 0x00, 0x00, 0x00, 0x00, 0x00, 0x00,
                 ;
                 ;/* Code: 0xFF, ASCII Character: '' */
                 ;0x00, 0x00, 0x00, 0x00, 0x00, 0x00, 0x00, 0x00,
                 ;
                 ;#endif
                 ;};
                 ;
                 ;#include "arial.h"
                 ;#include "Image\pic.h"
                 ;#include "FONT\Font.h"
                 ;#include "FONT\font\AF8x8.h"
                 ;//#include "FONT\font\AF9x10.h"
                 ;//#include "FONT\font\AF9x11.h"
                 ;//#include "FONT\font\AF12x16.h"
                 ;
                 ;//#include "FONT\font\f5x7.h"
                 ;//#include "FONT\font\f9x14.h"
                 ;//#include "FONT\font\f10x20.h"
                 ;
                 ;#include <defines.c>
                 ;//float temp=0;
                 ;//char i=0;
                 ;//char a=0;
                 ;//char buffer[16];
                 ;
                 ;char c=1;
                 ;char j=250;
                 ;char _hour=0;
                 ;char _min=0;
                 ;char _sec=0;
                 ;char _wday,_year,_month,_day;
                 ;int sh_year;
                 ;char _weekday[7][4]={{"Sat"},{"Sun"},{"Mon"},{"Tue"},{"Wed"},{"Thu"},{"Fri"}};
                 
                 	.DSEG
                 ;char lastsec=0;
                 ;char strsec[12];
                 ;bit a=1;
                 ;
                 ;//#define led1 PORTD.6;
                 ;#define mhb 0xa3
                 ;#define ant 0xa3
                 ;#define ant1 0x99
                 ;#define ant2 0xa4
                 ;#define ant3 0xa8
                 ;#define ant4 0xaa
                 ;#define bat 0xac
                 ;#define bat1 0xad
                 ;#define bat2 0xaf
                 ;#define bat3 0xb2
                 ;#define like 0x88
                 ;#define unlike 0x89
                 ;#define alarm 0x8b
                 ;#define speaker 0x8f
                 ;#define music 0x91
                 ;#define plugin 0x92
                 ;#define temp 0x93
                 ;#define hum 0x94
                 ;#define lock 0xa6
                 ;#define unlock 0xa7
                 ;
                 ;// Declare your global variables here
                 ;unsigned char str[20];
                 ;unsigned char i=0;
                 ;
                 ;void main(void)
                 ; 0000 002E {
                 
                 	.CSEG
                 _main:
                 ; .FSTART _main
                 ; 0000 002F // Declare your local variables here
                 ; 0000 0030 // Variable used to store graphic display
                 ; 0000 0031 // controller initialization data
                 ; 0000 0032 GLCDINIT_t glcd_init_data;
                 ; 0000 0033 
                 ; 0000 0034 // Input/Output Ports initialization
                 ; 0000 0035 // Port A initialization
                 ; 0000 0036 // Function: Bit7=In Bit6=In Bit5=In Bit4=In Bit3=In Bit2=In Bit1=In Bit0=In
                 ; 0000 0037 DDRA=(0<<DDA7) | (0<<DDA6) | (0<<DDA5) | (0<<DDA4) | (0<<DDA3) | (0<<DDA2) | (0<<DDA1) | (0<<DDA0);
000acf 9726      	SBIW R28,6
                 ;	glcd_init_data -> Y+0
000ad0 e0e0      	LDI  R30,LOW(0)
000ad1 bbea      	OUT  0x1A,R30
                 ; 0000 0038 // State: Bit7=T Bit6=T Bit5=T Bit4=T Bit3=T Bit2=T Bit1=T Bit0=T
                 ; 0000 0039 PORTA=(0<<PORTA7) | (0<<PORTA6) | (0<<PORTA5) | (0<<PORTA4) | (0<<PORTA3) | (0<<PORTA2) | (0<<PORTA1) | (0<<PORTA0);
000ad2 bbeb      	OUT  0x1B,R30
                 ; 0000 003A 
                 ; 0000 003B // Port B initialization
                 ; 0000 003C // Function: Bit7=In Bit6=In Bit5=In Bit4=In Bit3=In Bit2=In Bit1=In Bit0=In
                 ; 0000 003D DDRB=(0<<DDB7) | (0<<DDB6) | (0<<DDB5) | (0<<DDB4) | (0<<DDB3) | (0<<DDB2) | (0<<DDB1) | (0<<DDB0);
000ad3 bbe7      	OUT  0x17,R30
                 ; 0000 003E // State: Bit7=T Bit6=T Bit5=T Bit4=T Bit3=T Bit2=T Bit1=T Bit0=T
                 ; 0000 003F PORTB=(0<<PORTB7) | (0<<PORTB6) | (0<<PORTB5) | (0<<PORTB4) | (0<<PORTB3) | (0<<PORTB2) | (0<<PORTB1) | (0<<PORTB0);
000ad4 bbe8      	OUT  0x18,R30
                 ; 0000 0040 
                 ; 0000 0041 // Port C initialization
                 ; 0000 0042 // Function: Bit7=In Bit6=In Bit5=In Bit4=In Bit3=In Bit2=In Bit1=In Bit0=In
                 ; 0000 0043 DDRC=(0<<DDC7) | (0<<DDC6) | (0<<DDC5) | (0<<DDC4) | (0<<DDC3) | (0<<DDC2) | (0<<DDC1) | (0<<DDC0);
000ad5 bbe4      	OUT  0x14,R30
                 ; 0000 0044 // State: Bit7=T Bit6=T Bit5=T Bit4=T Bit3=T Bit2=T Bit1=T Bit0=T
                 ; 0000 0045 PORTC=(0<<PORTC7) | (0<<PORTC6) | (0<<PORTC5) | (0<<PORTC4) | (0<<PORTC3) | (0<<PORTC2) | (0<<PORTC1) | (0<<PORTC0);
000ad6 bbe5      	OUT  0x15,R30
                 ; 0000 0046 
                 ; 0000 0047 // Port D initialization
                 ; 0000 0048 // Function: Bit7=In Bit6=In Bit5=In Bit4=In Bit3=In Bit2=In Bit1=In Bit0=In
                 ; 0000 0049 DDRD=(0<<DDD7) | (0<<DDD6) | (0<<DDD5) | (0<<DDD4) | (0<<DDD3) | (0<<DDD2) | (0<<DDD1) | (0<<DDD0);
000ad7 bbe1      	OUT  0x11,R30
                 ; 0000 004A // State: Bit7=T Bit6=T Bit5=T Bit4=T Bit3=T Bit2=T Bit1=T Bit0=T
                 ; 0000 004B PORTD=(0<<PORTD7) | (0<<PORTD6) | (0<<PORTD5) | (0<<PORTD4) | (0<<PORTD3) | (0<<PORTD2) | (0<<PORTD1) | (0<<PORTD0);
000ad8 bbe2      	OUT  0x12,R30
                 ; 0000 004C 
                 ; 0000 004D // Timer/Counter 0 initialization
                 ; 0000 004E // Clock source: System Clock
                 ; 0000 004F // Clock value: Timer 0 Stopped
                 ; 0000 0050 // Mode: Normal top=0xFF
                 ; 0000 0051 // OC0 output: Disconnected
                 ; 0000 0052 TCCR0=(0<<WGM00) | (0<<COM01) | (0<<COM00) | (0<<WGM01) | (0<<CS02) | (0<<CS01) | (0<<CS00);
000ad9 bfe3      	OUT  0x33,R30
                 ; 0000 0053 TCNT0=0x00;
000ada bfe2      	OUT  0x32,R30
                 ; 0000 0054 OCR0=0x00;
000adb bfec      	OUT  0x3C,R30
                 ; 0000 0055 
                 ; 0000 0056 // Timer/Counter 1 initialization
                 ; 0000 0057 // Clock source: System Clock
                 ; 0000 0058 // Clock value: Timer1 Stopped
                 ; 0000 0059 // Mode: Normal top=0xFFFF
                 ; 0000 005A // OC1A output: Disconnected
                 ; 0000 005B // OC1B output: Disconnected
                 ; 0000 005C // Noise Canceler: Off
                 ; 0000 005D // Input Capture on Falling Edge
                 ; 0000 005E // Timer1 Overflow Interrupt: Off
                 ; 0000 005F // Input Capture Interrupt: Off
                 ; 0000 0060 // Compare A Match Interrupt: Off
                 ; 0000 0061 // Compare B Match Interrupt: Off
                 ; 0000 0062 TCCR1A=(0<<COM1A1) | (0<<COM1A0) | (0<<COM1B1) | (0<<COM1B0) | (0<<WGM11) | (0<<WGM10);
000adc bdef      	OUT  0x2F,R30
                 ; 0000 0063 TCCR1B=(0<<ICNC1) | (0<<ICES1) | (0<<WGM13) | (0<<WGM12) | (0<<CS12) | (0<<CS11) | (0<<CS10);
000add bdee      	OUT  0x2E,R30
                 ; 0000 0064 TCNT1H=0x00;
000ade bded      	OUT  0x2D,R30
                 ; 0000 0065 TCNT1L=0x00;
000adf bdec      	OUT  0x2C,R30
                 ; 0000 0066 ICR1H=0x00;
000ae0 bde7      	OUT  0x27,R30
                 ; 0000 0067 ICR1L=0x00;
000ae1 bde6      	OUT  0x26,R30
                 ; 0000 0068 OCR1AH=0x00;
000ae2 bdeb      	OUT  0x2B,R30
                 ; 0000 0069 OCR1AL=0x00;
000ae3 bdea      	OUT  0x2A,R30
                 ; 0000 006A OCR1BH=0x00;
000ae4 bde9      	OUT  0x29,R30
                 ; 0000 006B OCR1BL=0x00;
000ae5 bde8      	OUT  0x28,R30
                 ; 0000 006C 
                 ; 0000 006D // Timer/Counter 2 initialization
                 ; 0000 006E // Clock source: System Clock
                 ; 0000 006F // Clock value: Timer2 Stopped
                 ; 0000 0070 // Mode: Normal top=0xFF
                 ; 0000 0071 // OC2 output: Disconnected
                 ; 0000 0072 ASSR=0<<AS2;
000ae6 bde2      	OUT  0x22,R30
                 ; 0000 0073 TCCR2=(0<<PWM2) | (0<<COM21) | (0<<COM20) | (0<<CTC2) | (0<<CS22) | (0<<CS21) | (0<<CS20);
000ae7 bde5      	OUT  0x25,R30
                 ; 0000 0074 TCNT2=0x00;
000ae8 bde4      	OUT  0x24,R30
                 ; 0000 0075 OCR2=0x00;
000ae9 bde3      	OUT  0x23,R30
                 ; 0000 0076 
                 ; 0000 0077 // Timer(s)/Counter(s) Interrupt(s) initialization
                 ; 0000 0078 TIMSK=(0<<OCIE2) | (0<<TOIE2) | (0<<TICIE1) | (0<<OCIE1A) | (0<<OCIE1B) | (0<<TOIE1) | (0<<OCIE0) | (0<<TOIE0);
000aea bfe9      	OUT  0x39,R30
                 ; 0000 0079 
                 ; 0000 007A // External Interrupt(s) initialization
                 ; 0000 007B // INT0: Off
                 ; 0000 007C // INT1: Off
                 ; 0000 007D // INT2: Off
                 ; 0000 007E MCUCR=(0<<ISC11) | (0<<ISC10) | (0<<ISC01) | (0<<ISC00);
000aeb bfe5      	OUT  0x35,R30
                 ; 0000 007F MCUCSR=(0<<ISC2);
000aec bfe4      	OUT  0x34,R30
                 ; 0000 0080 
                 ; 0000 0081 // USART initialization
                 ; 0000 0082 // USART disabled
                 ; 0000 0083 UCSRB=(0<<RXCIE) | (0<<TXCIE) | (0<<UDRIE) | (0<<RXEN) | (0<<TXEN) | (0<<UCSZ2) | (0<<RXB8) | (0<<TXB8);
000aed b9ea      	OUT  0xA,R30
                 ; 0000 0084 
                 ; 0000 0085 // Analog Comparator initialization
                 ; 0000 0086 // Analog Comparator: Off
                 ; 0000 0087 // The Analog Comparator's positive input is
                 ; 0000 0088 // connected to the AIN0 pin
                 ; 0000 0089 // The Analog Comparator's negative input is
                 ; 0000 008A // connected to the AIN1 pin
                 ; 0000 008B ACSR=(1<<ACD) | (0<<ACBG) | (0<<ACO) | (0<<ACI) | (0<<ACIE) | (0<<ACIC) | (0<<ACIS1) | (0<<ACIS0);
000aee e8e0      	LDI  R30,LOW(128)
000aef b9e8      	OUT  0x8,R30
                 ; 0000 008C SFIOR=(0<<ACME);
000af0 e0e0      	LDI  R30,LOW(0)
000af1 bfe0      	OUT  0x30,R30
                 ; 0000 008D 
                 ; 0000 008E // ADC initialization
                 ; 0000 008F // ADC disabled
                 ; 0000 0090 ADCSRA=(0<<ADEN) | (0<<ADSC) | (0<<ADATE) | (0<<ADIF) | (0<<ADIE) | (0<<ADPS2) | (0<<ADPS1) | (0<<ADPS0);
000af2 b9e6      	OUT  0x6,R30
                 ; 0000 0091 
                 ; 0000 0092 // SPI initialization
                 ; 0000 0093 // SPI disabled
                 ; 0000 0094 SPCR=(0<<SPIE) | (0<<SPE) | (0<<DORD) | (0<<MSTR) | (0<<CPOL) | (0<<CPHA) | (0<<SPR1) | (0<<SPR0);
000af3 b9ed      	OUT  0xD,R30
                 ; 0000 0095 
                 ; 0000 0096 // TWI initialization
                 ; 0000 0097 // TWI disabled
                 ; 0000 0098 TWCR=(0<<TWEA) | (0<<TWSTA) | (0<<TWSTO) | (0<<TWEN) | (0<<TWIE);
000af4 bfe6      	OUT  0x36,R30
                 ; 0000 0099 
                 ; 0000 009A // Graphic Display Controller initialization
                 ; 0000 009B // The ST7920 connections are specified in the
                 ; 0000 009C // Project|Configure|C Compiler|Libraries|Graphic Display menu:
                 ; 0000 009D // E - PORTA Bit 0
                 ; 0000 009E // R /W - PORTA Bit 1
                 ; 0000 009F // RS - PORTA Bit 2
                 ; 0000 00A0 // /RST - PORTA Bit 3
                 ; 0000 00A1 // DB4 - PORTA Bit 4
                 ; 0000 00A2 // DB5 - PORTA Bit 5
                 ; 0000 00A3 // DB6 - PORTA Bit 6
                 ; 0000 00A4 // DB7 - PORTA Bit 7
                 ; 0000 00A5 // Specify the current font for displaying text
                 ; 0000 00A6 glcd_init_data.font=font5x7;
000af5 e5e4      	LDI  R30,LOW(_font5x7*2)
000af6 e0f0      	LDI  R31,HIGH(_font5x7*2)
000af7 83e8      	ST   Y,R30
000af8 83f9      	STD  Y+1,R31
                 ; 0000 00A7 // No function is used for reading
                 ; 0000 00A8 // image data from external memory
                 ; 0000 00A9 glcd_init_data.readxmem=NULL;
000af9 e0e0      	LDI  R30,LOW(0)
000afa 83ea      	STD  Y+2,R30
000afb 83eb      	STD  Y+2+1,R30
                 ; 0000 00AA // No function is used for writing
                 ; 0000 00AB // image data to external memory
                 ; 0000 00AC glcd_init_data.writexmem=NULL;
000afc 83ec      	STD  Y+4,R30
000afd 83ed      	STD  Y+4+1,R30
                 ; 0000 00AD 
                 ; 0000 00AE glcd_init(&glcd_init_data);
000afe 01de      	MOVW R26,R28
000aff 940e 10a5 	CALL _glcd_init
                 ; 0000 00AF glcd_clear();
000b01 940e 10a2 	CALL _glcd_clear
                 ; 0000 00B0 LcdFont(AF8x8);
000b03 eda8      	LDI  R26,LOW(_AF8x8_G000*2)
000b04 e0bc      	LDI  R27,HIGH(_AF8x8_G000*2)
000b05 940e 0f2b 	CALL _LcdFont
                 ; 0000 00B1 SetLetter(E_LETTER);
000b07 e0a0      	LDI  R26,LOW(0)
000b08 940e 1b22 	CALL SUBOPT_0x0
                 ; 0000 00B2 
                 ; 0000 00B3 SetLine(0,0);
                 ; 0000 00B4 PutChar(ant);
000b0a eaa3      	LDI  R26,LOW(163)
000b0b 940e 1b29 	CALL SUBOPT_0x1
                 ; 0000 00B5 SetLine(0,1);
000b0d e0a1      	LDI  R26,LOW(1)
000b0e 940e 0f65 	CALL _SetLine
                 ; 0000 00B6 PutChar(ant4);
000b10 eaaa      	LDI  R26,LOW(170)
000b11 940e 1b29 	CALL SUBOPT_0x1
                 ; 0000 00B7 SetLine(0,3);
000b13 e0a3      	LDI  R26,LOW(3)
000b14 940e 0f65 	CALL _SetLine
                 ; 0000 00B8 PutChar(bat2);
000b16 eaaf      	LDI  R26,LOW(175)
000b17 940e 1b29 	CALL SUBOPT_0x1
                 ; 0000 00B9 SetLine(0,4);
000b19 e0a4      	LDI  R26,LOW(4)
000b1a 940e 0f65 	CALL _SetLine
                 ; 0000 00BA PutChar(alarm);
000b1c e8ab      	LDI  R26,LOW(139)
000b1d 940e 1b29 	CALL SUBOPT_0x1
                 ; 0000 00BB SetLine(0,5);
000b1f e0a5      	LDI  R26,LOW(5)
000b20 940e 0f65 	CALL _SetLine
                 ; 0000 00BC PutChar(speaker);
000b22 e8af      	LDI  R26,LOW(143)
000b23 940e 1b29 	CALL SUBOPT_0x1
                 ; 0000 00BD SetLine(0,6);
000b25 e0a6      	LDI  R26,LOW(6)
000b26 940e 0f65 	CALL _SetLine
                 ; 0000 00BE PutChar(music);
000b28 e9a1      	LDI  R26,LOW(145)
000b29 940e 1b29 	CALL SUBOPT_0x1
                 ; 0000 00BF SetLine(0,7);
000b2b e0a7      	LDI  R26,LOW(7)
000b2c 940e 0f65 	CALL _SetLine
                 ; 0000 00C0 PutChar(plugin);
000b2e e9a2      	LDI  R26,LOW(146)
000b2f 940e 1b29 	CALL SUBOPT_0x1
                 ; 0000 00C1 SetLine(0,8);
000b31 e0a8      	LDI  R26,LOW(8)
000b32 940e 0f65 	CALL _SetLine
                 ; 0000 00C2 PutChar(temp);
000b34 e9a3      	LDI  R26,LOW(147)
000b35 940e 1b29 	CALL SUBOPT_0x1
                 ; 0000 00C3 SetLine(0,9);
000b37 e0a9      	LDI  R26,LOW(9)
000b38 940e 0f65 	CALL _SetLine
                 ; 0000 00C4 PutChar(hum);
000b3a e9a4      	LDI  R26,LOW(148)
000b3b 940e 1b29 	CALL SUBOPT_0x1
                 ; 0000 00C5 SetLine(0,10);
000b3d e0aa      	LDI  R26,LOW(10)
000b3e 940e 0f65 	CALL _SetLine
                 ; 0000 00C6 PutChar(lock);
000b40 eaa6      	LDI  R26,LOW(166)
000b41 940e 1b29 	CALL SUBOPT_0x1
                 ; 0000 00C7 SetLine(0,11);
000b43 e0ab      	LDI  R26,LOW(11)
000b44 940e 0f65 	CALL _SetLine
                 ; 0000 00C8 PutChar(unlock);
000b46 eaa7      	LDI  R26,LOW(167)
000b47 940e 1b29 	CALL SUBOPT_0x1
                 ; 0000 00C9 SetLine(0,12);
000b49 e0ac      	LDI  R26,LOW(12)
000b4a 940e 0f65 	CALL _SetLine
                 ; 0000 00CA PutChar(like);
000b4c e8a8      	LDI  R26,LOW(136)
000b4d 940e 1b29 	CALL SUBOPT_0x1
                 ; 0000 00CB SetLine(0,13);
000b4f e0ad      	LDI  R26,LOW(13)
000b50 940e 0f65 	CALL _SetLine
                 ; 0000 00CC PutChar(unlike);
000b52 e8a9      	LDI  R26,LOW(137)
000b53 940e 0f8d 	CALL _PutChar
                 ; 0000 00CD 
                 ; 0000 00CE /*LcdFont(mhbfont);
                 ; 0000 00CF delay_ms(2000);
                 ; 0000 00D0 glcd_clear();
                 ; 0000 00D1 delay_ms(2000);
                 ; 0000 00D2 glcd_setfont(mhbfont);
                 ; 0000 00D3 SetLine(0,0);
                 ; 0000 00D4 PutChar(mhb);
                 ; 0000 00D5 delay_ms(2000);
                 ; 0000 00D6 glcd_clear();
                 ; 0000 00D7 */
                 ; 0000 00D8 
                 ; 0000 00D9 SetLine(1,0);
000b55 e0e1      	LDI  R30,LOW(1)
000b56 940e 1b2e 	CALL SUBOPT_0x2
                 ; 0000 00DA Puts("hello world!");
                +
000b58 e6a0     +LDI R26 , LOW ( _0x4 + ( 0 ) )
000b59 e0b2     +LDI R27 , HIGH ( _0x4 + ( 0 ) )
                 	__POINTW2MN _0x4,0
000b5a 940e 0f99 	CALL _Puts
                 ; 0000 00DB SetLine(2,0);
000b5c e0e2      	LDI  R30,LOW(2)
000b5d 940e 1b2e 	CALL SUBOPT_0x2
                 ; 0000 00DC Puts("test 12345");
                +
000b5f e6ad     +LDI R26 , LOW ( _0x4 + ( 13 ) )
000b60 e0b2     +LDI R27 , HIGH ( _0x4 + ( 13 ) )
                 	__POINTW2MN _0x4,13
000b61 940e 1b32 	CALL SUBOPT_0x3
                 ; 0000 00DD 
                 ; 0000 00DE 
                 ; 0000 00DF delay_ms(2000);
                 ; 0000 00E0 glcd_clear();
                 ; 0000 00E1 
                 ; 0000 00E2 SetLetter(P_LETTER);
000b63 e0a1      	LDI  R26,LOW(1)
000b64 940e 1b22 	CALL SUBOPT_0x0
                 ; 0000 00E3 SetLine(0,0);
                 ; 0000 00E4 Puts("  ");
                +
000b66 e7a8     +LDI R26 , LOW ( _0x4 + ( 24 ) )
000b67 e0b2     +LDI R27 , HIGH ( _0x4 + ( 24 ) )
                 	__POINTW2MN _0x4,24
000b68 940e 0f99 	CALL _Puts
                 ; 0000 00E5 DrawStringAt(1,0,"",BLACK,WHITE);
000b6a e0e1      	LDI  R30,LOW(1)
000b6b 940e 1b2e 	CALL SUBOPT_0x2
000b6d 940e 1b3a 	CALL SUBOPT_0x4
                +
000b6f e8a3     +LDI R26 , LOW ( _0x4 + ( 35 ) )
000b70 e0b2     +LDI R27 , HIGH ( _0x4 + ( 35 ) )
                 	__POINTW2MN _0x4,35
000b71 940e 0f99 	CALL _Puts
                 ; 0000 00E6 DrawStringAt(2,0,"  ",BLACK,WHITE);
000b73 e0e2      	LDI  R30,LOW(2)
000b74 940e 1b2e 	CALL SUBOPT_0x2
000b76 940e 1b3a 	CALL SUBOPT_0x4
                +
000b78 e8a8     +LDI R26 , LOW ( _0x4 + ( 40 ) )
000b79 e0b2     +LDI R27 , HIGH ( _0x4 + ( 40 ) )
                 	__POINTW2MN _0x4,40
000b7a 940e 0f99 	CALL _Puts
                 ; 0000 00E7 DrawStringAt(3,0," ",BLACK,WHITE);
000b7c e0e3      	LDI  R30,LOW(3)
000b7d 940e 1b2e 	CALL SUBOPT_0x2
000b7f 940e 1b3a 	CALL SUBOPT_0x4
                +
000b81 e9a7     +LDI R26 , LOW ( _0x4 + ( 55 ) )
000b82 e0b2     +LDI R27 , HIGH ( _0x4 + ( 55 ) )
                 	__POINTW2MN _0x4,55
000b83 940e 0f99 	CALL _Puts
                 ; 0000 00E8 DrawStringAt(4,0,"",BLACK,WHITE);
000b85 e0e4      	LDI  R30,LOW(4)
000b86 940e 1b2e 	CALL SUBOPT_0x2
000b88 940e 1b3a 	CALL SUBOPT_0x4
                +
000b8a eaa5     +LDI R26 , LOW ( _0x4 + ( 69 ) )
000b8b e0b2     +LDI R27 , HIGH ( _0x4 + ( 69 ) )
                 	__POINTW2MN _0x4,69
000b8c 940e 1b32 	CALL SUBOPT_0x3
                 ; 0000 00E9 
                 ; 0000 00EA delay_ms(2000);
                 ; 0000 00EB glcd_clear();
                 ; 0000 00EC 
                 ; 0000 00ED glcd_putimagef(0,0, truck, 1);
000b8e e0e0      	LDI  R30,LOW(0)
000b8f 93ea      	ST   -Y,R30
000b90 93ea      	ST   -Y,R30
000b91 ede4      	LDI  R30,LOW(_truck*2)
000b92 e0f8      	LDI  R31,HIGH(_truck*2)
000b93 93fa      	ST   -Y,R31
000b94 93ea      	ST   -Y,R30
000b95 e0a1      	LDI  R26,LOW(1)
000b96 940e 1594 	CALL _glcd_putimagef
                 ; 0000 00EE 
                 ; 0000 00EF delay_ms(2000);
000b98 eda0      	LDI  R26,LOW(2000)
000b99 e0b7      	LDI  R27,HIGH(2000)
000b9a 940e 1e6b 	CALL _delay_ms
                 ; 0000 00F0 glcd_clear();
000b9c 940e 10a2 	CALL _glcd_clear
                 ; 0000 00F1 
                 ; 0000 00F2 while (1)
                 _0x5:
                 ; 0000 00F3       {
                 ; 0000 00F4 
                 ; 0000 00F5       for(i=0;i<=10;i++){
000b9e e0e0      	LDI  R30,LOW(0)
000b9f 93e0 031d 	STS  _i,R30
                 _0x9:
000ba1 91a0 031d 	LDS  R26,_i
000ba3 30ab      	CPI  R26,LOW(0xB)
000ba4 f008      	BRLO PC+2
000ba5 c0a6      	RJMP _0xA
                 ; 0000 00F6         lcd_gotoxy(0,0);
000ba6 e0e0      	LDI  R30,LOW(0)
000ba7 940e 1b46 	CALL SUBOPT_0x5
                 ; 0000 00F7         glcd_setfont(arial);
000ba9 efe8      	LDI  R30,LOW(_arial*2)
000baa e0f2      	LDI  R31,HIGH(_arial*2)
000bab 940e 1b4a 	CALL SUBOPT_0x6
                 ; 0000 00F8         glcd_outtextxyf(0,32,"Emtechnic.ir");
000bad e0e0      	LDI  R30,LOW(0)
000bae 93ea      	ST   -Y,R30
000baf e2e0      	LDI  R30,LOW(32)
000bb0 93ea      	ST   -Y,R30
                +
000bb1 e6ac     +LDI R26 , LOW ( 2 * _0x0 + ( 78 ) )
000bb2 e1b4     +LDI R27 , HIGH ( 2 * _0x0 + ( 78 ) )
                 	__POINTW2FN _0x0,78
000bb3 940e 1582 	CALL _glcd_outtextxyf
                 ; 0000 00F9         sprintf(str,"value=%d ",i);
000bb5 e0e9      	LDI  R30,LOW(_str)
000bb6 e0f3      	LDI  R31,HIGH(_str)
000bb7 93fa      	ST   -Y,R31
000bb8 93ea      	ST   -Y,R30
                +
000bb9 e7e9     +LDI R30 , LOW ( 2 * _0x0 + ( 91 ) )
000bba e1f4     +LDI R31 , HIGH ( 2 * _0x0 + ( 91 ) )
                 	__POINTW1FN _0x0,91
000bbb 93fa      	ST   -Y,R31
000bbc 93ea      	ST   -Y,R30
000bbd 91e0 031d 	LDS  R30,_i
000bbf 940e 1b4f 	CALL SUBOPT_0x7
000bc1 e084      	LDI  R24,4
000bc2 940e 19d3 	CALL _sprintf
000bc4 9628      	ADIW R28,8
                 ; 0000 00FA         glcd_setcolor(0);
000bc5 e0e0      	LDI  R30,LOW(0)
000bc6 93e0 02ae 	STS  _glcd_state,R30
                 ; 0000 00FB         glcd_setbkcolor(1);
000bc8 e0e1      	LDI  R30,LOW(1)
                +
000bc9 93e0 02af+STS _glcd_state + ( 1 ) , R30
                 	__PUTB1MN _glcd_state,1
                 ; 0000 00FC        glcd_outtextxy(0,48,str);
000bcb e0e0      	LDI  R30,LOW(0)
000bcc 93ea      	ST   -Y,R30
000bcd e3e0      	LDI  R30,LOW(48)
000bce 93ea      	ST   -Y,R30
000bcf e0a9      	LDI  R26,LOW(_str)
000bd0 e0b3      	LDI  R27,HIGH(_str)
000bd1 940e 1577 	CALL _glcd_outtextxy
                 ; 0000 00FD        glcd_setcolor(1);
000bd3 940e 1b55 	CALL SUBOPT_0x8
                 ; 0000 00FE        glcd_setbkcolor(0);
                 ; 0000 00FF        delay_ms(250);
000bd5 efaa      	LDI  R26,LOW(250)
000bd6 e0b0      	LDI  R27,0
000bd7 940e 1e6b 	CALL _delay_ms
                 ; 0000 0100 
                 ; 0000 0101       rtc_get_time(&_hour,&_min,&_sec);
000bd9 e0e7      	LDI  R30,LOW(7)
000bda e0f0      	LDI  R31,HIGH(7)
000bdb 93fa      	ST   -Y,R31
000bdc 93ea      	ST   -Y,R30
000bdd e0e6      	LDI  R30,LOW(6)
000bde e0f0      	LDI  R31,HIGH(6)
000bdf 93fa      	ST   -Y,R31
000be0 93ea      	ST   -Y,R30
000be1 e0a9      	LDI  R26,LOW(9)
000be2 e0b0      	LDI  R27,HIGH(9)
000be3 940e 0fbc 	CALL _rtc_get_time
                 ; 0000 0102       sprintf(strsec,"%02d:%02d:%02d",_hour,_min,_sec);
000be5 940e 1b5c 	CALL SUBOPT_0x9
                +
000be7 e8e3     +LDI R30 , LOW ( 2 * _0x0 + ( 101 ) )
000be8 e1f4     +LDI R31 , HIGH ( 2 * _0x0 + ( 101 ) )
                 	__POINTW1FN _0x0,101
000be9 93fa      	ST   -Y,R31
000bea 93ea      	ST   -Y,R30
000beb 2de7      	MOV  R30,R7
000bec 940e 1b4f 	CALL SUBOPT_0x7
000bee 2de6      	MOV  R30,R6
000bef 940e 1b4f 	CALL SUBOPT_0x7
000bf1 2de9      	MOV  R30,R9
000bf2 940e 1b4f 	CALL SUBOPT_0x7
000bf4 e08c      	LDI  R24,12
000bf5 940e 19d3 	CALL _sprintf
000bf7 9660      	ADIW R28,16
                 ; 0000 0103 
                 ; 0000 0104 
                 ; 0000 0105       lcd_gotoxy(0,1);
000bf8 e0e0      	LDI  R30,LOW(0)
000bf9 93ea      	ST   -Y,R30
000bfa e0a1      	LDI  R26,LOW(1)
000bfb 940e 1389 	CALL _lcd_gotoxy
                 ; 0000 0106       lcd_puts(strsec);
000bfd 940e 1b61 	CALL SUBOPT_0xA
                 ; 0000 0107       rtc_get_date(&_wday,&_day,&_month,&_year);
000bff e0e8      	LDI  R30,LOW(8)
000c00 e0f0      	LDI  R31,HIGH(8)
000c01 93fa      	ST   -Y,R31
000c02 93ea      	ST   -Y,R30
000c03 e0ed      	LDI  R30,LOW(13)
000c04 e0f0      	LDI  R31,HIGH(13)
000c05 93fa      	ST   -Y,R31
000c06 93ea      	ST   -Y,R30
000c07 e0ea      	LDI  R30,LOW(10)
000c08 e0f0      	LDI  R31,HIGH(10)
000c09 93fa      	ST   -Y,R31
000c0a 93ea      	ST   -Y,R30
000c0b e0ab      	LDI  R26,LOW(11)
000c0c e0b0      	LDI  R27,HIGH(11)
000c0d 940e 0fd1 	CALL _rtc_get_date
                 ; 0000 0108       _wday--;
000c0f 948a      	DEC  R8
                 ; 0000 0109       sh_year=_year+1400;
000c10 2deb      	MOV  R30,R11
000c11 e0f0      	LDI  R31,0
000c12 58e8      	SUBI R30,LOW(-1400)
000c13 4ffa      	SBCI R31,HIGH(-1400)
000c14 93e0 02df 	STS  _sh_year,R30
000c16 93f0 02e0 	STS  _sh_year+1,R31
                 ; 0000 010A       sprintf(strsec,"%4d/%02d/%02d",sh_year,_month,_day);
000c18 940e 1b5c 	CALL SUBOPT_0x9
                +
000c1a e9e2     +LDI R30 , LOW ( 2 * _0x0 + ( 116 ) )
000c1b e1f4     +LDI R31 , HIGH ( 2 * _0x0 + ( 116 ) )
                 	__POINTW1FN _0x0,116
000c1c 93fa      	ST   -Y,R31
000c1d 93ea      	ST   -Y,R30
000c1e 91e0 02df 	LDS  R30,_sh_year
000c20 91f0 02e0 	LDS  R31,_sh_year+1
000c22 940e 205b 	CALL __CWD1
000c24 940e 211b 	CALL __PUTPARD1
000c26 2dea      	MOV  R30,R10
000c27 940e 1b4f 	CALL SUBOPT_0x7
000c29 2ded      	MOV  R30,R13
000c2a 940e 1b4f 	CALL SUBOPT_0x7
000c2c e08c      	LDI  R24,12
000c2d 940e 19d3 	CALL _sprintf
000c2f 9660      	ADIW R28,16
                 ; 0000 010B       //switch(_wday){
                 ; 0000 010C        //case(1):_weekday="SAT";
                 ; 0000 010D        //case(2):_weekday="SUN";
                 ; 0000 010E        //case(3):_weekday="MON";
                 ; 0000 010F        //case(4):_weekday="TUE";
                 ; 0000 0110        //case(5):_weekday="WED";
                 ; 0000 0111        //case(6):_weekday="THU";
                 ; 0000 0112        //case(7):_weekday="FRI";
                 ; 0000 0113        //default:_weekday="___";
                 ; 0000 0114       //}
                 ; 0000 0115 
                 ; 0000 0116       lcd_gotoxy(0,0);
000c30 e0e0      	LDI  R30,LOW(0)
000c31 940e 1b46 	CALL SUBOPT_0x5
                 ; 0000 0117       lcd_puts(strsec);
000c33 940e 1b61 	CALL SUBOPT_0xA
                 ; 0000 0118       //_weekday[]="s";
                 ; 0000 0119       //if (_sec==2) a^;
                 ; 0000 011A       //glcd_display(a);
                 ; 0000 011B 
                 ; 0000 011C       strcpy(strsec,_weekday[_wday]);
000c35 940e 1b5c 	CALL SUBOPT_0x9
000c37 2de8      	MOV  R30,R8
000c38 eea1      	LDI  R26,LOW(__weekday)
000c39 e0b2      	LDI  R27,HIGH(__weekday)
000c3a e0f0      	LDI  R31,0
000c3b 940e 2049 	CALL __LSLW2
000c3d 0fae      	ADD  R26,R30
000c3e 1fbf      	ADC  R27,R31
000c3f 940e 1a17 	CALL _strcpy
                 ; 0000 011D       lcd_gotoxy(11,0);
000c41 e0eb      	LDI  R30,LOW(11)
000c42 940e 1b46 	CALL SUBOPT_0x5
                 ; 0000 011E       lcd_puts(strsec);
000c44 940e 1b61 	CALL SUBOPT_0xA
                 ; 0000 011F       /*lcd_gotoxy(0,0);
                 ; 0000 0120       lcd_puts("11");
                 ; 0000 0121       glcd_rectangle(0, 0, 18, 18);
                 ; 0000 0122       delay_ms(2000);
                 ; 0000 0123       glcd_clear();
                 ; 0000 0124       delay_ms(750);
                 ; 0000 0125       //glcd_setcolor(0);
                 ; 0000 0126       //glcd_setbkcolor(1);
                 ; 0000 0127       delay_ms(2000);
                 ; 0000 0128       glcd_setfont(she);
                 ; 0000 0129       delay_ms(2000);
                 ; 0000 012A       glcd_outtext("!");
                 ; 0000 012B       //lcd_puts("!");
                 ; 0000 012C       //glcd_setcolor(1);
                 ; 0000 012D       //glcd_setbkcolor(0);
                 ; 0000 012E       //lcd_puts("!");
                 ; 0000 012F       delay_ms(500);
                 ; 0000 0130       glcd_clear();
                 ; 0000 0131 
                 ; 0000 0132 
                 ; 0000 0133       glcd_rectangle(30, 30, 45, 45);
                 ; 0000 0134       glcd_setfont(she);
                 ; 0000 0135       glcd_setcolor(0);
                 ; 0000 0136       glcd_setbkcolor(1);
                 ; 0000 0137       glcd_outtextxy(33, 33, "!");
                 ; 0000 0138       delay_ms(2000);
                 ; 0000 0139       glcd_setcolor(1);
                 ; 0000 013A       glcd_setbkcolor(0);
                 ; 0000 013B       glcd_cleartext();
                 ; 0000 013C       delay_ms(2000);
                 ; 0000 013D       rtc_get_time(_hour,_min,_sec);
                 ; 0000 013E       sprintf(strsec,"%d",_sec);
                 ; 0000 013F       lcd_gotoxy(0,0);
                 ; 0000 0140       lcd_puts(strsec);
                 ; 0000 0141       delay_ms(2000);
                 ; 0000 0142       glcd_clear();
                 ; 0000 0143 
                 ; 0000 0144 */
                 ; 0000 0145   // Place your code here
                 ; 0000 0146       //lcd_clear();
                 ; 0000 0147       //delay_ms(500);
                 ; 0000 0148 
                 ; 0000 0149       /*
                 ; 0000 014A       a=w1_init();
                 ; 0000 014B       if (a>0) {
                 ; 0000 014C       lcd_gotoxy(0,0);
                 ; 0000 014D       lcd_puts("HI Ehsan");
                 ; 0000 014E       lcd_gotoxy(0,1);
                 ; 0000 014F         temp=ds18b20_temperature(0);
                 ; 0000 0150         sprintf(buffer,"Temp=%2.1f%`C",temp,223);
                 ; 0000 0151         lcd_puts(buffer);
                 ; 0000 0152       }
                 ; 0000 0153       delay_ms(500);
                 ; 0000 0154       lcd_clear();
                 ; 0000 0155       lcd_gotoxy(0,0);
                 ; 0000 0156       glcd_putimagef(0,0,bfreeze,0);
                 ; 0000 0157       delay_ms(2000);
                 ; 0000 0158       glcd_putimagef(0,0,bfreeze,3);
                 ; 0000 0159       delay_ms(2000);
                 ; 0000 015A       lcd_clear();*/
                 ; 0000 015B       }
000c46 91e0 031d 	LDS  R30,_i
000c48 5fef      	SUBI R30,-LOW(1)
000c49 93e0 031d 	STS  _i,R30
000c4b cf55      	RJMP _0x9
                 _0xA:
                 ; 0000 015C       }
000c4c cf51      	RJMP _0x5
                 ; 0000 015D }
                 _0xB:
000c4d cfff      	RJMP _0xB
                 ; .FEND
                 
                 	.DSEG
                 _0x4:
000260           	.BYTE 0x4E
                 ;
                 ;
                 ;/****************************************************************************
                 ;Font created by the LCD Vision V1.05 font & image editor/converter
                 ;(C) Copyright 2011-2013 Pavel Haiduc, HP InfoTech s.r.l.
                 ;http://www.hpinfotech.com
                 ;
                 ;Font name: Arial
                 ;The font is proportional (has variable width).
                 ;Font height: 14 pixels
                 ;First character: 0x20
                 ;Last character: 0x7F
                 ;
                 ;Exported font data size:
                 ;1500 bytes for displays organized as horizontal rows of bytes
                 ;1190 bytes for displays organized as rows of vertical bytes.
                 ;****************************************************************************/
                 ;
                 ;flash unsigned char arial[]=
                 ;{
                 ;0x00, /* Proportional font */
                 ;0x0E, /* Font height */
                 ;0x20, /* First character */
                 ;0x60, /* Number of characters in font */
                 ;
                 ;/* Character widths */
                 ;0x05, 0x02, 0x04, 0x06, 0x06, 0x0A, 0x07, 0x02,
                 ;0x04, 0x04, 0x04, 0x06, 0x03, 0x04, 0x03, 0x03,
                 ;0x06, 0x06, 0x06, 0x06, 0x06, 0x06, 0x06, 0x06,
                 ;0x06, 0x06, 0x03, 0x03, 0x06, 0x06, 0x06, 0x06,
                 ;0x0B, 0x08, 0x07, 0x07, 0x07, 0x06, 0x06, 0x08,
                 ;0x07, 0x02, 0x05, 0x07, 0x06, 0x08, 0x07, 0x08,
                 ;0x06, 0x08, 0x07, 0x07, 0x06, 0x07, 0x08, 0x0B,
                 ;0x07, 0x08, 0x07, 0x03, 0x03, 0x03, 0x05, 0x06,
                 ;0x04, 0x06, 0x06, 0x06, 0x06, 0x06, 0x04, 0x06,
                 ;0x06, 0x02, 0x02, 0x05, 0x02, 0x08, 0x06, 0x06,
                 ;0x06, 0x06, 0x04, 0x06, 0x03, 0x06, 0x06, 0x0A,
                 ;0x06, 0x06, 0x06, 0x04, 0x02, 0x04, 0x06, 0x08,
                 ;
                 ;#ifndef _GLCD_DATA_BYTEY_
                 ;/* Font data for displays organized as
                 ;   horizontal rows of bytes */
                 ;
                 ;/* Code: 0x20, ASCII Character: ' ' */
                 ;0x00, 0x00, 0x00, 0x00, 0x00, 0x00, 0x00, 0x00,
                 ;0x00, 0x00, 0x00, 0x00, 0x00, 0x00,
                 ;
                 ;/* Code: 0x21, ASCII Character: '!' */
                 ;0x00, 0x00, 0x00, 0x01, 0x01, 0x01, 0x01, 0x01,
                 ;0x01, 0x00, 0x01, 0x00, 0x00, 0x00,
                 ;
                 ;/* Code: 0x22, ASCII Character: '"' */
                 ;0x00, 0x00, 0x00, 0x05, 0x05, 0x05, 0x00, 0x00,
                 ;0x00, 0x00, 0x00, 0x00, 0x00, 0x00,
                 ;
                 ;/* Code: 0x23, ASCII Character: '#' */
                 ;0x00, 0x00, 0x00, 0x14, 0x14, 0x1F, 0x0A, 0x0A,
                 ;0x1F, 0x05, 0x05, 0x00, 0x00, 0x00,
                 ;
                 ;/* Code: 0x24, ASCII Character: '$' */
                 ;0x00, 0x00, 0x00, 0x0E, 0x15, 0x05, 0x0E, 0x14,
                 ;0x14, 0x15, 0x0E, 0x04, 0x00, 0x00,
                 ;
                 ;/* Code: 0x25, ASCII Character: '%' */
                 ;0x00, 0x00, 0x00, 0x00, 0x00, 0x00, 0x46, 0x00,
                 ;0x29, 0x00, 0x29, 0x00, 0x16, 0x00, 0xD0, 0x00,
                 ;0x28, 0x01, 0x28, 0x01, 0xC4, 0x00, 0x00, 0x00,
                 ;0x00, 0x00, 0x00, 0x00,
                 ;
                 ;/* Code: 0x26, ASCII Character: '&' */
                 ;0x00, 0x00, 0x00, 0x0C, 0x12, 0x12, 0x0C, 0x0A,
                 ;0x31, 0x11, 0x2E, 0x00, 0x00, 0x00,
                 ;
                 ;/* Code: 0x27, ASCII Character: ''' */
                 ;0x00, 0x00, 0x00, 0x01, 0x01, 0x01, 0x00, 0x00,
                 ;0x00, 0x00, 0x00, 0x00, 0x00, 0x00,
                 ;
                 ;/* Code: 0x28, ASCII Character: '(' */
                 ;0x00, 0x00, 0x00, 0x04, 0x02, 0x01, 0x01, 0x01,
                 ;0x01, 0x01, 0x01, 0x02, 0x04, 0x00,
                 ;
                 ;/* Code: 0x29, ASCII Character: ')' */
                 ;0x00, 0x00, 0x00, 0x01, 0x02, 0x04, 0x04, 0x04,
                 ;0x04, 0x04, 0x04, 0x02, 0x01, 0x00,
                 ;
                 ;/* Code: 0x2A, ASCII Character: '*' */
                 ;0x00, 0x00, 0x00, 0x02, 0x07, 0x02, 0x05, 0x00,
                 ;0x00, 0x00, 0x00, 0x00, 0x00, 0x00,
                 ;
                 ;/* Code: 0x2B, ASCII Character: '+' */
                 ;0x00, 0x00, 0x00, 0x00, 0x00, 0x04, 0x04, 0x1F,
                 ;0x04, 0x04, 0x00, 0x00, 0x00, 0x00,
                 ;
                 ;/* Code: 0x2C, ASCII Character: ',' */
                 ;0x00, 0x00, 0x00, 0x00, 0x00, 0x00, 0x00, 0x00,
                 ;0x00, 0x00, 0x02, 0x02, 0x02, 0x00,
                 ;
                 ;/* Code: 0x2D, ASCII Character: '-' */
                 ;0x00, 0x00, 0x00, 0x00, 0x00, 0x00, 0x00, 0x00,
                 ;0x07, 0x00, 0x00, 0x00, 0x00, 0x00,
                 ;
                 ;/* Code: 0x2E, ASCII Character: '.' */
                 ;0x00, 0x00, 0x00, 0x00, 0x00, 0x00, 0x00, 0x00,
                 ;0x00, 0x00, 0x02, 0x00, 0x00, 0x00,
                 ;
                 ;/* Code: 0x2F, ASCII Character: '/' */
                 ;0x00, 0x00, 0x00, 0x04, 0x04, 0x02, 0x02, 0x02,
                 ;0x02, 0x01, 0x01, 0x00, 0x00, 0x00,
                 ;
                 ;/* Code: 0x30, ASCII Character: '0' */
                 ;0x00, 0x00, 0x00, 0x0E, 0x11, 0x11, 0x11, 0x11,
                 ;0x11, 0x11, 0x0E, 0x00, 0x00, 0x00,
                 ;
                 ;/* Code: 0x31, ASCII Character: '1' */
                 ;0x00, 0x00, 0x00, 0x04, 0x06, 0x05, 0x04, 0x04,
                 ;0x04, 0x04, 0x04, 0x00, 0x00, 0x00,
                 ;
                 ;/* Code: 0x32, ASCII Character: '2' */
                 ;0x00, 0x00, 0x00, 0x0E, 0x11, 0x10, 0x10, 0x08,
                 ;0x04, 0x02, 0x1F, 0x00, 0x00, 0x00,
                 ;
                 ;/* Code: 0x33, ASCII Character: '3' */
                 ;0x00, 0x00, 0x00, 0x0E, 0x11, 0x10, 0x0C, 0x10,
                 ;0x10, 0x11, 0x0E, 0x00, 0x00, 0x00,
                 ;
                 ;/* Code: 0x34, ASCII Character: '4' */
                 ;0x00, 0x00, 0x00, 0x08, 0x0C, 0x0A, 0x0A, 0x09,
                 ;0x1F, 0x08, 0x08, 0x00, 0x00, 0x00,
                 ;
                 ;/* Code: 0x35, ASCII Character: '5' */
                 ;0x00, 0x00, 0x00, 0x1E, 0x02, 0x01, 0x0F, 0x10,
                 ;0x10, 0x11, 0x0E, 0x00, 0x00, 0x00,
                 ;
                 ;/* Code: 0x36, ASCII Character: '6' */
                 ;0x00, 0x00, 0x00, 0x0E, 0x11, 0x01, 0x0F, 0x11,
                 ;0x11, 0x11, 0x0E, 0x00, 0x00, 0x00,
                 ;
                 ;/* Code: 0x37, ASCII Character: '7' */
                 ;0x00, 0x00, 0x00, 0x1F, 0x08, 0x08, 0x04, 0x04,
                 ;0x02, 0x02, 0x02, 0x00, 0x00, 0x00,
                 ;
                 ;/* Code: 0x38, ASCII Character: '8' */
                 ;0x00, 0x00, 0x00, 0x0E, 0x11, 0x11, 0x0E, 0x11,
                 ;0x11, 0x11, 0x0E, 0x00, 0x00, 0x00,
                 ;
                 ;/* Code: 0x39, ASCII Character: '9' */
                 ;0x00, 0x00, 0x00, 0x0E, 0x11, 0x11, 0x11, 0x1E,
                 ;0x10, 0x11, 0x0E, 0x00, 0x00, 0x00,
                 ;
                 ;/* Code: 0x3A, ASCII Character: ':' */
                 ;0x00, 0x00, 0x00, 0x00, 0x00, 0x01, 0x00, 0x00,
                 ;0x00, 0x00, 0x01, 0x00, 0x00, 0x00,
                 ;
                 ;/* Code: 0x3B, ASCII Character: ';' */
                 ;0x00, 0x00, 0x00, 0x00, 0x00, 0x01, 0x00, 0x00,
                 ;0x00, 0x00, 0x01, 0x01, 0x01, 0x00,
                 ;
                 ;/* Code: 0x3C, ASCII Character: '<' */
                 ;0x00, 0x00, 0x00, 0x00, 0x00, 0x10, 0x0E, 0x01,
                 ;0x0E, 0x10, 0x00, 0x00, 0x00, 0x00,
                 ;
                 ;/* Code: 0x3D, ASCII Character: '=' */
                 ;0x00, 0x00, 0x00, 0x00, 0x00, 0x00, 0x1F, 0x00,
                 ;0x1F, 0x00, 0x00, 0x00, 0x00, 0x00,
                 ;
                 ;/* Code: 0x3E, ASCII Character: '>' */
                 ;0x00, 0x00, 0x00, 0x00, 0x00, 0x01, 0x0E, 0x10,
                 ;0x0E, 0x01, 0x00, 0x00, 0x00, 0x00,
                 ;
                 ;/* Code: 0x3F, ASCII Character: '?' */
                 ;0x00, 0x00, 0x00, 0x0E, 0x11, 0x10, 0x08, 0x04,
                 ;0x04, 0x00, 0x04, 0x00, 0x00, 0x00,
                 ;
                 ;/* Code: 0x40, ASCII Character: '@' */
                 ;0x00, 0x00, 0x00, 0x00, 0x00, 0x00, 0xF8, 0x00,
                 ;0x06, 0x01, 0xB2, 0x02, 0xC9, 0x02, 0x45, 0x02,
                 ;0x45, 0x02, 0x65, 0x01, 0xD9, 0x00, 0x02, 0x02,
                 ;0xFC, 0x01, 0x00, 0x00,
                 ;
                 ;/* Code: 0x41, ASCII Character: 'A' */
                 ;0x00, 0x00, 0x00, 0x08, 0x14, 0x14, 0x14, 0x22,
                 ;0x3E, 0x41, 0x41, 0x00, 0x00, 0x00,
                 ;
                 ;/* Code: 0x42, ASCII Character: 'B' */
                 ;0x00, 0x00, 0x00, 0x1F, 0x21, 0x21, 0x3F, 0x21,
                 ;0x21, 0x21, 0x1F, 0x00, 0x00, 0x00,
                 ;
                 ;/* Code: 0x43, ASCII Character: 'C' */
                 ;0x00, 0x00, 0x00, 0x1C, 0x22, 0x01, 0x01, 0x01,
                 ;0x01, 0x22, 0x1C, 0x00, 0x00, 0x00,
                 ;
                 ;/* Code: 0x44, ASCII Character: 'D' */
                 ;0x00, 0x00, 0x00, 0x0F, 0x11, 0x21, 0x21, 0x21,
                 ;0x21, 0x11, 0x0F, 0x00, 0x00, 0x00,
                 ;
                 ;/* Code: 0x45, ASCII Character: 'E' */
                 ;0x00, 0x00, 0x00, 0x1F, 0x01, 0x01, 0x1F, 0x01,
                 ;0x01, 0x01, 0x1F, 0x00, 0x00, 0x00,
                 ;
                 ;/* Code: 0x46, ASCII Character: 'F' */
                 ;0x00, 0x00, 0x00, 0x1F, 0x01, 0x01, 0x0F, 0x01,
                 ;0x01, 0x01, 0x01, 0x00, 0x00, 0x00,
                 ;
                 ;/* Code: 0x47, ASCII Character: 'G' */
                 ;0x00, 0x00, 0x00, 0x1C, 0x22, 0x41, 0x01, 0x71,
                 ;0x41, 0x22, 0x1C, 0x00, 0x00, 0x00,
                 ;
                 ;/* Code: 0x48, ASCII Character: 'H' */
                 ;0x00, 0x00, 0x00, 0x21, 0x21, 0x21, 0x3F, 0x21,
                 ;0x21, 0x21, 0x21, 0x00, 0x00, 0x00,
                 ;
                 ;/* Code: 0x49, ASCII Character: 'I' */
                 ;0x00, 0x00, 0x00, 0x01, 0x01, 0x01, 0x01, 0x01,
                 ;0x01, 0x01, 0x01, 0x00, 0x00, 0x00,
                 ;
                 ;/* Code: 0x4A, ASCII Character: 'J' */
                 ;0x00, 0x00, 0x00, 0x08, 0x08, 0x08, 0x08, 0x08,
                 ;0x09, 0x09, 0x06, 0x00, 0x00, 0x00,
                 ;
                 ;/* Code: 0x4B, ASCII Character: 'K' */
                 ;0x00, 0x00, 0x00, 0x21, 0x11, 0x09, 0x0D, 0x0B,
                 ;0x11, 0x11, 0x21, 0x00, 0x00, 0x00,
                 ;
                 ;/* Code: 0x4C, ASCII Character: 'L' */
                 ;0x00, 0x00, 0x00, 0x01, 0x01, 0x01, 0x01, 0x01,
                 ;0x01, 0x01, 0x1F, 0x00, 0x00, 0x00,
                 ;
                 ;/* Code: 0x4D, ASCII Character: 'M' */
                 ;0x00, 0x00, 0x00, 0x41, 0x63, 0x63, 0x55, 0x55,
                 ;0x55, 0x49, 0x49, 0x00, 0x00, 0x00,
                 ;
                 ;/* Code: 0x4E, ASCII Character: 'N' */
                 ;0x00, 0x00, 0x00, 0x21, 0x23, 0x25, 0x25, 0x29,
                 ;0x29, 0x31, 0x21, 0x00, 0x00, 0x00,
                 ;
                 ;/* Code: 0x4F, ASCII Character: 'O' */
                 ;0x00, 0x00, 0x00, 0x1C, 0x22, 0x41, 0x41, 0x41,
                 ;0x41, 0x22, 0x1C, 0x00, 0x00, 0x00,
                 ;
                 ;/* Code: 0x50, ASCII Character: 'P' */
                 ;0x00, 0x00, 0x00, 0x0F, 0x11, 0x11, 0x11, 0x0F,
                 ;0x01, 0x01, 0x01, 0x00, 0x00, 0x00,
                 ;
                 ;/* Code: 0x51, ASCII Character: 'Q' */
                 ;0x00, 0x00, 0x00, 0x1C, 0x22, 0x41, 0x41, 0x41,
                 ;0x59, 0x22, 0x5C, 0x00, 0x00, 0x00,
                 ;
                 ;/* Code: 0x52, ASCII Character: 'R' */
                 ;0x00, 0x00, 0x00, 0x1F, 0x21, 0x21, 0x1F, 0x09,
                 ;0x11, 0x11, 0x21, 0x00, 0x00, 0x00,
                 ;
                 ;/* Code: 0x53, ASCII Character: 'S' */
                 ;0x00, 0x00, 0x00, 0x1E, 0x21, 0x01, 0x06, 0x18,
                 ;0x20, 0x21, 0x1E, 0x00, 0x00, 0x00,
                 ;
                 ;/* Code: 0x54, ASCII Character: 'T' */
                 ;0x00, 0x00, 0x00, 0x1F, 0x04, 0x04, 0x04, 0x04,
                 ;0x04, 0x04, 0x04, 0x00, 0x00, 0x00,
                 ;
                 ;/* Code: 0x55, ASCII Character: 'U' */
                 ;0x00, 0x00, 0x00, 0x21, 0x21, 0x21, 0x21, 0x21,
                 ;0x21, 0x21, 0x1E, 0x00, 0x00, 0x00,
                 ;
                 ;/* Code: 0x56, ASCII Character: 'V' */
                 ;0x00, 0x00, 0x00, 0x41, 0x41, 0x22, 0x22, 0x14,
                 ;0x14, 0x08, 0x08, 0x00, 0x00, 0x00,
                 ;
                 ;/* Code: 0x57, ASCII Character: 'W' */
                 ;0x00, 0x00, 0x00, 0x00, 0x00, 0x00, 0x21, 0x04,
                 ;0x51, 0x04, 0x52, 0x02, 0x52, 0x02, 0x8A, 0x02,
                 ;0x8A, 0x02, 0x04, 0x01, 0x04, 0x01, 0x00, 0x00,
                 ;0x00, 0x00, 0x00, 0x00,
                 ;
                 ;/* Code: 0x58, ASCII Character: 'X' */
                 ;0x00, 0x00, 0x00, 0x21, 0x12, 0x12, 0x0C, 0x0C,
                 ;0x12, 0x12, 0x21, 0x00, 0x00, 0x00,
                 ;
                 ;/* Code: 0x59, ASCII Character: 'Y' */
                 ;0x00, 0x00, 0x00, 0x41, 0x22, 0x22, 0x14, 0x08,
                 ;0x08, 0x08, 0x08, 0x00, 0x00, 0x00,
                 ;
                 ;/* Code: 0x5A, ASCII Character: 'Z' */
                 ;0x00, 0x00, 0x00, 0x3E, 0x10, 0x08, 0x08, 0x04,
                 ;0x04, 0x02, 0x3F, 0x00, 0x00, 0x00,
                 ;
                 ;/* Code: 0x5B, ASCII Character: '[' */
                 ;0x00, 0x00, 0x00, 0x03, 0x01, 0x01, 0x01, 0x01,
                 ;0x01, 0x01, 0x01, 0x01, 0x03, 0x00,
                 ;
                 ;/* Code: 0x5C, ASCII Character: '\' */
                 ;0x00, 0x00, 0x00, 0x01, 0x01, 0x02, 0x02, 0x02,
                 ;0x02, 0x04, 0x04, 0x00, 0x00, 0x00,
                 ;
                 ;/* Code: 0x5D, ASCII Character: ']' */
                 ;0x00, 0x00, 0x00, 0x03, 0x02, 0x02, 0x02, 0x02,
                 ;0x02, 0x02, 0x02, 0x02, 0x03, 0x00,
                 ;
                 ;/* Code: 0x5E, ASCII Character: '^' */
                 ;0x00, 0x00, 0x00, 0x04, 0x0A, 0x0A, 0x11, 0x00,
                 ;0x00, 0x00, 0x00, 0x00, 0x00, 0x00,
                 ;
                 ;/* Code: 0x5F, ASCII Character: '_' */
                 ;0x00, 0x00, 0x00, 0x00, 0x00, 0x00, 0x00, 0x00,
                 ;0x00, 0x00, 0x00, 0x00, 0x3F, 0x00,
                 ;
                 ;/* Code: 0x60, ASCII Character: '`' */
                 ;0x00, 0x00, 0x00, 0x01, 0x02, 0x00, 0x00, 0x00,
                 ;0x00, 0x00, 0x00, 0x00, 0x00, 0x00,
                 ;
                 ;/* Code: 0x61, ASCII Character: 'a' */
                 ;0x00, 0x00, 0x00, 0x00, 0x00, 0x0E, 0x11, 0x1E,
                 ;0x11, 0x19, 0x16, 0x00, 0x00, 0x00,
                 ;
                 ;/* Code: 0x62, ASCII Character: 'b' */
                 ;0x00, 0x00, 0x00, 0x01, 0x01, 0x0D, 0x13, 0x11,
                 ;0x11, 0x13, 0x0D, 0x00, 0x00, 0x00,
                 ;
                 ;/* Code: 0x63, ASCII Character: 'c' */
                 ;0x00, 0x00, 0x00, 0x00, 0x00, 0x0E, 0x11, 0x01,
                 ;0x01, 0x11, 0x0E, 0x00, 0x00, 0x00,
                 ;
                 ;/* Code: 0x64, ASCII Character: 'd' */
                 ;0x00, 0x00, 0x00, 0x10, 0x10, 0x16, 0x19, 0x11,
                 ;0x11, 0x19, 0x16, 0x00, 0x00, 0x00,
                 ;
                 ;/* Code: 0x65, ASCII Character: 'e' */
                 ;0x00, 0x00, 0x00, 0x00, 0x00, 0x0E, 0x11, 0x1F,
                 ;0x01, 0x11, 0x0E, 0x00, 0x00, 0x00,
                 ;
                 ;/* Code: 0x66, ASCII Character: 'f' */
                 ;0x00, 0x00, 0x00, 0x04, 0x02, 0x07, 0x02, 0x02,
                 ;0x02, 0x02, 0x02, 0x00, 0x00, 0x00,
                 ;
                 ;/* Code: 0x67, ASCII Character: 'g' */
                 ;0x00, 0x00, 0x00, 0x00, 0x00, 0x16, 0x19, 0x11,
                 ;0x11, 0x19, 0x16, 0x10, 0x0F, 0x00,
                 ;
                 ;/* Code: 0x68, ASCII Character: 'h' */
                 ;0x00, 0x00, 0x00, 0x01, 0x01, 0x0D, 0x13, 0x11,
                 ;0x11, 0x11, 0x11, 0x00, 0x00, 0x00,
                 ;
                 ;/* Code: 0x69, ASCII Character: 'i' */
                 ;0x00, 0x00, 0x00, 0x01, 0x00, 0x01, 0x01, 0x01,
                 ;0x01, 0x01, 0x01, 0x00, 0x00, 0x00,
                 ;
                 ;/* Code: 0x6A, ASCII Character: 'j' */
                 ;0x00, 0x00, 0x00, 0x02, 0x00, 0x02, 0x02, 0x02,
                 ;0x02, 0x02, 0x02, 0x02, 0x01, 0x00,
                 ;
                 ;/* Code: 0x6B, ASCII Character: 'k' */
                 ;0x00, 0x00, 0x00, 0x01, 0x01, 0x09, 0x05, 0x03,
                 ;0x05, 0x05, 0x09, 0x00, 0x00, 0x00,
                 ;
                 ;/* Code: 0x6C, ASCII Character: 'l' */
                 ;0x00, 0x00, 0x00, 0x01, 0x01, 0x01, 0x01, 0x01,
                 ;0x01, 0x01, 0x01, 0x00, 0x00, 0x00,
                 ;
                 ;/* Code: 0x6D, ASCII Character: 'm' */
                 ;0x00, 0x00, 0x00, 0x00, 0x00, 0x3D, 0x4B, 0x49,
                 ;0x49, 0x49, 0x49, 0x00, 0x00, 0x00,
                 ;
                 ;/* Code: 0x6E, ASCII Character: 'n' */
                 ;0x00, 0x00, 0x00, 0x00, 0x00, 0x0F, 0x11, 0x11,
                 ;0x11, 0x11, 0x11, 0x00, 0x00, 0x00,
                 ;
                 ;/* Code: 0x6F, ASCII Character: 'o' */
                 ;0x00, 0x00, 0x00, 0x00, 0x00, 0x0E, 0x11, 0x11,
                 ;0x11, 0x11, 0x0E, 0x00, 0x00, 0x00,
                 ;
                 ;/* Code: 0x70, ASCII Character: 'p' */
                 ;0x00, 0x00, 0x00, 0x00, 0x00, 0x0D, 0x13, 0x11,
                 ;0x11, 0x13, 0x0D, 0x01, 0x01, 0x00,
                 ;
                 ;/* Code: 0x71, ASCII Character: 'q' */
                 ;0x00, 0x00, 0x00, 0x00, 0x00, 0x16, 0x19, 0x11,
                 ;0x11, 0x19, 0x16, 0x10, 0x10, 0x00,
                 ;
                 ;/* Code: 0x72, ASCII Character: 'r' */
                 ;0x00, 0x00, 0x00, 0x00, 0x00, 0x05, 0x03, 0x01,
                 ;0x01, 0x01, 0x01, 0x00, 0x00, 0x00,
                 ;
                 ;/* Code: 0x73, ASCII Character: 's' */
                 ;0x00, 0x00, 0x00, 0x00, 0x00, 0x0E, 0x11, 0x06,
                 ;0x08, 0x11, 0x0E, 0x00, 0x00, 0x00,
                 ;
                 ;/* Code: 0x74, ASCII Character: 't' */
                 ;0x00, 0x00, 0x00, 0x02, 0x02, 0x07, 0x02, 0x02,
                 ;0x02, 0x02, 0x06, 0x00, 0x00, 0x00,
                 ;
                 ;/* Code: 0x75, ASCII Character: 'u' */
                 ;0x00, 0x00, 0x00, 0x00, 0x00, 0x11, 0x11, 0x11,
                 ;0x11, 0x19, 0x16, 0x00, 0x00, 0x00,
                 ;
                 ;/* Code: 0x76, ASCII Character: 'v' */
                 ;0x00, 0x00, 0x00, 0x00, 0x00, 0x11, 0x11, 0x0A,
                 ;0x0A, 0x04, 0x04, 0x00, 0x00, 0x00,
                 ;
                 ;/* Code: 0x77, ASCII Character: 'w' */
                 ;0x00, 0x00, 0x00, 0x00, 0x00, 0x00, 0x00, 0x00,
                 ;0x00, 0x00, 0x11, 0x01, 0x29, 0x01, 0xAA, 0x00,
                 ;0xAA, 0x00, 0x44, 0x00, 0x44, 0x00, 0x00, 0x00,
                 ;0x00, 0x00, 0x00, 0x00,
                 ;
                 ;/* Code: 0x78, ASCII Character: 'x' */
                 ;0x00, 0x00, 0x00, 0x00, 0x00, 0x11, 0x0A, 0x04,
                 ;0x04, 0x0A, 0x11, 0x00, 0x00, 0x00,
                 ;
                 ;/* Code: 0x79, ASCII Character: 'y' */
                 ;0x00, 0x00, 0x00, 0x00, 0x00, 0x11, 0x11, 0x0A,
                 ;0x0A, 0x04, 0x04, 0x04, 0x02, 0x00,
                 ;
                 ;/* Code: 0x7A, ASCII Character: 'z' */
                 ;0x00, 0x00, 0x00, 0x00, 0x00, 0x1F, 0x08, 0x04,
                 ;0x04, 0x02, 0x1F, 0x00, 0x00, 0x00,
                 ;
                 ;/* Code: 0x7B, ASCII Character: '{' */
                 ;0x00, 0x00, 0x00, 0x04, 0x02, 0x02, 0x02, 0x01,
                 ;0x02, 0x02, 0x02, 0x02, 0x04, 0x00,
                 ;
                 ;/* Code: 0x7C, ASCII Character: '|' */
                 ;0x00, 0x00, 0x00, 0x01, 0x01, 0x01, 0x01, 0x01,
                 ;0x01, 0x01, 0x01, 0x01, 0x01, 0x00,
                 ;
                 ;/* Code: 0x7D, ASCII Character: '}' */
                 ;0x00, 0x00, 0x00, 0x02, 0x04, 0x04, 0x04, 0x08,
                 ;0x04, 0x04, 0x04, 0x04, 0x02, 0x00,
                 ;
                 ;/* Code: 0x7E, ASCII Character: '~' */
                 ;0x00, 0x00, 0x00, 0x00, 0x00, 0x00, 0x17, 0x0D,
                 ;0x00, 0x00, 0x00, 0x00, 0x00, 0x00,
                 ;
                 ;/* Code: 0x7F, ASCII Character: '' */
                 ;0x00, 0x00, 0x00, 0x7E, 0x42, 0x42, 0x42, 0x42,
                 ;0x42, 0x42, 0x7E, 0x00, 0x00, 0x00,
                 ;
                 ;#else
                 ;/* Font data for displays organized as
                 ;   rows of vertical bytes */
                 ;
                 ;/* Code: 0x20, ASCII Character: ' ' */
                 ;0x00, 0x00, 0x00, 0x00, 0x00, 0x00, 0x00, 0x00,
                 ;0x00, 0x00,
                 ;
                 ;/* Code: 0x21, ASCII Character: '!' */
                 ;0xF8, 0x00, 0x05, 0x00,
                 ;
                 ;/* Code: 0x22, ASCII Character: '"' */
                 ;0x38, 0x00, 0x38, 0x00, 0x00, 0x00, 0x00, 0x00,
                 ;
                 ;/* Code: 0x23, ASCII Character: '#' */
                 ;0x20, 0xE0, 0x38, 0xE0, 0x38, 0x00, 0x07, 0x01,
                 ;0x07, 0x01, 0x01, 0x00,
                 ;
                 ;/* Code: 0x24, ASCII Character: '$' */
                 ;0x30, 0x48, 0xF8, 0x48, 0x90, 0x00, 0x02, 0x04,
                 ;0x0F, 0x04, 0x03, 0x00,
                 ;
                 ;/* Code: 0x25, ASCII Character: '%' */
                 ;0x30, 0x48, 0x48, 0x30, 0xC0, 0x30, 0x88, 0x80,
                 ;0x00, 0x00, 0x00, 0x00, 0x04, 0x03, 0x00, 0x03,
                 ;0x04, 0x04, 0x03, 0x00,
                 ;
                 ;/* Code: 0x26, ASCII Character: '&' */
                 ;0x00, 0xB0, 0x48, 0xC8, 0x30, 0x00, 0x00, 0x03,
                 ;0x04, 0x04, 0x04, 0x03, 0x05, 0x00,
                 ;
                 ;/* Code: 0x27, ASCII Character: ''' */
                 ;0x38, 0x00, 0x00, 0x00,
                 ;
                 ;/* Code: 0x28, ASCII Character: '(' */
                 ;0xE0, 0x10, 0x08, 0x00, 0x07, 0x08, 0x10, 0x00,
                 ;
                 ;/* Code: 0x29, ASCII Character: ')' */
                 ;0x08, 0x10, 0xE0, 0x00, 0x10, 0x08, 0x07, 0x00,
                 ;
                 ;/* Code: 0x2A, ASCII Character: '*' */
                 ;0x50, 0x38, 0x50, 0x00, 0x00, 0x00, 0x00, 0x00,
                 ;
                 ;/* Code: 0x2B, ASCII Character: '+' */
                 ;0x80, 0x80, 0xE0, 0x80, 0x80, 0x00, 0x00, 0x00,
                 ;0x03, 0x00, 0x00, 0x00,
                 ;
                 ;/* Code: 0x2C, ASCII Character: ',' */
                 ;0x00, 0x00, 0x00, 0x00, 0x1C, 0x00,
                 ;
                 ;/* Code: 0x2D, ASCII Character: '-' */
                 ;0x00, 0x00, 0x00, 0x00, 0x01, 0x01, 0x01, 0x00,
                 ;
                 ;/* Code: 0x2E, ASCII Character: '.' */
                 ;0x00, 0x00, 0x00, 0x00, 0x04, 0x00,
                 ;
                 ;/* Code: 0x2F, ASCII Character: '/' */
                 ;0x00, 0xE0, 0x18, 0x06, 0x01, 0x00,
                 ;
                 ;/* Code: 0x30, ASCII Character: '0' */
                 ;0xF0, 0x08, 0x08, 0x08, 0xF0, 0x00, 0x03, 0x04,
                 ;0x04, 0x04, 0x03, 0x00,
                 ;
                 ;/* Code: 0x31, ASCII Character: '1' */
                 ;0x20, 0x10, 0xF8, 0x00, 0x00, 0x00, 0x00, 0x00,
                 ;0x07, 0x00, 0x00, 0x00,
                 ;
                 ;/* Code: 0x32, ASCII Character: '2' */
                 ;0x10, 0x08, 0x08, 0x88, 0x70, 0x00, 0x04, 0x06,
                 ;0x05, 0x04, 0x04, 0x00,
                 ;
                 ;/* Code: 0x33, ASCII Character: '3' */
                 ;0x10, 0x08, 0x48, 0x48, 0xB0, 0x00, 0x02, 0x04,
                 ;0x04, 0x04, 0x03, 0x00,
                 ;
                 ;/* Code: 0x34, ASCII Character: '4' */
                 ;0x80, 0x60, 0x10, 0xF8, 0x00, 0x00, 0x01, 0x01,
                 ;0x01, 0x07, 0x01, 0x00,
                 ;
                 ;/* Code: 0x35, ASCII Character: '5' */
                 ;0x60, 0x58, 0x48, 0x48, 0x88, 0x00, 0x02, 0x04,
                 ;0x04, 0x04, 0x03, 0x00,
                 ;
                 ;/* Code: 0x36, ASCII Character: '6' */
                 ;0xF0, 0x48, 0x48, 0x48, 0x90, 0x00, 0x03, 0x04,
                 ;0x04, 0x04, 0x03, 0x00,
                 ;
                 ;/* Code: 0x37, ASCII Character: '7' */
                 ;0x08, 0x08, 0xC8, 0x38, 0x08, 0x00, 0x00, 0x07,
                 ;0x00, 0x00, 0x00, 0x00,
                 ;
                 ;/* Code: 0x38, ASCII Character: '8' */
                 ;0xB0, 0x48, 0x48, 0x48, 0xB0, 0x00, 0x03, 0x04,
                 ;0x04, 0x04, 0x03, 0x00,
                 ;
                 ;/* Code: 0x39, ASCII Character: '9' */
                 ;0x70, 0x88, 0x88, 0x88, 0xF0, 0x00, 0x02, 0x04,
                 ;0x04, 0x04, 0x03, 0x00,
                 ;
                 ;/* Code: 0x3A, ASCII Character: ':' */
                 ;0x20, 0x00, 0x00, 0x04, 0x00, 0x00,
                 ;
                 ;/* Code: 0x3B, ASCII Character: ';' */
                 ;0x20, 0x00, 0x00, 0x1C, 0x00, 0x00,
                 ;
                 ;/* Code: 0x3C, ASCII Character: '<' */
                 ;0x80, 0x40, 0x40, 0x40, 0x20, 0x00, 0x00, 0x01,
                 ;0x01, 0x01, 0x02, 0x00,
                 ;
                 ;/* Code: 0x3D, ASCII Character: '=' */
                 ;0x40, 0x40, 0x40, 0x40, 0x40, 0x00, 0x01, 0x01,
                 ;0x01, 0x01, 0x01, 0x00,
                 ;
                 ;/* Code: 0x3E, ASCII Character: '>' */
                 ;0x20, 0x40, 0x40, 0x40, 0x80, 0x00, 0x02, 0x01,
                 ;0x01, 0x01, 0x00, 0x00,
                 ;
                 ;/* Code: 0x3F, ASCII Character: '?' */
                 ;0x10, 0x08, 0x88, 0x48, 0x30, 0x00, 0x00, 0x00,
                 ;0x05, 0x00, 0x00, 0x00,
                 ;
                 ;/* Code: 0x40, ASCII Character: '@' */
                 ;0xC0, 0x30, 0x90, 0x48, 0x28, 0x28, 0xC8, 0x68,
                 ;0x10, 0xE0, 0x00, 0x07, 0x08, 0x13, 0x14, 0x14,
                 ;0x12, 0x17, 0x14, 0x12, 0x09, 0x00,
                 ;
                 ;/* Code: 0x41, ASCII Character: 'A' */
                 ;0x00, 0x80, 0x70, 0x08, 0x70, 0x80, 0x00, 0x00,
                 ;0x06, 0x01, 0x01, 0x01, 0x01, 0x01, 0x06, 0x00,
                 ;
                 ;/* Code: 0x42, ASCII Character: 'B' */
                 ;0xF8, 0x48, 0x48, 0x48, 0x48, 0xF0, 0x00, 0x07,
                 ;0x04, 0x04, 0x04, 0x04, 0x03, 0x00,
                 ;
                 ;/* Code: 0x43, ASCII Character: 'C' */
                 ;0xE0, 0x10, 0x08, 0x08, 0x08, 0x10, 0x00, 0x01,
                 ;0x02, 0x04, 0x04, 0x04, 0x02, 0x00,
                 ;
                 ;/* Code: 0x44, ASCII Character: 'D' */
                 ;0xF8, 0x08, 0x08, 0x08, 0x10, 0xE0, 0x00, 0x07,
                 ;0x04, 0x04, 0x04, 0x02, 0x01, 0x00,
                 ;
                 ;/* Code: 0x45, ASCII Character: 'E' */
                 ;0xF8, 0x48, 0x48, 0x48, 0x48, 0x00, 0x07, 0x04,
                 ;0x04, 0x04, 0x04, 0x00,
                 ;
                 ;/* Code: 0x46, ASCII Character: 'F' */
                 ;0xF8, 0x48, 0x48, 0x48, 0x08, 0x00, 0x07, 0x00,
                 ;0x00, 0x00, 0x00, 0x00,
                 ;
                 ;/* Code: 0x47, ASCII Character: 'G' */
                 ;0xE0, 0x10, 0x08, 0x08, 0x88, 0x90, 0xA0, 0x00,
                 ;0x01, 0x02, 0x04, 0x04, 0x04, 0x02, 0x01, 0x00,
                 ;
                 ;/* Code: 0x48, ASCII Character: 'H' */
                 ;0xF8, 0x40, 0x40, 0x40, 0x40, 0xF8, 0x00, 0x07,
                 ;0x00, 0x00, 0x00, 0x00, 0x07, 0x00,
                 ;
                 ;/* Code: 0x49, ASCII Character: 'I' */
                 ;0xF8, 0x00, 0x07, 0x00,
                 ;
                 ;/* Code: 0x4A, ASCII Character: 'J' */
                 ;0x00, 0x00, 0x00, 0xF8, 0x00, 0x03, 0x04, 0x04,
                 ;0x03, 0x00,
                 ;
                 ;/* Code: 0x4B, ASCII Character: 'K' */
                 ;0xF8, 0x80, 0x40, 0xE0, 0x10, 0x08, 0x00, 0x07,
                 ;0x00, 0x00, 0x00, 0x03, 0x04, 0x00,
                 ;
                 ;/* Code: 0x4C, ASCII Character: 'L' */
                 ;0xF8, 0x00, 0x00, 0x00, 0x00, 0x00, 0x07, 0x04,
                 ;0x04, 0x04, 0x04, 0x00,
                 ;
                 ;/* Code: 0x4D, ASCII Character: 'M' */
                 ;0xF8, 0x30, 0xC0, 0x00, 0xC0, 0x30, 0xF8, 0x00,
                 ;0x07, 0x00, 0x01, 0x06, 0x01, 0x00, 0x07, 0x00,
                 ;
                 ;/* Code: 0x4E, ASCII Character: 'N' */
                 ;0xF8, 0x10, 0x60, 0x80, 0x00, 0xF8, 0x00, 0x07,
                 ;0x00, 0x00, 0x01, 0x02, 0x07, 0x00,
                 ;
                 ;/* Code: 0x4F, ASCII Character: 'O' */
                 ;0xE0, 0x10, 0x08, 0x08, 0x08, 0x10, 0xE0, 0x00,
                 ;0x01, 0x02, 0x04, 0x04, 0x04, 0x02, 0x01, 0x00,
                 ;
                 ;/* Code: 0x50, ASCII Character: 'P' */
                 ;0xF8, 0x88, 0x88, 0x88, 0x70, 0x00, 0x07, 0x00,
                 ;0x00, 0x00, 0x00, 0x00,
                 ;
                 ;/* Code: 0x51, ASCII Character: 'Q' */
                 ;0xE0, 0x10, 0x08, 0x08, 0x08, 0x10, 0xE0, 0x00,
                 ;0x01, 0x02, 0x04, 0x05, 0x05, 0x02, 0x05, 0x00,
                 ;
                 ;/* Code: 0x52, ASCII Character: 'R' */
                 ;0xF8, 0x48, 0x48, 0xC8, 0x48, 0x30, 0x00, 0x07,
                 ;0x00, 0x00, 0x00, 0x03, 0x04, 0x00,
                 ;
                 ;/* Code: 0x53, ASCII Character: 'S' */
                 ;0x30, 0x48, 0x48, 0x88, 0x88, 0x10, 0x00, 0x02,
                 ;0x04, 0x04, 0x04, 0x04, 0x03, 0x00,
                 ;
                 ;/* Code: 0x54, ASCII Character: 'T' */
                 ;0x08, 0x08, 0xF8, 0x08, 0x08, 0x00, 0x00, 0x00,
                 ;0x07, 0x00, 0x00, 0x00,
                 ;
                 ;/* Code: 0x55, ASCII Character: 'U' */
                 ;0xF8, 0x00, 0x00, 0x00, 0x00, 0xF8, 0x00, 0x03,
                 ;0x04, 0x04, 0x04, 0x04, 0x03, 0x00,
                 ;
                 ;/* Code: 0x56, ASCII Character: 'V' */
                 ;0x18, 0x60, 0x80, 0x00, 0x80, 0x60, 0x18, 0x00,
                 ;0x00, 0x00, 0x01, 0x06, 0x01, 0x00, 0x00, 0x00,
                 ;
                 ;/* Code: 0x57, ASCII Character: 'W' */
                 ;0x18, 0xE0, 0x00, 0x80, 0x70, 0x08, 0x70, 0x80,
                 ;0x00, 0xE0, 0x18, 0x00, 0x01, 0x06, 0x01, 0x00,
                 ;0x00, 0x00, 0x01, 0x06, 0x01, 0x00,
                 ;
                 ;/* Code: 0x58, ASCII Character: 'X' */
                 ;0x08, 0x30, 0xC0, 0xC0, 0x30, 0x08, 0x00, 0x04,
                 ;0x03, 0x00, 0x00, 0x03, 0x04, 0x00,
                 ;
                 ;/* Code: 0x59, ASCII Character: 'Y' */
                 ;0x08, 0x30, 0x40, 0x80, 0x40, 0x30, 0x08, 0x00,
                 ;0x00, 0x00, 0x00, 0x07, 0x00, 0x00, 0x00, 0x00,
                 ;
                 ;/* Code: 0x5A, ASCII Character: 'Z' */
                 ;0x00, 0x08, 0x88, 0x68, 0x18, 0x08, 0x00, 0x04,
                 ;0x06, 0x05, 0x04, 0x04, 0x04, 0x00,
                 ;
                 ;/* Code: 0x5B, ASCII Character: '[' */
                 ;0xF8, 0x08, 0x00, 0x1F, 0x10, 0x00,
                 ;
                 ;/* Code: 0x5C, ASCII Character: '\' */
                 ;0x18, 0xE0, 0x00, 0x00, 0x01, 0x06,
                 ;
                 ;/* Code: 0x5D, ASCII Character: ']' */
                 ;0x08, 0xF8, 0x00, 0x10, 0x1F, 0x00,
                 ;
                 ;/* Code: 0x5E, ASCII Character: '^' */
                 ;0x40, 0x30, 0x08, 0x30, 0x40, 0x00, 0x00, 0x00,
                 ;0x00, 0x00,
                 ;
                 ;/* Code: 0x5F, ASCII Character: '_' */
                 ;0x00, 0x00, 0x00, 0x00, 0x00, 0x00, 0x10, 0x10,
                 ;0x10, 0x10, 0x10, 0x10,
                 ;
                 ;/* Code: 0x60, ASCII Character: '`' */
                 ;0x08, 0x10, 0x00, 0x00, 0x00, 0x00, 0x00, 0x00,
                 ;
                 ;/* Code: 0x61, ASCII Character: 'a' */
                 ;0x40, 0xA0, 0xA0, 0xA0, 0xC0, 0x00, 0x03, 0x04,
                 ;0x04, 0x02, 0x07, 0x00,
                 ;
                 ;/* Code: 0x62, ASCII Character: 'b' */
                 ;0xF8, 0x40, 0x20, 0x20, 0xC0, 0x00, 0x07, 0x02,
                 ;0x04, 0x04, 0x03, 0x00,
                 ;
                 ;/* Code: 0x63, ASCII Character: 'c' */
                 ;0xC0, 0x20, 0x20, 0x20, 0x40, 0x00, 0x03, 0x04,
                 ;0x04, 0x04, 0x02, 0x00,
                 ;
                 ;/* Code: 0x64, ASCII Character: 'd' */
                 ;0xC0, 0x20, 0x20, 0x40, 0xF8, 0x00, 0x03, 0x04,
                 ;0x04, 0x02, 0x07, 0x00,
                 ;
                 ;/* Code: 0x65, ASCII Character: 'e' */
                 ;0xC0, 0xA0, 0xA0, 0xA0, 0xC0, 0x00, 0x03, 0x04,
                 ;0x04, 0x04, 0x02, 0x00,
                 ;
                 ;/* Code: 0x66, ASCII Character: 'f' */
                 ;0x20, 0xF0, 0x28, 0x00, 0x00, 0x07, 0x00, 0x00,
                 ;
                 ;/* Code: 0x67, ASCII Character: 'g' */
                 ;0xC0, 0x20, 0x20, 0x40, 0xE0, 0x00, 0x13, 0x14,
                 ;0x14, 0x12, 0x0F, 0x00,
                 ;
                 ;/* Code: 0x68, ASCII Character: 'h' */
                 ;0xF8, 0x40, 0x20, 0x20, 0xC0, 0x00, 0x07, 0x00,
                 ;0x00, 0x00, 0x07, 0x00,
                 ;
                 ;/* Code: 0x69, ASCII Character: 'i' */
                 ;0xE8, 0x00, 0x07, 0x00,
                 ;
                 ;/* Code: 0x6A, ASCII Character: 'j' */
                 ;0x00, 0xE8, 0x10, 0x0F,
                 ;
                 ;/* Code: 0x6B, ASCII Character: 'k' */
                 ;0xF8, 0x80, 0x40, 0x20, 0x00, 0x07, 0x00, 0x03,
                 ;0x04, 0x00,
                 ;
                 ;/* Code: 0x6C, ASCII Character: 'l' */
                 ;0xF8, 0x00, 0x07, 0x00,
                 ;
                 ;/* Code: 0x6D, ASCII Character: 'm' */
                 ;0xE0, 0x40, 0x20, 0xE0, 0x20, 0x20, 0xC0, 0x00,
                 ;0x07, 0x00, 0x00, 0x07, 0x00, 0x00, 0x07, 0x00,
                 ;
                 ;/* Code: 0x6E, ASCII Character: 'n' */
                 ;0xE0, 0x20, 0x20, 0x20, 0xC0, 0x00, 0x07, 0x00,
                 ;0x00, 0x00, 0x07, 0x00,
                 ;
                 ;/* Code: 0x6F, ASCII Character: 'o' */
                 ;0xC0, 0x20, 0x20, 0x20, 0xC0, 0x00, 0x03, 0x04,
                 ;0x04, 0x04, 0x03, 0x00,
                 ;
                 ;/* Code: 0x70, ASCII Character: 'p' */
                 ;0xE0, 0x40, 0x20, 0x20, 0xC0, 0x00, 0x1F, 0x02,
                 ;0x04, 0x04, 0x03, 0x00,
                 ;
                 ;/* Code: 0x71, ASCII Character: 'q' */
                 ;0xC0, 0x20, 0x20, 0x40, 0xE0, 0x00, 0x03, 0x04,
                 ;0x04, 0x02, 0x1F, 0x00,
                 ;
                 ;/* Code: 0x72, ASCII Character: 'r' */
                 ;0xE0, 0x40, 0x20, 0x00, 0x07, 0x00, 0x00, 0x00,
                 ;
                 ;/* Code: 0x73, ASCII Character: 's' */
                 ;0x40, 0xA0, 0xA0, 0x20, 0x40, 0x00, 0x02, 0x04,
                 ;0x04, 0x05, 0x02, 0x00,
                 ;
                 ;/* Code: 0x74, ASCII Character: 't' */
                 ;0x20, 0xF8, 0x20, 0x00, 0x07, 0x04,
                 ;
                 ;/* Code: 0x75, ASCII Character: 'u' */
                 ;0xE0, 0x00, 0x00, 0x00, 0xE0, 0x00, 0x03, 0x04,
                 ;0x04, 0x02, 0x07, 0x00,
                 ;
                 ;/* Code: 0x76, ASCII Character: 'v' */
                 ;0x60, 0x80, 0x00, 0x80, 0x60, 0x00, 0x00, 0x01,
                 ;0x06, 0x01, 0x00, 0x00,
                 ;
                 ;/* Code: 0x77, ASCII Character: 'w' */
                 ;0x60, 0x80, 0x00, 0xC0, 0x20, 0xC0, 0x00, 0x80,
                 ;0x60, 0x00, 0x00, 0x01, 0x06, 0x01, 0x00, 0x01,
                 ;0x06, 0x01, 0x00, 0x00,
                 ;
                 ;/* Code: 0x78, ASCII Character: 'x' */
                 ;0x20, 0x40, 0x80, 0x40, 0x20, 0x00, 0x04, 0x02,
                 ;0x01, 0x02, 0x04, 0x00,
                 ;
                 ;/* Code: 0x79, ASCII Character: 'y' */
                 ;0x60, 0x80, 0x00, 0x80, 0x60, 0x00, 0x00, 0x11,
                 ;0x0E, 0x01, 0x00, 0x00,
                 ;
                 ;/* Code: 0x7A, ASCII Character: 'z' */
                 ;0x20, 0x20, 0xA0, 0x60, 0x20, 0x00, 0x04, 0x06,
                 ;0x05, 0x04, 0x04, 0x00,
                 ;
                 ;/* Code: 0x7B, ASCII Character: '{' */
                 ;0x80, 0x70, 0x08, 0x00, 0x00, 0x0F, 0x10, 0x00,
                 ;
                 ;/* Code: 0x7C, ASCII Character: '|' */
                 ;0xF8, 0x00, 0x1F, 0x00,
                 ;
                 ;/* Code: 0x7D, ASCII Character: '}' */
                 ;0x00, 0x08, 0x70, 0x80, 0x00, 0x10, 0x0F, 0x00,
                 ;
                 ;/* Code: 0x7E, ASCII Character: '~' */
                 ;0xC0, 0x40, 0xC0, 0x80, 0x40, 0x00, 0x00, 0x00,
                 ;0x00, 0x00, 0x00, 0x00,
                 ;
                 ;/* Code: 0x7F, ASCII Character: '' */
                 ;0x00, 0xF8, 0x08, 0x08, 0x08, 0x08, 0xF8, 0x00,
                 ;0x00, 0x07, 0x04, 0x04, 0x04, 0x04, 0x07, 0x00,
                 ;
                 ;#endif
                 ;};
                 ;
                 ;//-----------------------------------------------------------------------------
                 ;// Copyright:      RAD Electronic Co. LTD,
                 ;// Author:         jaruwit supa, Base on FontEditor written by H. Reddmann
                 ;//								 Modified by Sh. Nourbakhsh Rad for Persian and Arabic font
                 ;//								 and fixed some errors
                 ;// Remarks:
                 ;// known Problems: none
                 ;// Version:        3.3.0
                 ;// Description:    Font Library
                 ;//-----------------------------------------------------------------------------
                 ;
                 ;#include "Font.h"
                 	#ifndef __SLEEP_DEFINED__
                 	#endif
                 ;#if (PersianSupport ==1)
                 ;	#include "PE_Map.h"
                 ;#endif
                 ;
                 ;
                 ;const unsigned char 	   *FontPointer; 									// Font	Pointer
                 ;
                 ;
                 ;unsigned char 						rot 						= 0;					// Rot 0=0, 1=90
                 ;unsigned char 						Reverse					= 0;					// Reverse text direction on the display
                 ;unsigned char							Horizontal			=	1;					// 1: Portrait - 240x320 ,   2: Landscape - 320x240
                 
                 	.DSEG
                 ;
                 ;unsigned short 						FgColor 				= BLACK;			// Text fg color, 5-6-5 RGB
                 ;unsigned short 						BkColor 				= WHITE;			// Text bk color, 5-6-5 RGB
                 ;unsigned char 						FontFixed				= 0;					// Text type 0=Proportional , 1=Fixed
                 ;unsigned char							NonTransparence = 0;					// Transparent 0=No, 1=Yes
                 ;
                 ;unsigned short 						fontSize;											// size of current font
                 ;unsigned char 						firstchar;										// first character noumber of current font
                 ;unsigned char 						lastchar;											// last character noumber of current font
                 ;unsigned char 						charwidth;										// current character width register
                 ;
                 ;unsigned char							FontWidth;										// max width of font
                 ;unsigned char							FontHeight;										// max height of font
                 ;unsigned char 						FontXScale 			= 1;					// X size of font
                 ;unsigned char 						FontYScale 			= 1;					// Y size of font
                 ;
                 ;unsigned char 						FontSpaceX 			= 1;					// space between char
                 ;unsigned char 						FontSpaceY			= 0;					// space between lines
                 ;
                 ;unsigned int 							cursorX 				= 0;					// x position
                 ;unsigned int 							cursorY 				= 0;					// y position
                 ;
                 ;#if (PersianSupport ==1)
                 ;	Lt_Mode									peLETTER				= E_LETTER;		// English or Persian letter
                 ;#endif
                 ;
                 ;unsigned char 						prevLet 				= 0xFF;				// previous persian character register
                 ;unsigned char	 						nextLet 				= 0xFF; 			// next persian character register
                 ;
                 ;
                 ;//*************************************************
                 ;//******************* Functions *******************
                 ;//*************************************************
                 ;
                 ;
                 ;void PutCharEN(unsigned char c)
                 ; 0002 003C {
                 
                 	.CSEG
                 _PutCharEN:
                 ; .FSTART _PutCharEN
                 ; 0002 003D 	unsigned char 			byte 					= 0;
                 ; 0002 003E 	unsigned char 			bitoffset 		= 0;
                 ; 0002 003F 	unsigned char 			maske 				= 0;
                 ; 0002 0040 	unsigned short 			bcounter 			= 0;
                 ; 0002 0041 	unsigned short 			bitsbischar 	= 0;
                 ; 0002 0042 	unsigned short 			bytesbischar	= 0;
                 ; 0002 0043 	unsigned short 			xPos, yPos;
                 ; 0002 0044 
                 ; 0002 0045 	unsigned char 			Ccounter 			= 0;
                 ; 0002 0046 	unsigned char 			xc						= 0;
                 ; 0002 0047 	unsigned char 			yc						= 0;
                 ; 0002 0048 	unsigned char 			sx 						= 0;
                 ; 0002 0049 	unsigned char 			sy 						= 0;
                 ; 0002 004A 
                 ; 0002 004B    // get current character width
                 ; 0002 004C 	charwidth	= pgm_read_byte(&FontPointer[(unsigned int)(c)+FONT_HEADER_SIZE-firstchar]);
000c4e 93aa      	ST   -Y,R26
000c4f 972c      	SBIW R28,12
000c50 e08c      	LDI  R24,12
000c51 e0a0      	LDI  R26,LOW(0)
000c52 e0b0      	LDI  R27,HIGH(0)
000c53 eaee      	LDI  R30,LOW(_0x4000A*2)
000c54 e1f4      	LDI  R31,HIGH(_0x4000A*2)
000c55 940e 2165 	CALL __INITLOCB
000c57 940e 1b65 	CALL SUBOPT_0xB
                 ;	c -> Y+18
                 ;	byte -> R17
                 ;	bitoffset -> R16
                 ;	maske -> R19
                 ;	bcounter -> R20,R21
                 ;	bitsbischar -> Y+16
                 ;	bytesbischar -> Y+14
                 ;	xPos -> Y+12
                 ;	yPos -> Y+10
                 ;	Ccounter -> R18
                 ;	xc -> Y+9
                 ;	yc -> Y+8
                 ;	sx -> Y+7
                 ;	sy -> Y+6
                 ; 0002 004D 
                 ; 0002 004E 	// line feed, goto next line
                 ; 0002 004F 	if(c == '\n')
000c59 f429      	BRNE _0x4000B
                 ; 0002 0050 	{
                 ; 0002 0051 		cursorX = 0;
000c5a 940e 1b84 	CALL SUBOPT_0xC
                 ; 0002 0052 		cursorY += (unsigned int)(FontHeight +FontSpaceY)*FontYScale;
000c5c 940e 1b8a 	CALL SUBOPT_0xD
                 ; 0002 0053 
                 ; 0002 0054 		return;
000c5e c1bc      	RJMP _0x2160017
                 ; 0002 0055 	}
                 ; 0002 0056 
                 ; 0002 0057 	// character out of range.
                 ; 0002 0058   if( (c < firstchar) || (c > lastchar) || (fontSize == 0))
                 _0x4000B:
000c5f 91e0 0322 	LDS  R30,_firstchar
000c61 89aa      	LDD  R26,Y+18
000c62 17ae      	CP   R26,R30
000c63 f050      	BRLO _0x4000D
000c64 91e0 0323 	LDS  R30,_lastchar
000c66 17ea      	CP   R30,R26
000c67 f030      	BRLO _0x4000D
000c68 91a0 0320 	LDS  R26,_fontSize
000c6a 91b0 0321 	LDS  R27,_fontSize+1
000c6c 9710      	SBIW R26,0
000c6d f409      	BRNE _0x4000C
                 _0x4000D:
                 ; 0002 0059   	return;
000c6e c1ac      	RJMP _0x2160017
                 ; 0002 005A 
                 ; 0002 005B 	// character is not in list.
                 ; 0002 005C 	if (charwidth == 0)
                 _0x4000C:
000c6f 91e0 0324 	LDS  R30,_charwidth
000c71 30e0      	CPI  R30,0
000c72 f409      	BRNE _0x4000F
                 ; 0002 005D 		return;
000c73 c1a7      	RJMP _0x2160017
                 ; 0002 005E 
                 ; 0002 005F 	// sara thai font. line remain at last position
                 ; 0002 0060 	if(FontFixed)
                 _0x4000F:
000c74 91e0 02d2 	LDS  R30,_FontFixed
000c76 30e0      	CPI  R30,0
000c77 f029      	BREQ _0x40010
                 ; 0002 0061 		charwidth = FontWidth;
000c78 91e0 02d4 	LDS  R30,_FontWidth
000c7a 93e0 0324 	STS  _charwidth,R30
                 ; 0002 0062 	else
000c7c c013      	RJMP _0x40011
                 _0x40010:
                 ; 0002 0063 	{
                 ; 0002 0064 		//english special fonts!
                 ; 0002 0065 		if (((c >= 0xd4) && (c <= 0xda)) ||
                 ; 0002 0066 	  	  ((c >= 0xe7) && (c <= 0xec)) ||
                 ; 0002 0067 				 (c == 0xd1))
000c7d 89aa      	LDD  R26,Y+18
000c7e 3da4      	CPI  R26,LOW(0xD4)
000c7f f010      	BRLO _0x40013
000c80 3dab      	CPI  R26,LOW(0xDB)
000c81 f040      	BRLO _0x40015
                 _0x40013:
000c82 89aa      	LDD  R26,Y+18
000c83 3ea7      	CPI  R26,LOW(0xE7)
000c84 f010      	BRLO _0x40016
000c85 3ead      	CPI  R26,LOW(0xED)
000c86 f018      	BRLO _0x40015
                 _0x40016:
000c87 89aa      	LDD  R26,Y+18
000c88 3da1      	CPI  R26,LOW(0xD1)
000c89 f431      	BRNE _0x40012
                 _0x40015:
                 ; 0002 0068 		{
                 ; 0002 0069 			cursorX = cursorX - (unsigned int)charwidth * FontXScale;
000c8a 940e 1ba2 	CALL SUBOPT_0xE
000c8c 940e 1ba9 	CALL SUBOPT_0xF
000c8e 940e 1bb0 	CALL SUBOPT_0x10
                 ; 0002 006A 		}
                 ; 0002 006B 	}
                 _0x40012:
                 _0x40011:
                 ; 0002 006C 
                 ; 0002 006D 	// fixed width for digit
                 ; 0002 006E  	if((c >= '0') && (c <= '9'))		// english : 0 to 9
000c90 89aa      	LDD  R26,Y+18
000c91 33a0      	CPI  R26,LOW(0x30)
000c92 f010      	BRLO _0x4001A
000c93 33aa      	CPI  R26,LOW(0x3A)
000c94 f008      	BRLO _0x4001B
                 _0x4001A:
000c95 c00c      	RJMP _0x40019
                 _0x4001B:
                 ; 0002 006F 		charwidth = pgm_read_byte(&FontPointer[(unsigned int)(FONT_HEADER_SIZE)+'0'-firstchar]);		//width reference = ZERO
000c96 91e0 0322 	LDS  R30,_firstchar
000c98 e0f0      	LDI  R31,0
000c99 e3a7      	LDI  R26,LOW(55)
000c9a e0b0      	LDI  R27,HIGH(55)
000c9b 940e 1bb7 	CALL SUBOPT_0x11
000c9d 940e 1bbc 	CALL SUBOPT_0x12
000c9f 9004      	LPM  R0,Z
000ca0 9200 0324 	STS  _charwidth,R0
                 ; 0002 0070 
                 ; 0002 0071 	// line adjust
                 ; 0002 0072 	if(((int)cursorX + charwidth * FontXScale) > GetMaxX())
                 _0x40019:
000ca2 940e 1ba2 	CALL SUBOPT_0xE
000ca4 940e 1bc3 	CALL SUBOPT_0x13
000ca6 0fae      	ADD  R26,R30
000ca7 1fbf      	ADC  R27,R31
000ca8 38a0      	CPI  R26,LOW(0x80)
000ca9 e0e0      	LDI  R30,HIGH(0x80)
000caa 07be      	CPC  R27,R30
000cab f024      	BRLT _0x4001C
                 ; 0002 0073 	{
                 ; 0002 0074 		cursorY = cursorY + (unsigned int)FontHeight * FontYScale;
000cac 940e 1bca 	CALL SUBOPT_0x14
                 ; 0002 0075 		cursorX = 0;
000cae 940e 1b84 	CALL SUBOPT_0xC
                 ; 0002 0076 	}
                 ; 0002 0077 
                 ; 0002 0078 	// calculate current character position on the table
                 ; 0002 0079 	for(Ccounter = 0; Ccounter < c-firstchar; Ccounter++)
                 _0x4001C:
000cb0 e020      	LDI  R18,LOW(0)
                 _0x4001E:
000cb1 940e 1bdd 	CALL SUBOPT_0x15
000cb3 2fa2      	MOV  R26,R18
000cb4 e0b0      	LDI  R27,0
000cb5 17ae      	CP   R26,R30
000cb6 07bf      	CPC  R27,R31
000cb7 f44c      	BRGE _0x4001F
                 ; 0002 007A 		bitsbischar += (pgm_read_byte(&FontPointer[(unsigned int)(Ccounter)+FONT_HEADER_SIZE]));	//c0_width +...+ cn_width
000cb8 2fe2      	MOV  R30,R18
000cb9 e0f0      	LDI  R31,0
000cba 9637      	ADIW R30,7
000cbb 940e 1bbc 	CALL SUBOPT_0x12
000cbd 940e 1be3 	CALL SUBOPT_0x16
000cbf 5f2f      	SUBI R18,-1
000cc0 cff0      	RJMP _0x4001E
                 _0x4001F:
                 ; 0002 007D bitsbischar 		*= FontHeight;
000cc1 940e 1bec 	CALL SUBOPT_0x17
                 ; 0002 007E 	bitsbischar 		+= (((unsigned short)(lastchar)-firstchar)+FONT_HEADER_SIZE)*8;		//plus font headers
000cc3 940e 1bfc 	CALL SUBOPT_0x18
                 ; 0002 007F 	bytesbischar 		 = bitsbischar/8;																//
                 ; 0002 0080 	bitoffset 			 = bitsbischar % 8;															//
                 ; 0002 0081 	maske						 = bitoffset % 8;																//
                 ; 0002 0082 
                 ; 0002 0083 	// draw character
                 ; 0002 0084 	for(xc = 0; xc < charwidth; xc++)
                 _0x40021:
000cc5 91e0 0324 	LDS  R30,_charwidth
000cc7 85a9      	LDD  R26,Y+9
000cc8 17ae      	CP   R26,R30
000cc9 f008      	BRLO PC+2
000cca c074      	RJMP _0x40022
                 ; 0002 0085 	{
                 ; 0002 0086 		for(yc = 0; yc < FontHeight; yc++)
000ccb e0e0      	LDI  R30,LOW(0)
000ccc 87e8      	STD  Y+8,R30
                 _0x40024:
000ccd 91e0 02d5 	LDS  R30,_FontHeight
000ccf 85a8      	LDD  R26,Y+8
000cd0 17ae      	CP   R26,R30
000cd1 f008      	BRLO PC+2
000cd2 c068      	RJMP _0x40025
                 ; 0002 0087 		{
                 ; 0002 0088 			if(maske > 7)
000cd3 3038      	CPI  R19,8
000cd4 f018      	BRLO _0x40026
                 ; 0002 0089 			{
                 ; 0002 008A 				maske = 0;
000cd5 e030      	LDI  R19,LOW(0)
                 ; 0002 008B 				bcounter += 1;
                +
000cd6 5f4f     +SUBI R20 , LOW ( - 1 )
000cd7 4f5f     +SBCI R21 , HIGH ( - 1 )
                 	__ADDWRN 20,21,1
                 ; 0002 008C 			}
                 ; 0002 008D 			byte = pgm_read_byte(&FontPointer[bytesbischar + bcounter + 1]);
                 _0x40026:
000cd8 940e 1c15 	CALL SUBOPT_0x19
000cda 940e 1c1c 	CALL SUBOPT_0x1A
                 ; 0002 008E 
                 ; 0002 008F 			xPos = (unsigned short)xc*FontXScale + cursorX;
000cdc 940e 1c23 	CALL SUBOPT_0x1B
                 ; 0002 0090 
                 ; 0002 0091 			if(Horizontal)	//128x64
000cde f071      	BREQ _0x40027
                 ; 0002 0092 			{
                 ; 0002 0093 				if(Reverse)
000cdf 91e0 02cc 	LDS  R30,_Reverse
000ce1 30e0      	CPI  R30,0
000ce2 f019      	BREQ _0x40028
                 ; 0002 0094 					yPos = (((unsigned short)FontHeight-yc)*FontYScale + cursorY);
000ce3 940e 1c2b 	CALL SUBOPT_0x1C
000ce5 c002      	RJMP _0x40100
                 ; 0002 0095 				else
                 _0x40028:
                 ; 0002 0096 					yPos = (((unsigned short)yc)*FontYScale + cursorY);
000ce6 85a8      	LDD  R26,Y+8
000ce7 27bb      	CLR  R27
                 _0x40100:
000ce8 91e0 02d7 	LDS  R30,_FontYScale
000cea 940e 1c33 	CALL SUBOPT_0x1D
                 ; 0002 0097 			}
                 ; 0002 0098 			else						//64x128
000cec c00d      	RJMP _0x4002A
                 _0x40027:
                 ; 0002 0099 			{
                 ; 0002 009A 				if(Reverse)
000ced 91e0 02cc 	LDS  R30,_Reverse
000cef 30e0      	CPI  R30,0
000cf0 f019      	BREQ _0x4002B
                 ; 0002 009B 					yPos = (((unsigned short)FontHeight-yc)*FontYScale + cursorY);
000cf1 940e 1c2b 	CALL SUBOPT_0x1C
000cf3 c002      	RJMP _0x40101
                 ; 0002 009C 				else
                 _0x4002B:
                 ; 0002 009D 					yPos = (((unsigned short)yc)*FontYScale + cursorY);
000cf4 85a8      	LDD  R26,Y+8
000cf5 27bb      	CLR  R27
                 _0x40101:
000cf6 91e0 02d7 	LDS  R30,_FontYScale
000cf8 940e 1c33 	CALL SUBOPT_0x1D
                 ; 0002 009E 
                 ; 0002 009F 			}	//Horizontal
                 _0x4002A:
                 ; 0002 00A0 
                 ; 0002 00A1 			for(sx = 0; sx < FontXScale; sx++)
000cfa e0e0      	LDI  R30,LOW(0)
000cfb 83ef      	STD  Y+7,R30
                 _0x4002E:
000cfc 91e0 02d6 	LDS  R30,_FontXScale
000cfe 81af      	LDD  R26,Y+7
000cff 17ae      	CP   R26,R30
000d00 f5a8      	BRSH _0x4002F
                 ; 0002 00A2 			{
                 ; 0002 00A3 				for(sy = 0; sy < FontYScale; sy++)
000d01 e0e0      	LDI  R30,LOW(0)
000d02 83ee      	STD  Y+6,R30
                 _0x40031:
000d03 91e0 02d7 	LDS  R30,_FontYScale
000d05 81ae      	LDD  R26,Y+6
000d06 17ae      	CP   R26,R30
000d07 f550      	BRSH _0x40032
                 ; 0002 00A4 				{
                 ; 0002 00A5 					if(bit_is_set(byte, maske))
000d08 940e 1c3f 	CALL SUBOPT_0x1E
000d0a f081      	BREQ _0x40033
                 ; 0002 00A6 					{
                 ; 0002 00A7 						if(rot)		PutPixel(yPos+sy, xPos+sx, FgColor);
000d0b 91e0 02cb 	LDS  R30,_rot
000d0d 30e0      	CPI  R30,0
000d0e f019      	BREQ _0x40034
000d0f 940e 1c4a 	CALL SUBOPT_0x1F
000d11 c002      	RJMP _0x40102
                 ; 0002 00A8 						else			PutPixel(xPos+sx, yPos+sy, FgColor);
                 _0x40034:
000d12 940e 1c51 	CALL SUBOPT_0x20
                 _0x40102:
000d14 0fea      	ADD  R30,R26
000d15 93ea      	ST   -Y,R30
000d16 91a0 02ce 	LDS  R26,_FgColor
000d18 940e 1159 	CALL _glcd_putpixel
                 ; 0002 00A9 					}
                 ; 0002 00AA 					else
000d1a c013      	RJMP _0x40036
                 _0x40033:
                 ; 0002 00AB 					{
                 ; 0002 00AC 						if(NonTransparence)
000d1b 91e0 02d3 	LDS  R30,_NonTransparence
000d1d 30e0      	CPI  R30,0
000d1e f079      	BREQ _0x40037
                 ; 0002 00AD 						{
                 ; 0002 00AE 							if(rot)		PutPixel(yPos+sy, xPos+sx, BkColor);
000d1f 91e0 02cb 	LDS  R30,_rot
000d21 30e0      	CPI  R30,0
000d22 f019      	BREQ _0x40038
000d23 940e 1c4a 	CALL SUBOPT_0x1F
000d25 c002      	RJMP _0x40103
                 ; 0002 00AF 							else			PutPixel(xPos+sx, yPos+sy, BkColor);
                 _0x40038:
000d26 940e 1c51 	CALL SUBOPT_0x20
                 _0x40103:
000d28 0fea      	ADD  R30,R26
000d29 93ea      	ST   -Y,R30
000d2a 91a0 02d0 	LDS  R26,_BkColor
000d2c 940e 1159 	CALL _glcd_putpixel
                 ; 0002 00B0 						}
                 ; 0002 00B1 					}
                 _0x40037:
                 _0x40036:
                 ; 0002 00B2 				};//for sy
000d2e 81ee      	LDD  R30,Y+6
000d2f 5fef      	SUBI R30,-LOW(1)
000d30 83ee      	STD  Y+6,R30
000d31 cfd1      	RJMP _0x40031
                 _0x40032:
                 ; 0002 00B3 			};//for sx
000d32 81ef      	LDD  R30,Y+7
000d33 5fef      	SUBI R30,-LOW(1)
000d34 83ef      	STD  Y+7,R30
000d35 cfc6      	RJMP _0x4002E
                 _0x4002F:
                 ; 0002 00B4 
                 ; 0002 00B5 			maske++;
000d36 5f3f      	SUBI R19,-1
                 ; 0002 00B6 		};//for yc
000d37 85e8      	LDD  R30,Y+8
000d38 5fef      	SUBI R30,-LOW(1)
000d39 87e8      	STD  Y+8,R30
000d3a cf92      	RJMP _0x40024
                 _0x40025:
                 ; 0002 00B7 	};//for xc
000d3b 85e9      	LDD  R30,Y+9
000d3c 5fef      	SUBI R30,-LOW(1)
000d3d 87e9      	STD  Y+9,R30
000d3e cf86      	RJMP _0x40021
                 _0x40022:
                 ; 0002 00B8 
                 ; 0002 00B9 	// adjust cursor to next position - english
                 ; 0002 00BA 	cursorX	+= (unsigned int)charwidth * FontXScale + FontSpaceX;
000d3f 940e 1ba2 	CALL SUBOPT_0xE
000d41 940e 1c58 	CALL SUBOPT_0x21
000d43 0fea      	ADD  R30,R26
000d44 1ffb      	ADC  R31,R27
000d45 940e 1c65 	CALL SUBOPT_0x22
                 ; 0002 00BB }	//*PutCharEN
000d47 c0d3      	RJMP _0x2160017
                 ; .FEND
                 ;
                 ;void PutCharPE(unsigned char c)
                 ; 0002 00BE {
                 _PutCharPE:
                 ; .FSTART _PutCharPE
                 ; 0002 00BF 	#if (PersianSupport ==1)
                 ; 0002 00C0 		unsigned char 			byte 					= 0;
                 ; 0002 00C1 		unsigned char 			bitoffset 		= 0;
                 ; 0002 00C2 		unsigned char 			maske 				= 0;
                 ; 0002 00C3 		unsigned short 			bcounter 			= 0;
                 ; 0002 00C4 		unsigned short 			bitsbischar 	= 0;
                 ; 0002 00C5 		unsigned short 			bytesbischar	= 0;
                 ; 0002 00C6 		unsigned short 			xPos, yPos;
                 ; 0002 00C7 
                 ; 0002 00C8 		unsigned char 			Ccounter 			= 0;
                 ; 0002 00C9 		unsigned char 			xc 						= 0;
                 ; 0002 00CA 		unsigned char 			yc 						= 0;
                 ; 0002 00CB 		unsigned char 			sx 						= 0;
                 ; 0002 00CC 		unsigned char 			sy 						= 0;
                 ; 0002 00CD 
                 ; 0002 00CE 		// get current character width
                 ; 0002 00CF 		charwidth	= pgm_read_byte(&FontPointer[(unsigned int)(c)+FONT_HEADER_SIZE-firstchar]);
000d48 93aa      	ST   -Y,R26
000d49 972c      	SBIW R28,12
000d4a e08c      	LDI  R24,12
000d4b e0a0      	LDI  R26,LOW(0)
000d4c e0b0      	LDI  R27,HIGH(0)
000d4d ebea      	LDI  R30,LOW(_0x4003A*2)
000d4e e1f4      	LDI  R31,HIGH(_0x4003A*2)
000d4f 940e 2165 	CALL __INITLOCB
000d51 940e 1b65 	CALL SUBOPT_0xB
                 ;	c -> Y+18
                 ;	byte -> R17
                 ;	bitoffset -> R16
                 ;	maske -> R19
                 ;	bcounter -> R20,R21
                 ;	bitsbischar -> Y+16
                 ;	bytesbischar -> Y+14
                 ;	xPos -> Y+12
                 ;	yPos -> Y+10
                 ;	Ccounter -> R18
                 ;	xc -> Y+9
                 ;	yc -> Y+8
                 ;	sx -> Y+7
                 ;	sy -> Y+6
                 ; 0002 00D0 
                 ; 0002 00D1 		// line feed, goto next line
                 ; 0002 00D2 		if(c == '\n')
000d53 f439      	BRNE _0x4003B
                 ; 0002 00D3 		{
                 ; 0002 00D4 			cursorX = GetMaxX();
000d54 e7ef      	LDI  R30,LOW(127)
000d55 e0f0      	LDI  R31,HIGH(127)
000d56 940e 1c65 	CALL SUBOPT_0x22
                 ; 0002 00D5 			cursorY += (unsigned int)(FontHeight +FontSpaceY)* FontYScale;
000d58 940e 1b8a 	CALL SUBOPT_0xD
                 ; 0002 00D6 
                 ; 0002 00D7 			return;
000d5a c0c0      	RJMP _0x2160017
                 ; 0002 00D8 		}
                 ; 0002 00D9 
                 ; 0002 00DA 		// character out of range.
                 ; 0002 00DB 	  if( (c < firstchar) || (c > lastchar) || (fontSize == 0))
                 _0x4003B:
000d5b 91e0 0322 	LDS  R30,_firstchar
000d5d 89aa      	LDD  R26,Y+18
000d5e 17ae      	CP   R26,R30
000d5f f050      	BRLO _0x4003D
000d60 91e0 0323 	LDS  R30,_lastchar
000d62 17ea      	CP   R30,R26
000d63 f030      	BRLO _0x4003D
000d64 91a0 0320 	LDS  R26,_fontSize
000d66 91b0 0321 	LDS  R27,_fontSize+1
000d68 9710      	SBIW R26,0
000d69 f409      	BRNE _0x4003C
                 _0x4003D:
                 ; 0002 00DC 	  	return;
000d6a c0b0      	RJMP _0x2160017
                 ; 0002 00DD 
                 ; 0002 00DE 		// character is not in list.
                 ; 0002 00DF 		if (charwidth == 0)
                 _0x4003C:
000d6b 91e0 0324 	LDS  R30,_charwidth
000d6d 30e0      	CPI  R30,0
000d6e f409      	BRNE _0x4003F
                 ; 0002 00E0 			return;
000d6f c0ab      	RJMP _0x2160017
                 ; 0002 00E1 
                 ; 0002 00E2 		// sara thai font. line remain at last position
                 ; 0002 00E3 		if(FontFixed)
                 _0x4003F:
000d70 91e0 02d2 	LDS  R30,_FontFixed
000d72 30e0      	CPI  R30,0
000d73 f021      	BREQ _0x40040
                 ; 0002 00E4 			charwidth = FontWidth;
000d74 91e0 02d4 	LDS  R30,_FontWidth
000d76 93e0 0324 	STS  _charwidth,R30
                 ; 0002 00E5 
                 ; 0002 00E6 		// line adjust
                 ; 0002 00E7 		if(((int)cursorX - charwidth * FontXScale) < 0)
                 _0x40040:
000d78 940e 1ba2 	CALL SUBOPT_0xE
000d7a 940e 1bc3 	CALL SUBOPT_0x13
000d7c 1bae      	SUB  R26,R30
000d7d 0bbf      	SBC  R27,R31
000d7e 23bb      	TST  R27
000d7f f432      	BRPL _0x40041
                 ; 0002 00E8 	  {
                 ; 0002 00E9 			cursorY = cursorY   + (unsigned int)FontHeight * FontYScale;
000d80 940e 1bca 	CALL SUBOPT_0x14
                 ; 0002 00EA 			cursorX = GetMaxX() - (unsigned int)charwidth * FontXScale;
000d82 940e 1ba2 	CALL SUBOPT_0xE
000d84 940e 1c6a 	CALL SUBOPT_0x23
                 ; 0002 00EB 		}
                 ; 0002 00EC 
                 ; 0002 00ED 		// adjust cursor to current position - persian
                 ; 0002 00EE 		cursorX	-= (unsigned int)charwidth * FontXScale + FontSpaceX;
                 _0x40041:
000d86 940e 1ba2 	CALL SUBOPT_0xE
000d88 940e 1c58 	CALL SUBOPT_0x21
000d8a 940e 1bb0 	CALL SUBOPT_0x10
                 ; 0002 00EF 
                 ; 0002 00F0 		// calculate current character position on the table
                 ; 0002 00F1 		for(Ccounter = 0; Ccounter < c-firstchar; Ccounter++)
000d8c e020      	LDI  R18,LOW(0)
                 _0x40043:
000d8d 940e 1bdd 	CALL SUBOPT_0x15
000d8f 2fa2      	MOV  R26,R18
000d90 e0b0      	LDI  R27,0
000d91 17ae      	CP   R26,R30
000d92 07bf      	CPC  R27,R31
000d93 f44c      	BRGE _0x40044
                 ; 0002 00F2 			bitsbischar += (pgm_read_byte(&FontPointer[(unsigned int)(Ccounter)+FONT_HEADER_SIZE]));	//c0_width +...+ cn_width
000d94 2fe2      	MOV  R30,R18
000d95 e0f0      	LDI  R31,0
000d96 9637      	ADIW R30,7
000d97 940e 1bbc 	CALL SUBOPT_0x12
000d99 940e 1be3 	CALL SUBOPT_0x16
000d9b 5f2f      	SUBI R18,-1
000d9c cff0      	RJMP _0x40043
                 _0x40044:
                 ; 0002 00F5 bitsbischar 		*= FontHeight;
000d9d 940e 1bec 	CALL SUBOPT_0x17
                 ; 0002 00F6 		bitsbischar 		+= (((unsigned short)(lastchar)-firstchar)+FONT_HEADER_SIZE)*8;		//plus font headers
000d9f 940e 1bfc 	CALL SUBOPT_0x18
                 ; 0002 00F7 		bytesbischar 		 = bitsbischar/8;									//
                 ; 0002 00F8 		bitoffset 			 = bitsbischar % 8;								//
                 ; 0002 00F9 		maske						 = bitoffset % 8;									//
                 ; 0002 00FA 
                 ; 0002 00FB 		// draw character
                 ; 0002 00FC 		for(xc = 0; xc < charwidth; xc++)
                 _0x40046:
000da1 91e0 0324 	LDS  R30,_charwidth
000da3 85a9      	LDD  R26,Y+9
000da4 17ae      	CP   R26,R30
000da5 f008      	BRLO PC+2
000da6 c074      	RJMP _0x40047
                 ; 0002 00FD 		{
                 ; 0002 00FE 			for(yc = 0; yc < FontHeight; yc++)
000da7 e0e0      	LDI  R30,LOW(0)
000da8 87e8      	STD  Y+8,R30
                 _0x40049:
000da9 91e0 02d5 	LDS  R30,_FontHeight
000dab 85a8      	LDD  R26,Y+8
000dac 17ae      	CP   R26,R30
000dad f008      	BRLO PC+2
000dae c068      	RJMP _0x4004A
                 ; 0002 00FF 			{
                 ; 0002 0100 				if(maske > 7)
000daf 3038      	CPI  R19,8
000db0 f018      	BRLO _0x4004B
                 ; 0002 0101 				{
                 ; 0002 0102 					maske = 0;
000db1 e030      	LDI  R19,LOW(0)
                 ; 0002 0103 					bcounter+=1;
                +
000db2 5f4f     +SUBI R20 , LOW ( - 1 )
000db3 4f5f     +SBCI R21 , HIGH ( - 1 )
                 	__ADDWRN 20,21,1
                 ; 0002 0104 				}
                 ; 0002 0105 				byte = pgm_read_byte(&FontPointer[bytesbischar + bcounter + 1]);
                 _0x4004B:
000db4 940e 1c15 	CALL SUBOPT_0x19
000db6 940e 1c1c 	CALL SUBOPT_0x1A
                 ; 0002 0106 
                 ; 0002 0107 				xPos = (unsigned short)xc*FontXScale + cursorX;
000db8 940e 1c23 	CALL SUBOPT_0x1B
                 ; 0002 0108 
                 ; 0002 0109 				if(Horizontal)	//128x64
000dba f071      	BREQ _0x4004C
                 ; 0002 010A 				{
                 ; 0002 010B 					if(Reverse)
000dbb 91e0 02cc 	LDS  R30,_Reverse
000dbd 30e0      	CPI  R30,0
000dbe f019      	BREQ _0x4004D
                 ; 0002 010C 						yPos = (((unsigned short)FontHeight-yc)*FontYScale + cursorY);
000dbf 940e 1c2b 	CALL SUBOPT_0x1C
000dc1 c002      	RJMP _0x40104
                 ; 0002 010D 					else
                 _0x4004D:
                 ; 0002 010E 						yPos = (((unsigned short)yc)*FontYScale + cursorY);
000dc2 85a8      	LDD  R26,Y+8
000dc3 27bb      	CLR  R27
                 _0x40104:
000dc4 91e0 02d7 	LDS  R30,_FontYScale
000dc6 940e 1c33 	CALL SUBOPT_0x1D
                 ; 0002 010F 				}
                 ; 0002 0110 				else						//64x128
000dc8 c00d      	RJMP _0x4004F
                 _0x4004C:
                 ; 0002 0111 				{
                 ; 0002 0112 					if(Reverse)
000dc9 91e0 02cc 	LDS  R30,_Reverse
000dcb 30e0      	CPI  R30,0
000dcc f019      	BREQ _0x40050
                 ; 0002 0113 						yPos = (((unsigned short)FontHeight-yc)*FontYScale + cursorY);
000dcd 940e 1c2b 	CALL SUBOPT_0x1C
000dcf c002      	RJMP _0x40105
                 ; 0002 0114 					else
                 _0x40050:
                 ; 0002 0115 						yPos = (((unsigned short)yc)*FontYScale + cursorY);
000dd0 85a8      	LDD  R26,Y+8
000dd1 27bb      	CLR  R27
                 _0x40105:
000dd2 91e0 02d7 	LDS  R30,_FontYScale
000dd4 940e 1c33 	CALL SUBOPT_0x1D
                 ; 0002 0116 
                 ; 0002 0117 				}	//Horizontal
                 _0x4004F:
                 ; 0002 0118 
                 ; 0002 0119 				for(sx = 0; sx < FontXScale; sx++)
000dd6 e0e0      	LDI  R30,LOW(0)
000dd7 83ef      	STD  Y+7,R30
                 _0x40053:
000dd8 91e0 02d6 	LDS  R30,_FontXScale
000dda 81af      	LDD  R26,Y+7
000ddb 17ae      	CP   R26,R30
000ddc f5a8      	BRSH _0x40054
                 ; 0002 011A 				{
                 ; 0002 011B 					for(sy = 0; sy < FontYScale; sy++)
000ddd e0e0      	LDI  R30,LOW(0)
000dde 83ee      	STD  Y+6,R30
                 _0x40056:
000ddf 91e0 02d7 	LDS  R30,_FontYScale
000de1 81ae      	LDD  R26,Y+6
000de2 17ae      	CP   R26,R30
000de3 f550      	BRSH _0x40057
                 ; 0002 011C 					{
                 ; 0002 011D 						if(bit_is_set(byte,maske))
000de4 940e 1c3f 	CALL SUBOPT_0x1E
000de6 f081      	BREQ _0x40058
                 ; 0002 011E 						{
                 ; 0002 011F 							if(rot)		PutPixel(yPos+sy, xPos+sx, FgColor);
000de7 91e0 02cb 	LDS  R30,_rot
000de9 30e0      	CPI  R30,0
000dea f019      	BREQ _0x40059
000deb 940e 1c4a 	CALL SUBOPT_0x1F
000ded c002      	RJMP _0x40106
                 ; 0002 0120 							else			PutPixel(xPos+sx, yPos+sy, FgColor);
                 _0x40059:
000dee 940e 1c51 	CALL SUBOPT_0x20
                 _0x40106:
000df0 0fea      	ADD  R30,R26
000df1 93ea      	ST   -Y,R30
000df2 91a0 02ce 	LDS  R26,_FgColor
000df4 940e 1159 	CALL _glcd_putpixel
                 ; 0002 0121 						}
                 ; 0002 0122 						else
000df6 c013      	RJMP _0x4005B
                 _0x40058:
                 ; 0002 0123 						{
                 ; 0002 0124 							if(NonTransparence)
000df7 91e0 02d3 	LDS  R30,_NonTransparence
000df9 30e0      	CPI  R30,0
000dfa f079      	BREQ _0x4005C
                 ; 0002 0125 							{
                 ; 0002 0126 								if(rot)		PutPixel(yPos+sy, xPos+sx, BkColor);
000dfb 91e0 02cb 	LDS  R30,_rot
000dfd 30e0      	CPI  R30,0
000dfe f019      	BREQ _0x4005D
000dff 940e 1c4a 	CALL SUBOPT_0x1F
000e01 c002      	RJMP _0x40107
                 ; 0002 0127 								else			PutPixel(xPos+sx, yPos+sy, BkColor);
                 _0x4005D:
000e02 940e 1c51 	CALL SUBOPT_0x20
                 _0x40107:
000e04 0fea      	ADD  R30,R26
000e05 93ea      	ST   -Y,R30
000e06 91a0 02d0 	LDS  R26,_BkColor
000e08 940e 1159 	CALL _glcd_putpixel
                 ; 0002 0128 							}
                 ; 0002 0129 						}
                 _0x4005C:
                 _0x4005B:
                 ; 0002 012A 					}//for sy
000e0a 81ee      	LDD  R30,Y+6
000e0b 5fef      	SUBI R30,-LOW(1)
000e0c 83ee      	STD  Y+6,R30
000e0d cfd1      	RJMP _0x40056
                 _0x40057:
                 ; 0002 012B 				}//for sx
000e0e 81ef      	LDD  R30,Y+7
000e0f 5fef      	SUBI R30,-LOW(1)
000e10 83ef      	STD  Y+7,R30
000e11 cfc6      	RJMP _0x40053
                 _0x40054:
                 ; 0002 012C 
                 ; 0002 012D 				maske++;
000e12 5f3f      	SUBI R19,-1
                 ; 0002 012E 			}//for yc
000e13 85e8      	LDD  R30,Y+8
000e14 5fef      	SUBI R30,-LOW(1)
000e15 87e8      	STD  Y+8,R30
000e16 cf92      	RJMP _0x40049
                 _0x4004A:
                 ; 0002 012F 		}//for xc
000e17 85e9      	LDD  R30,Y+9
000e18 5fef      	SUBI R30,-LOW(1)
000e19 87e9      	STD  Y+9,R30
000e1a cf86      	RJMP _0x40046
                 _0x40047:
                 ; 0002 0130 	#endif
                 ; 0002 0131 }	//*PutCharPE
                 _0x2160017:
000e1b 940e 215e 	CALL __LOADLOCR6
000e1d 9663      	ADIW R28,19
000e1e 9508      	RET
                 ; .FEND
                 ;
                 ;unsigned int CalcTextWidthEN(char *str)
                 ; 0002 0134 {
                 ; 0002 0135 	unsigned int 		strSize = 0;
                 ; 0002 0136 	unsigned char 	c;
                 ; 0002 0137 	unsigned int 		i = 0;
                 ; 0002 0138 
                 ; 0002 0139 	while(str[i])
                 ;	*str -> Y+6
                 ;	strSize -> R16,R17
                 ;	c -> R19
                 ;	i -> R20,R21
                 ; 0002 013A 	{
                 ; 0002 013B 		c = str[i++];
                 ; 0002 013C 
                 ; 0002 013D 		if(c == '\n')			continue;
                 ; 0002 013E 
                 ; 0002 013F 		if(FontFixed)
                 ; 0002 0140 			strSize += (unsigned int)(FontWidth) * FontXScale;
                 ; 0002 0141 		else
                 ; 0002 0142 		{
                 ; 0002 0143 		  if((c < firstchar) || (c > lastchar))
                 ; 0002 0144 				charwidth = FontWidth;
                 ; 0002 0145 			else
                 ; 0002 0146 			{
                 ; 0002 0147 				charwidth = pgm_read_byte(&FontPointer[(unsigned int)(c)+FONT_HEADER_SIZE-firstchar]);
                 ; 0002 0148 
                 ; 0002 0149 				//english spesial fonts!
                 ; 0002 014A 				if (((c >= 0xd4) && (c <= 0xda)) ||
                 ; 0002 014B 		    		((c >= 0xe7) && (c <= 0xec)) ||
                 ; 0002 014C 				  	 (c == 0xd1))
                 ; 0002 014D 
                 ; 0002 014E 					charwidth = 0;
                 ; 0002 014F 			}
                 ; 0002 0150 
                 ; 0002 0151 			strSize += (unsigned int)(charwidth) * FontXScale;
                 ; 0002 0152 		}
                 ; 0002 0153 
                 ; 0002 0154 		strSize += FontSpaceX;
                 ; 0002 0155 	}//while
                 ; 0002 0156 
                 ; 0002 0157 	return(strSize);
                 ; 0002 0158 }	//*CalcTextWidthEN
                 ;
                 ;unsigned int CalcTextWidthPE(char *str)
                 ; 0002 015B {
                 ; 0002 015C 	#if (PersianSupport ==1)
                 ; 0002 015D 		unsigned char 	curnLet, dumyLet;
                 ; 0002 015E 		unsigned char 	Pstat, stat, Nstat;
                 ; 0002 015F 
                 ; 0002 0160 		unsigned char		backFontSpace = FontSpaceX;
                 ; 0002 0161 		unsigned int 		strSize = 0;
                 ; 0002 0162 		unsigned int		i = 0;
                 ; 0002 0163 
                 ; 0002 0164 	 	while(str[i])
                 ;	*str -> Y+10
                 ;	curnLet -> R17
                 ;	dumyLet -> R16
                 ;	Pstat -> R19
                 ;	stat -> R18
                 ;	Nstat -> R21
                 ;	backFontSpace -> R20
                 ;	strSize -> Y+8
                 ;	i -> Y+6
                 ; 0002 0165 		{
                 ; 0002 0166 			curnLet = str[i++];
                 ; 0002 0167 			if(curnLet == '\n')			continue;
                 ; 0002 0168 
                 ; 0002 0169 			if(FontFixed)
                 ; 0002 016A 				strSize += (unsigned int)(FontWidth) * FontXScale;
                 ; 0002 016B 			else
                 ; 0002 016C 			{
                 ; 0002 016D 			 	if((curnLet < firstchar) || (curnLet > lastchar))
                 ; 0002 016E 					charwidth = FontWidth;
                 ; 0002 016F 				else
                 ; 0002 0170 				{
                 ; 0002 0171 			 		switch(curnLet)
                 ; 0002 0172 			 		{
                 ; 0002 0173 			 			case 0x81:				//peh
                 ; 0002 0174 			    		curnLet = 0xEA;
                 ; 0002 0175 			 				break;
                 ; 0002 0176 			 			case 0x8D:				//cheh
                 ; 0002 0177 			    		curnLet = 0xEB;
                 ; 0002 0178 			 				break;
                 ; 0002 0179 			 			case 0x8E:				//zheh
                 ; 0002 017A 			    		curnLet = 0xEE;
                 ; 0002 017B 			 				break;
                 ; 0002 017C 			 			case 0x90:				//geh
                 ; 0002 017D 			    		curnLet = 0xEF;
                 ; 0002 017E 			 				break;
                 ; 0002 017F                         case 0x98:				//Ke
                 ; 0002 0180 		    		    curnLet = 0xDF;
                 ; 0002 0181 		 				break;
                 ; 0002 0182 			 			case 0xE1:				//laa
                 ; 0002 0183 			    		nextLet = str[i++];
                 ; 0002 0184 
                 ; 0002 0185 			    		if(nextLet == 0xC7)
                 ; 0002 0186 			    			curnLet = 0xFB;
                 ; 0002 0187 			    		else
                 ; 0002 0188 			    		{
                 ; 0002 0189 			    			i--;
                 ; 0002 018A 			    			curnLet = 0xE1;
                 ; 0002 018B 			    		}
                 ; 0002 018C 			 				break;
                 ; 0002 018D 			 			case 0x30:				//persian digits 0...9
                 ; 0002 018E 						case 0x31:
                 ; 0002 018F 						case 0x32:
                 ; 0002 0190 						case 0x33:
                 ; 0002 0191 						case 0x34:
                 ; 0002 0192 						case 0x35:
                 ; 0002 0193 						case 0x36:
                 ; 0002 0194 						case 0x37:
                 ; 0002 0195 						case 0x38:
                 ; 0002 0196 						case 0x39:
                 ; 0002 0197 							curnLet -= 0x20;
                 ; 0002 0198 			 				break;
                 ; 0002 0199 			 			case 0x3F:				//persian question mark
                 ; 0002 019A 			    		curnLet = 0xBF;
                 ; 0002 019B 			 				break;
                 ; 0002 019C 			 			case 0x3B:				//persian semicolon
                 ; 0002 019D 			    		curnLet = 0x1F;
                 ; 0002 019E 			 				break;
                 ; 0002 019F 			 			case 0x2C:				//persian comma
                 ; 0002 01A0 			    		curnLet = 0x1D;
                 ; 0002 01A1 			 				break;
                 ; 0002 01A2 			 			case 0x2E:				//persian point
                 ; 0002 01A3 			    		curnLet = 0x1C;
                 ; 0002 01A4 			 				break;
                 ; 0002 01A5 					}//switch curnLet
                 ; 0002 01A6 
                 ; 0002 01A7 					//--------------------------------
                 ; 0002 01A8 			  	nextLet = str[i++];
                 ; 0002 01A9 			  	i--;
                 ; 0002 01AA 
                 ; 0002 01AB 			 		switch(nextLet)
                 ; 0002 01AC 			 		{
                 ; 0002 01AD 			 			case 0x81:				//peh
                 ; 0002 01AE 			    		nextLet = 0xEA;
                 ; 0002 01AF 			 				break;
                 ; 0002 01B0 			 			case 0x8D:				//cheh
                 ; 0002 01B1 			    		nextLet = 0xEB;
                 ; 0002 01B2 			 				break;
                 ; 0002 01B3 			 			case 0x8E:				//zheh
                 ; 0002 01B4 			    		nextLet = 0xEE;
                 ; 0002 01B5 			 				break;
                 ; 0002 01B6 			 			case 0x90:				//geh
                 ; 0002 01B7 			    		nextLet = 0xEF;
                 ; 0002 01B8 			 				break;
                 ; 0002 01B9                          case 0x98:				//Ke
                 ; 0002 01BA 		    		    nextLet = 0xDF;
                 ; 0002 01BB 		 				break;
                 ; 0002 01BC 			 			case 0x30:				//0...9
                 ; 0002 01BD 						case 0x31:
                 ; 0002 01BE 						case 0x32:
                 ; 0002 01BF 						case 0x33:
                 ; 0002 01C0 						case 0x34:
                 ; 0002 01C1 						case 0x35:
                 ; 0002 01C2 						case 0x36:
                 ; 0002 01C3 						case 0x37:
                 ; 0002 01C4 						case 0x38:
                 ; 0002 01C5 						case 0x39:
                 ; 0002 01C6 							nextLet -= 0x20;
                 ; 0002 01C7 			 				break;
                 ; 0002 01C8 			 			case 0x3F:				//persian question mark
                 ; 0002 01C9 			    		nextLet = 0xBF;
                 ; 0002 01CA 			 				break;
                 ; 0002 01CB 			 			case 0x3B:				//persian semicolon
                 ; 0002 01CC 			    		nextLet = 0x1F;
                 ; 0002 01CD 			 				break;
                 ; 0002 01CE 			 			case 0x2C:				//persian comma
                 ; 0002 01CF 			    		nextLet = 0x1D;
                 ; 0002 01D0 			 				break;
                 ; 0002 01D1 			 			case 0x2E:				//persian point
                 ; 0002 01D2 			    		nextLet = 0x1C;
                 ; 0002 01D3 			 				break;
                 ; 0002 01D4 					}//switch nextLet
                 ; 0002 01D5 
                 ; 0002 01D6 					if(curnLet > 0xC0)
                 ; 0002 01D7 					{
                 ; 0002 01D8 						if(prevLet > 0xC0)
                 ; 0002 01D9 							Pstat = (pgm_read_byte(&PEmap[prevLet-0xC1][5]));
                 ; 0002 01DA 						else
                 ; 0002 01DB 							Pstat = 0;
                 ; 0002 01DC 
                 ; 0002 01DD 						if(nextLet > 0xC0)
                 ; 0002 01DE 							Nstat = (pgm_read_byte(&PEmap[nextLet-0xC1][4]));
                 ; 0002 01DF 						else
                 ; 0002 01E0 							Nstat = 0;
                 ; 0002 01E1 
                 ; 0002 01E2 						stat = (Pstat<<1) | Nstat;
                 ; 0002 01E3 
                 ; 0002 01E4 						if(stat>1)	FontSpaceX = 0;
                 ; 0002 01E5 						else 				FontSpaceX = backFontSpace;
                 ; 0002 01E6 						////////////////
                 ; 0002 01E7 						dumyLet = pgm_read_byte(&PEmap[curnLet-0xC1][stat]);
                 ; 0002 01E8 
                 ; 0002 01E9 						charwidth = pgm_read_byte(&FontPointer[(unsigned int)(dumyLet)+FONT_HEADER_SIZE-firstchar]);
                 ; 0002 01EA 						strSize += (unsigned int)(charwidth) * FontXScale;
                 ; 0002 01EB 						strSize += FontSpaceX;
                 ; 0002 01EC 						////////////////
                 ; 0002 01ED 						FontSpaceX = backFontSpace;
                 ; 0002 01EE 					}
                 ; 0002 01EF 					else
                 ; 0002 01F0 					{
                 ; 0002 01F1 						charwidth = pgm_read_byte(&FontPointer[(unsigned int)(curnLet)+FONT_HEADER_SIZE-firstchar]);
                 ; 0002 01F2 						strSize += (unsigned int)(charwidth) * FontXScale;
                 ; 0002 01F3 						strSize += FontSpaceX;
                 ; 0002 01F4 					}
                 ; 0002 01F5 
                 ; 0002 01F6 					prevLet = curnLet;
                 ; 0002 01F7 				}
                 ; 0002 01F8 			}
                 ; 0002 01F9 		}//while
                 ; 0002 01FA 
                 ; 0002 01FB 	 	prevLet = 0xFF;
                 ; 0002 01FC 
                 ; 0002 01FD 		return(strSize);
                 ; 0002 01FE 	#endif
                 ; 0002 01FF }	//*CalcTextWidthPE
                 ;
                 ;unsigned int CalcTextWidth(char *Text)
                 ; 0002 0202 {
                 ; 0002 0203 	#if (PersianSupport ==1)
                 ; 0002 0204 		if(peLETTER == E_LETTER)
                 ;	*Text -> Y+0
                 ; 0002 0205 			return(CalcTextWidthEN(Text));
                 ; 0002 0206 		else
                 ; 0002 0207 	#endif
                 ; 0002 0208 			return(CalcTextWidthPE(Text));
                 ; 0002 0209 }	//*CalcTextWidth
                 ;
                 ;unsigned int CalcTextHeight(void)
                 ; 0002 020C {
                 ; 0002 020D 	return((unsigned int)(FontHeight) * FontYScale);
                 ; 0002 020E }	//*CalcTextHeight
                 ;
                 ;void PutsPE(char *str)
                 ; 0002 0211 {
                 _PutsPE:
                 ; .FSTART _PutsPE
                 ; 0002 0212 	#if (PersianSupport ==1)
                 ; 0002 0213 		unsigned char 	curnLet;
                 ; 0002 0214 		unsigned char 	Pstat, stat, Nstat;
                 ; 0002 0215 
                 ; 0002 0216 		unsigned char		backFontSpace = FontSpaceX;
                 ; 0002 0217 		char 						strTemp[50];
                 ; 0002 0218 		unsigned char 	i = 0, j = 0;
                 ; 0002 0219 		unsigned int		k = 0;
                 ; 0002 021A 
                 ; 0002 021B 	 	while(str[k])
000e1f 93ba      	ST   -Y,R27
000e20 93aa      	ST   -Y,R26
000e21 97e5      	SBIW R28,53
000e22 940e 1c6f 	CALL SUBOPT_0x24
000e24 940e 2157 	CALL __SAVELOCR6
                 ;	*str -> Y+59
                 ;	curnLet -> R17
                 ;	Pstat -> R16
                 ;	stat -> R19
                 ;	Nstat -> R18
                 ;	backFontSpace -> R21
                 ;	strTemp -> Y+9
                 ;	i -> R20
                 ;	j -> Y+8
                 ;	k -> Y+6
000e26 9150 02d8 	LDS  R21,_FontSpaceX
000e28 e040      	LDI  R20,0
                 _0x400C5:
000e29 81ee      	LDD  R30,Y+6
000e2a 81ff      	LDD  R31,Y+6+1
000e2b 940e 1c74 	CALL SUBOPT_0x25
000e2d 91ec      	LD   R30,X
000e2e 30e0      	CPI  R30,0
000e2f f409      	BRNE PC+2
000e30 c0f3      	RJMP _0x400C7
                 ; 0002 021C 		{
                 ; 0002 021D 	 		curnLet = str[k++];
000e31 940e 1c79 	CALL SUBOPT_0x26
000e33 911c      	LD   R17,X
                 ; 0002 021E 
                 ; 0002 021F 	 		switch(curnLet)
000e34 2fe1      	MOV  R30,R17
000e35 e0f0      	LDI  R31,0
                 ; 0002 0220 	 		{
                 ; 0002 0221 	 			case 0x81:				//peh
000e36 38e1      	CPI  R30,LOW(0x81)
000e37 e0a0      	LDI  R26,HIGH(0x81)
000e38 07fa      	CPC  R31,R26
000e39 f411      	BRNE _0x400CB
                 ; 0002 0222 	    		curnLet = 0xEA;
000e3a ee1a      	LDI  R17,LOW(234)
                 ; 0002 0223 	 				break;
000e3b c045      	RJMP _0x400CA
                 ; 0002 0224 	 			case 0x8D:				//cheh
                 _0x400CB:
000e3c 38ed      	CPI  R30,LOW(0x8D)
000e3d e0a0      	LDI  R26,HIGH(0x8D)
000e3e 07fa      	CPC  R31,R26
000e3f f411      	BRNE _0x400CC
                 ; 0002 0225 	    		curnLet = 0xEB;
000e40 ee1b      	LDI  R17,LOW(235)
                 ; 0002 0226 	 				break;
000e41 c03f      	RJMP _0x400CA
                 ; 0002 0227 	 			case 0x8E:				//zheh
                 _0x400CC:
000e42 38ee      	CPI  R30,LOW(0x8E)
000e43 e0a0      	LDI  R26,HIGH(0x8E)
000e44 07fa      	CPC  R31,R26
000e45 f411      	BRNE _0x400CD
                 ; 0002 0228 	    		curnLet = 0xEE;
000e46 ee1e      	LDI  R17,LOW(238)
                 ; 0002 0229 	 				break;
000e47 c039      	RJMP _0x400CA
                 ; 0002 022A 	 			case 0x90:				//geh
                 _0x400CD:
000e48 39e0      	CPI  R30,LOW(0x90)
000e49 e0a0      	LDI  R26,HIGH(0x90)
000e4a 07fa      	CPC  R31,R26
000e4b f411      	BRNE _0x400CE
                 ; 0002 022B 	    		curnLet = 0xEF;
000e4c ee1f      	LDI  R17,LOW(239)
                 ; 0002 022C 	 				break;
000e4d c033      	RJMP _0x400CA
                 ; 0002 022D                  case 0x98:				//Ke
                 _0x400CE:
000e4e 39e8      	CPI  R30,LOW(0x98)
000e4f e0a0      	LDI  R26,HIGH(0x98)
000e50 07fa      	CPC  R31,R26
000e51 f411      	BRNE _0x400CF
                 ; 0002 022E 		    		    curnLet = 0xDF;
000e52 ed1f      	LDI  R17,LOW(223)
                 ; 0002 022F 		 				break;
000e53 c02d      	RJMP _0x400CA
                 ; 0002 0230 	 			case 0xE1:				//laa
                 _0x400CF:
000e54 3ee1      	CPI  R30,LOW(0xE1)
000e55 e0a0      	LDI  R26,HIGH(0xE1)
000e56 07fa      	CPC  R31,R26
000e57 f491      	BRNE _0x400D0
                 ; 0002 0231 	    		nextLet = str[k++];
000e58 940e 1c79 	CALL SUBOPT_0x26
000e5a 91ec      	LD   R30,X
000e5b 93e0 0326 	STS  _nextLet,R30
                 ; 0002 0232 
                 ; 0002 0233 	    		if(nextLet == 0xC7)
000e5d 91a0 0326 	LDS  R26,_nextLet
000e5f 3ca7      	CPI  R26,LOW(0xC7)
000e60 f411      	BRNE _0x400D1
                 ; 0002 0234 	    			curnLet = 0xFB;
000e61 ef1b      	LDI  R17,LOW(251)
                 ; 0002 0235 	    		else
000e62 c006      	RJMP _0x400D2
                 _0x400D1:
                 ; 0002 0236 	    		{
                 ; 0002 0237 	    			k--;
000e63 81ee      	LDD  R30,Y+6
000e64 81ff      	LDD  R31,Y+6+1
000e65 9731      	SBIW R30,1
000e66 83ee      	STD  Y+6,R30
000e67 83ff      	STD  Y+6+1,R31
                 ; 0002 0238 	    			curnLet = 0xE1;
000e68 ee11      	LDI  R17,LOW(225)
                 ; 0002 0239 	    		}
                 _0x400D2:
                 ; 0002 023A 	 				break;
000e69 c017      	RJMP _0x400CA
                 ; 0002 023B 	 			case 0x3F:				//persian question mark
                 _0x400D0:
000e6a 33ef      	CPI  R30,LOW(0x3F)
000e6b e0a0      	LDI  R26,HIGH(0x3F)
000e6c 07fa      	CPC  R31,R26
000e6d f411      	BRNE _0x400D3
                 ; 0002 023C 	    		curnLet = 0xBF;
000e6e eb1f      	LDI  R17,LOW(191)
                 ; 0002 023D 	 				break;
000e6f c011      	RJMP _0x400CA
                 ; 0002 023E 	 			case 0x3B:				//persian semicolon
                 _0x400D3:
000e70 33eb      	CPI  R30,LOW(0x3B)
000e71 e0a0      	LDI  R26,HIGH(0x3B)
000e72 07fa      	CPC  R31,R26
000e73 f411      	BRNE _0x400D4
                 ; 0002 023F 	    		curnLet = 0x1F;
000e74 e11f      	LDI  R17,LOW(31)
                 ; 0002 0240 	 				break;
000e75 c00b      	RJMP _0x400CA
                 ; 0002 0241 	 			case 0x2C:				//persian comma
                 _0x400D4:
000e76 32ec      	CPI  R30,LOW(0x2C)
000e77 e0a0      	LDI  R26,HIGH(0x2C)
000e78 07fa      	CPC  R31,R26
000e79 f411      	BRNE _0x400D5
                 ; 0002 0242 	    		curnLet = 0x1D;
000e7a e11d      	LDI  R17,LOW(29)
                 ; 0002 0243 	 				break;
000e7b c005      	RJMP _0x400CA
                 ; 0002 0244 	 			case 0x2E:				//persian point
                 _0x400D5:
000e7c 32ee      	CPI  R30,LOW(0x2E)
000e7d e0a0      	LDI  R26,HIGH(0x2E)
000e7e 07fa      	CPC  R31,R26
000e7f f409      	BRNE _0x400CA
                 ; 0002 0245 	    		curnLet = 0x1C;
000e80 e11c      	LDI  R17,LOW(28)
                 ; 0002 0246 	 				break;
                 ; 0002 0247 			}//switch curnLet
                 _0x400CA:
                 ; 0002 0248 
                 ; 0002 0249 			//--------------------------------
                 ; 0002 024A 	  	nextLet = str[k++];
000e81 940e 1c79 	CALL SUBOPT_0x26
000e83 91ec      	LD   R30,X
000e84 93e0 0326 	STS  _nextLet,R30
                 ; 0002 024B 	  	k--;
000e86 81ee      	LDD  R30,Y+6
000e87 81ff      	LDD  R31,Y+6+1
000e88 9731      	SBIW R30,1
000e89 83ee      	STD  Y+6,R30
000e8a 83ff      	STD  Y+6+1,R31
                 ; 0002 024C 
                 ; 0002 024D 	 		switch(nextLet)
000e8b 91e0 0326 	LDS  R30,_nextLet
000e8d e0f0      	LDI  R31,0
                 ; 0002 024E 	 		{
                 ; 0002 024F 	 			case 0x81:				//peh
000e8e 38e1      	CPI  R30,LOW(0x81)
000e8f e0a0      	LDI  R26,HIGH(0x81)
000e90 07fa      	CPC  R31,R26
000e91 f411      	BRNE _0x400DA
                 ; 0002 0250 	    		nextLet = 0xEA;
000e92 eeea      	LDI  R30,LOW(234)
000e93 c02f      	RJMP _0x4010B
                 ; 0002 0251 	 				break;
                 ; 0002 0252 	 			case 0x8D:				//cheh
                 _0x400DA:
000e94 38ed      	CPI  R30,LOW(0x8D)
000e95 e0a0      	LDI  R26,HIGH(0x8D)
000e96 07fa      	CPC  R31,R26
000e97 f411      	BRNE _0x400DB
                 ; 0002 0253 	    		nextLet = 0xEB;
000e98 eeeb      	LDI  R30,LOW(235)
000e99 c029      	RJMP _0x4010B
                 ; 0002 0254 	 				break;
                 ; 0002 0255 	 			case 0x8E:				//zheh
                 _0x400DB:
000e9a 38ee      	CPI  R30,LOW(0x8E)
000e9b e0a0      	LDI  R26,HIGH(0x8E)
000e9c 07fa      	CPC  R31,R26
000e9d f411      	BRNE _0x400DC
                 ; 0002 0256 	    		nextLet = 0xEE;
000e9e eeee      	LDI  R30,LOW(238)
000e9f c023      	RJMP _0x4010B
                 ; 0002 0257 	 				break;
                 ; 0002 0258 	 			case 0x90:				//geh
                 _0x400DC:
000ea0 39e0      	CPI  R30,LOW(0x90)
000ea1 e0a0      	LDI  R26,HIGH(0x90)
000ea2 07fa      	CPC  R31,R26
000ea3 f411      	BRNE _0x400DD
                 ; 0002 0259 	    		nextLet = 0xEF;
000ea4 eeef      	LDI  R30,LOW(239)
000ea5 c01d      	RJMP _0x4010B
                 ; 0002 025A 	 				break;
                 ; 0002 025B                  case 0x98:				//Ke
                 _0x400DD:
000ea6 39e8      	CPI  R30,LOW(0x98)
000ea7 e0a0      	LDI  R26,HIGH(0x98)
000ea8 07fa      	CPC  R31,R26
000ea9 f411      	BRNE _0x400DE
                 ; 0002 025C 		    		    nextLet = 0xDF;
000eaa edef      	LDI  R30,LOW(223)
000eab c017      	RJMP _0x4010B
                 ; 0002 025D 		 				break;
                 ; 0002 025E 	 			case 0x3F:				//persian question mark
                 _0x400DE:
000eac 33ef      	CPI  R30,LOW(0x3F)
000ead e0a0      	LDI  R26,HIGH(0x3F)
000eae 07fa      	CPC  R31,R26
000eaf f411      	BRNE _0x400DF
                 ; 0002 025F 	    		nextLet = 0xBF;
000eb0 ebef      	LDI  R30,LOW(191)
000eb1 c011      	RJMP _0x4010B
                 ; 0002 0260 	 				break;
                 ; 0002 0261 	 			case 0x3B:				//persian semicolon
                 _0x400DF:
000eb2 33eb      	CPI  R30,LOW(0x3B)
000eb3 e0a0      	LDI  R26,HIGH(0x3B)
000eb4 07fa      	CPC  R31,R26
000eb5 f411      	BRNE _0x400E0
                 ; 0002 0262 	    		nextLet = 0x1F;
000eb6 e1ef      	LDI  R30,LOW(31)
000eb7 c00b      	RJMP _0x4010B
                 ; 0002 0263 	 				break;
                 ; 0002 0264 	 			case 0x2C:				//persian comma
                 _0x400E0:
000eb8 32ec      	CPI  R30,LOW(0x2C)
000eb9 e0a0      	LDI  R26,HIGH(0x2C)
000eba 07fa      	CPC  R31,R26
000ebb f411      	BRNE _0x400E1
                 ; 0002 0265 	    		nextLet = 0x1D;
000ebc e1ed      	LDI  R30,LOW(29)
000ebd c005      	RJMP _0x4010B
                 ; 0002 0266 	 				break;
                 ; 0002 0267 	 			case 0x2E:				//persian point
                 _0x400E1:
000ebe 32ee      	CPI  R30,LOW(0x2E)
000ebf e0a0      	LDI  R26,HIGH(0x2E)
000ec0 07fa      	CPC  R31,R26
000ec1 f419      	BRNE _0x400D9
                 ; 0002 0268 	    		nextLet = 0x1C;
000ec2 e1ec      	LDI  R30,LOW(28)
                 _0x4010B:
000ec3 93e0 0326 	STS  _nextLet,R30
                 ; 0002 0269 	 				break;
                 ; 0002 026A 			}//switch nextLet
                 _0x400D9:
                 ; 0002 026B 
                 ; 0002 026C 			if(curnLet > 0xC0)
000ec5 3c11      	CPI  R17,193
000ec6 f188      	BRLO _0x400E3
                 ; 0002 026D 			{
                 ; 0002 026E 				if(prevLet > 0xC0)
000ec7 91a0 0325 	LDS  R26,_prevLet
000ec9 3ca1      	CPI  R26,LOW(0xC1)
000eca f038      	BRLO _0x400E4
                 ; 0002 026F 					Pstat = (pgm_read_byte(&PEmap[prevLet-0xC1][5]));		// 1: prevLet attach to curnLet -- 0: prevLet don't attach to cu ...
000ecb 91e0 0325 	LDS  R30,_prevLet
000ecd 940e 1c80 	CALL SUBOPT_0x27
000ecf 9635      	ADIW R30,5
000ed0 9104      	LPM  R16,Z
                 ; 0002 0270 				else
000ed1 c001      	RJMP _0x400E5
                 _0x400E4:
                 ; 0002 0271 					Pstat = 0;
000ed2 e000      	LDI  R16,LOW(0)
                 ; 0002 0272 
                 ; 0002 0273 				if(nextLet > 0xC0)
                 _0x400E5:
000ed3 91a0 0326 	LDS  R26,_nextLet
000ed5 3ca1      	CPI  R26,LOW(0xC1)
000ed6 f038      	BRLO _0x400E6
                 ; 0002 0274 					Nstat = (pgm_read_byte(&PEmap[nextLet-0xC1][4]));		// 1: nextLet attach to curnLet -- 0: nextLet don't attach to cu ...
000ed7 91e0 0326 	LDS  R30,_nextLet
000ed9 940e 1c80 	CALL SUBOPT_0x27
000edb 9634      	ADIW R30,4
000edc 9124      	LPM  R18,Z
                 ; 0002 0275 				else
000edd c001      	RJMP _0x400E7
                 _0x400E6:
                 ; 0002 0276 					Nstat = 0;
000ede e020      	LDI  R18,LOW(0)
                 ; 0002 0277 
                 ; 0002 0278 				//			Pstat	|	Nstat	|	stat
                 ; 0002 0279 				//		 -------+-------+------
                 ; 0002 027A 				//				0		|		0		|		0				curnLet, don't attach to prevLet and nextLet
                 ; 0002 027B 				//				0		|		1		|		1				curnLet, don't attach to prevLet and attach to nextLet
                 ; 0002 027C 				//				1		|		0		|		2				curnLet, attach to prevLet and don't attach to nextLet
                 ; 0002 027D 				//				1		|		1		|		3				curnLet, attach to prevLet and nextLet
                 ; 0002 027E 
                 ; 0002 027F 				stat = (Pstat<<1) | Nstat;
                 _0x400E7:
000edf 2fe0      	MOV  R30,R16
000ee0 0fee      	LSL  R30
000ee1 2be2      	OR   R30,R18
000ee2 2f3e      	MOV  R19,R30
                 ; 0002 0280 
                 ; 0002 0281 				if(stat>1)	FontSpaceX = 0;
000ee3 3032      	CPI  R19,2
000ee4 f020      	BRLO _0x400E8
000ee5 e0e0      	LDI  R30,LOW(0)
000ee6 93e0 02d8 	STS  _FontSpaceX,R30
                 ; 0002 0282 				else 				FontSpaceX = backFontSpace;
000ee8 c002      	RJMP _0x400E9
                 _0x400E8:
000ee9 9350 02d8 	STS  _FontSpaceX,R21
                 ; 0002 0283 
                 ; 0002 0284 				PutCharPE(pgm_read_byte(&PEmap[curnLet-0xC1][stat]));
                 _0x400E9:
000eeb 2fe1      	MOV  R30,R17
000eec 940e 1c80 	CALL SUBOPT_0x27
000eee 01df      	MOVW R26,R30
000eef 2fe3      	MOV  R30,R19
000ef0 e0f0      	LDI  R31,0
000ef1 0fea      	ADD  R30,R26
000ef2 1ffb      	ADC  R31,R27
000ef3 91a4      	LPM  R26,Z
000ef4 de53      	RCALL _PutCharPE
                 ; 0002 0285 				FontSpaceX = backFontSpace;
000ef5 9350 02d8 	STS  _FontSpaceX,R21
                 ; 0002 0286 			}
                 ; 0002 0287 			else	//Original 'curnLet' below 193 without (     )  -- for digits and symbols!
000ef7 c029      	RJMP _0x400EA
                 _0x400E3:
                 ; 0002 0288 			{
                 ; 0002 0289 	  		if((curnLet >= '0') && (curnLet <= '9'))		// 0 to 9
000ef8 3310      	CPI  R17,48
000ef9 f010      	BRLO _0x400EC
000efa 331a      	CPI  R17,58
000efb f008      	BRLO _0x400ED
                 _0x400EC:
000efc c022      	RJMP _0x400EB
                 _0x400ED:
                 ; 0002 028A 	  		{
                 ; 0002 028B 	  			i++;
000efd 5f4f      	SUBI R20,-1
                 ; 0002 028C 	  			strTemp[i] 	 = curnLet;
000efe 2fe4      	MOV  R30,R20
000eff e0f0      	LDI  R31,0
000f00 01de      	MOVW R26,R28
000f01 9619      	ADIW R26,9
000f02 0fea      	ADD  R30,R26
000f03 1ffb      	ADC  R31,R27
000f04 8310      	ST   Z,R17
                 ; 0002 028D 
                 ; 0002 028E 	  			if(!((nextLet >= '0') && (nextLet <= '9')))
000f05 91a0 0326 	LDS  R26,_nextLet
000f07 33a0      	CPI  R26,LOW(0x30)
000f08 f010      	BRLO _0x400EF
000f09 33aa      	CPI  R26,LOW(0x3A)
000f0a f098      	BRLO _0x400EE
                 _0x400EF:
                 ; 0002 028F 					{
                 ; 0002 0290 						for(j=i; j>0; j--)
                +
000f0b 8748     +STD Y + 8 , R20
                 	__PUTBSR 20,8
                 _0x400F2:
000f0c 85a8      	LDD  R26,Y+8
000f0d 30a1      	CPI  R26,LOW(0x1)
000f0e f070      	BRLO _0x400F3
                 ; 0002 0291 							PutCharPE(strTemp[j]-0x20);
000f0f 85e8      	LDD  R30,Y+8
000f10 e0f0      	LDI  R31,0
000f11 01de      	MOVW R26,R28
000f12 9619      	ADIW R26,9
000f13 0fae      	ADD  R26,R30
000f14 1fbf      	ADC  R27,R31
000f15 91ec      	LD   R30,X
000f16 52e0      	SUBI R30,LOW(32)
000f17 2fae      	MOV  R26,R30
000f18 de2f      	RCALL _PutCharPE
000f19 85e8      	LDD  R30,Y+8
000f1a 50e1      	SUBI R30,LOW(1)
000f1b 87e8      	STD  Y+8,R30
000f1c cfef      	RJMP _0x400F2
                 _0x400F3:
                 ; 0002 0293 i = 0;
000f1d e040      	LDI  R20,LOW(0)
                 ; 0002 0294 					}
                 ; 0002 0295 				}
                 _0x400EE:
                 ; 0002 0296 				else
000f1e c002      	RJMP _0x400F4
                 _0x400EB:
                 ; 0002 0297 					PutCharPE(curnLet);
000f1f 2fa1      	MOV  R26,R17
000f20 de27      	RCALL _PutCharPE
                 ; 0002 0298 			}
                 _0x400F4:
                 _0x400EA:
                 ; 0002 0299 
                 ; 0002 029A 			prevLet = curnLet;
000f21 9310 0325 	STS  _prevLet,R17
                 ; 0002 029B 		}//while
000f23 cf05      	RJMP _0x400C5
                 _0x400C7:
                 ; 0002 029C 
                 ; 0002 029D 	 	prevLet = 0xFF;
000f24 efef      	LDI  R30,LOW(255)
000f25 93e0 0325 	STS  _prevLet,R30
                 ; 0002 029E 	#endif
                 ; 0002 029F }	//*PutsPE
000f27 940e 215e 	CALL __LOADLOCR6
000f29 96ed      	ADIW R28,61
000f2a 9508      	RET
                 ; .FEND
                 ;
                 ;//-------------------------------------------------
                 ;//**** select font
                 ;void LcdFont(const unsigned char *pointer)
                 ; 0002 02A4 {
                 _LcdFont:
                 ; .FSTART _LcdFont
                 ; 0002 02A5 	FontPointer 			= pointer;
000f2b 93ba      	ST   -Y,R27
000f2c 93aa      	ST   -Y,R26
                 ;	*pointer -> Y+0
000f2d 81e8      	LD   R30,Y
000f2e 81f9      	LDD  R31,Y+1
000f2f 93e0 031e 	STS  _FontPointer,R30
000f31 93f0 031f 	STS  _FontPointer+1,R31
                 ; 0002 02A6 
                 ; 0002 02A7 	FontWidth 				= pgm_read_byte(&FontPointer[2]);
000f33 940e 1c8a 	CALL SUBOPT_0x28
000f35 9632      	ADIW R30,2
000f36 9004      	LPM  R0,Z
000f37 9200 02d4 	STS  _FontWidth,R0
                 ; 0002 02A8 	FontHeight				= pgm_read_byte(&FontPointer[3]);
000f39 940e 1c8a 	CALL SUBOPT_0x28
000f3b 9633      	ADIW R30,3
000f3c 9004      	LPM  R0,Z
000f3d 9200 02d5 	STS  _FontHeight,R0
                 ; 0002 02A9 
                 ; 0002 02AA 	fontSize					=	pgm_read_word(&FontPointer[0]);
000f3f 940e 1c8a 	CALL SUBOPT_0x28
000f41 940e 2108 	CALL __GETW1PF
000f43 93e0 0320 	STS  _fontSize,R30
000f45 93f0 0321 	STS  _fontSize+1,R31
                 ; 0002 02AB 	firstchar 				=	pgm_read_byte(&FontPointer[5]);
000f47 940e 1c8a 	CALL SUBOPT_0x28
000f49 9635      	ADIW R30,5
000f4a 9004      	LPM  R0,Z
000f4b 9200 0322 	STS  _firstchar,R0
                 ; 0002 02AC 	lastchar 					=	pgm_read_byte(&FontPointer[6]);
000f4d 940e 1c8a 	CALL SUBOPT_0x28
000f4f 9636      	ADIW R30,6
000f50 9004      	LPM  R0,Z
000f51 9200 0323 	STS  _lastchar,R0
                 ; 0002 02AD }	//*LcdFont
000f53 940c 142b 	JMP  _0x216000F
                 ; .FEND
                 ;
                 ;void SetLetter(Lt_Mode L)
                 ; 0002 02B0 {
                 _SetLetter:
                 ; .FSTART _SetLetter
                 ; 0002 02B1 	#if (PersianSupport ==1)
                 ; 0002 02B2 		peLETTER = L;
000f55 93aa      	ST   -Y,R26
                 ;	L -> Y+0
000f56 81e8      	LD   R30,Y
000f57 93e0 02de 	STS  _peLETTER,R30
                 ; 0002 02B3 
                 ; 0002 02B4 		if(L == P_LETTER)
000f59 81a8      	LD   R26,Y
000f5a 30a1      	CPI  R26,LOW(0x1)
000f5b f429      	BRNE _0x400F5
                 ; 0002 02B5 			cursorX = GetMaxX();
000f5c e7ef      	LDI  R30,LOW(127)
000f5d e0f0      	LDI  R31,HIGH(127)
000f5e 940e 1c65 	CALL SUBOPT_0x22
                 ; 0002 02B6 		else
000f60 c002      	RJMP _0x400F6
                 _0x400F5:
                 ; 0002 02B7 			cursorX = 0;
000f61 940e 1b84 	CALL SUBOPT_0xC
                 ; 0002 02B8 	#endif
                 ; 0002 02B9 }	//*SetLetter
                 _0x400F6:
000f63 940c 13fe 	JMP  _0x2160011
                 ; .FEND
                 ;
                 ;void SetLine(unsigned char line,unsigned char column)
                 ; 0002 02BC {
                 _SetLine:
                 ; .FSTART _SetLine
                 ; 0002 02BD 	#if (PersianSupport ==1)
                 ; 0002 02BE 		if(peLETTER == P_LETTER)
000f65 93aa      	ST   -Y,R26
                 ;	line -> Y+1
                 ;	column -> Y+0
000f66 91a0 02de 	LDS  R26,_peLETTER
000f68 30a1      	CPI  R26,LOW(0x1)
000f69 f429      	BRNE _0x400F7
                 ; 0002 02BF 			cursorX =GetMaxX() - (unsigned int)FontWidth  * FontXScale * column;
000f6a 940e 1c8f 	CALL SUBOPT_0x29
000f6c 940e 1c6a 	CALL SUBOPT_0x23
                 ; 0002 02C0 		else
000f6e c006      	RJMP _0x400F8
                 _0x400F7:
                 ; 0002 02C1 	#endif
                 ; 0002 02C2 			cursorX =(unsigned int)FontWidth  * FontXScale * column;
000f6f 940e 1c8f 	CALL SUBOPT_0x29
000f71 940e 2065 	CALL __MULW12U
000f73 940e 1c65 	CALL SUBOPT_0x22
                 ; 0002 02C3 
                 ; 0002 02C4 	cursorY =(unsigned int)(FontHeight +FontSpaceY)* FontYScale * line;
                 _0x400F8:
000f75 91a0 02d5 	LDS  R26,_FontHeight
000f77 27bb      	CLR  R27
000f78 91e0 02d9 	LDS  R30,_FontSpaceY
000f7a e0f0      	LDI  R31,0
000f7b 0fae      	ADD  R26,R30
000f7c 1fbf      	ADC  R27,R31
000f7d 91e0 02d7 	LDS  R30,_FontYScale
000f7f e0f0      	LDI  R31,0
000f80 940e 2065 	CALL __MULW12U
000f82 01df      	MOVW R26,R30
000f83 81e9      	LDD  R30,Y+1
000f84 e0f0      	LDI  R31,0
000f85 940e 2065 	CALL __MULW12U
000f87 93e0 02dc 	STS  _cursorY,R30
000f89 93f0 02dd 	STS  _cursorY+1,R31
                 ; 0002 02C5 }	//*SetLine
000f8b 940c 142b 	JMP  _0x216000F
                 ; .FEND
                 ;
                 ;
                 ;//-------------------------------------------------
                 ;//**** draw char
                 ;void PutChar(unsigned char c)
                 ; 0002 02CB {
                 _PutChar:
                 ; .FSTART _PutChar
                 ; 0002 02CC 	#if (PersianSupport ==1)
                 ; 0002 02CD 	  if(peLETTER == P_LETTER)
000f8d 93aa      	ST   -Y,R26
                 ;	c -> Y+0
000f8e 91a0 02de 	LDS  R26,_peLETTER
000f90 30a1      	CPI  R26,LOW(0x1)
000f91 f419      	BRNE _0x400F9
                 ; 0002 02CE 			PutCharPE(c);
000f92 81a8      	LD   R26,Y
000f93 ddb4      	RCALL _PutCharPE
                 ; 0002 02CF 		else
000f94 c002      	RJMP _0x400FA
                 _0x400F9:
                 ; 0002 02D0 	#endif
                 ; 0002 02D1 			PutCharEN(c);
000f95 81a8      	LD   R26,Y
000f96 dcb7      	RCALL _PutCharEN
                 ; 0002 02D2 }	//*PutChar
                 _0x400FA:
000f97 940c 13fe 	JMP  _0x2160011
                 ; .FEND
                 ;
                 ;//**** draw string
                 ;void Puts(char *Text)
                 ; 0002 02D6 {
                 _Puts:
                 ; .FSTART _Puts
                 ; 0002 02D7 	unsigned int		i = 0;
                 ; 0002 02D8 
                 ; 0002 02D9 	#if (PersianSupport ==1)
                 ; 0002 02DA 	  if(peLETTER == P_LETTER)
000f99 93ba      	ST   -Y,R27
000f9a 93aa      	ST   -Y,R26
000f9b 931a      	ST   -Y,R17
000f9c 930a      	ST   -Y,R16
                 ;	*Text -> Y+2
                 ;	i -> R16,R17
                +
000f9d e000     +LDI R16 , LOW ( 0 )
000f9e e010     +LDI R17 , HIGH ( 0 )
                 	__GETWRN 16,17,0
000f9f 91a0 02de 	LDS  R26,_peLETTER
000fa1 30a1      	CPI  R26,LOW(0x1)
000fa2 f421      	BRNE _0x400FB
                 ; 0002 02DB 	  {
                 ; 0002 02DC 			PutsPE(Text);
000fa3 81aa      	LDD  R26,Y+2
000fa4 81bb      	LDD  R27,Y+2+1
000fa5 de79      	RCALL _PutsPE
                 ; 0002 02DD 		}
                 ; 0002 02DE 		else
000fa6 c012      	RJMP _0x400FC
                 _0x400FB:
                 ; 0002 02DF 	#endif
                 ; 0002 02E0 		{
                 ; 0002 02E1 			while(Text[i])
                 _0x400FD:
000fa7 01f8      	MOVW R30,R16
000fa8 81aa      	LDD  R26,Y+2
000fa9 81bb      	LDD  R27,Y+2+1
000faa 0fae      	ADD  R26,R30
000fab 1fbf      	ADC  R27,R31
000fac 91ec      	LD   R30,X
000fad 30e0      	CPI  R30,0
000fae f051      	BREQ _0x400FF
                 ; 0002 02E2 				PutCharEN(Text[i++]);
000faf 01f8      	MOVW R30,R16
                +
000fb0 5f0f     +SUBI R16 , LOW ( - 1 )
000fb1 4f1f     +SBCI R17 , HIGH ( - 1 )
                 	__ADDWRN 16,17,1
000fb2 81aa      	LDD  R26,Y+2
000fb3 81bb      	LDD  R27,Y+2+1
000fb4 0fae      	ADD  R26,R30
000fb5 1fbf      	ADC  R27,R31
000fb6 91ac      	LD   R26,X
000fb7 dc96      	RCALL _PutCharEN
000fb8 cfee      	RJMP _0x400FD
                 _0x400FF:
                 ; 0002 02E3 }
                 _0x400FC:
                 ; 0002 02E4 }	//*Puts
000fb9 8119      	LDD  R17,Y+1
000fba 8108      	LDD  R16,Y+0
000fbb c0e4      	RJMP _0x2160015
                 ; .FEND
                 ;
                 ;
                 ;/****************************************************************************
                 ;Image data created by the LCD Vision V1.05 font & image editor/converter
                 ;(C) Copyright 2011-2013 Pavel Haiduc, HP InfoTech s.r.l.
                 ;http://www.hpinfotech.com
                 ;
                 ;Graphic LCD controller: ST7920 128x64 8bit Bus /RST PSB=1
                 ;Image width: 128 pixels
                 ;Image height: 64 pixels
                 ;Color depth: 1 bits/pixel
                 ;Imported image file name: truck.bmp
                 ;
                 ;Exported monochrome image data size:
                 ;1028 bytes for displays organized as horizontal rows of bytes
                 ;1028 bytes for displays organized as rows of vertical bytes.
                 ;****************************************************************************/
                 ;
                 ;flash unsigned char truck[]=
                 ;{
                 ;/* Image width: 128 pixels */
                 ;0x80, 0x00,
                 ;/* Image height: 64 pixels */
                 ;0x40, 0x00,
                 ;#ifndef _GLCD_DATA_BYTEY_
                 ;/* Image data for monochrome displays organized
                 ;   as horizontal rows of bytes */
                 ;0x00, 0x00, 0x00, 0x00, 0x00, 0x00, 0x00, 0x00,
                 ;0x00, 0x00, 0x00, 0x00, 0x00, 0x00, 0x00, 0x00,
                 ;0x00, 0x00, 0x00, 0x00, 0x00, 0x00, 0x00, 0x00,
                 ;0x00, 0x00, 0x00, 0x00, 0x00, 0x00, 0x00, 0x00,
                 ;0x00, 0x00, 0x00, 0x00, 0x00, 0x00, 0x00, 0x00,
                 ;0x00, 0x00, 0x00, 0x00, 0x00, 0x00, 0x00, 0x00,
                 ;0x00, 0x00, 0x00, 0x00, 0x00, 0x00, 0x00, 0x00,
                 ;0x00, 0x00, 0x00, 0x00, 0x00, 0x00, 0x00, 0x00,
                 ;0x00, 0x00, 0x00, 0x00, 0x00, 0x00, 0x00, 0x00,
                 ;0x00, 0x00, 0x00, 0x00, 0x00, 0x00, 0x00, 0x00,
                 ;0x00, 0x00, 0x00, 0x00, 0x00, 0x00, 0x00, 0x00,
                 ;0x00, 0x00, 0x00, 0x00, 0x00, 0x00, 0x00, 0x00,
                 ;0x00, 0x00, 0x00, 0x00, 0x00, 0x00, 0x00, 0x00,
                 ;0x00, 0x00, 0x00, 0x00, 0x00, 0x00, 0x00, 0x00,
                 ;0x00, 0x00, 0x00, 0x00, 0x00, 0x00, 0x00, 0x00,
                 ;0x00, 0x00, 0x00, 0x00, 0x00, 0x00, 0x00, 0x00,
                 ;0x00, 0x00, 0x00, 0x00, 0x00, 0x00, 0x00, 0x00,
                 ;0x00, 0x00, 0x00, 0x00, 0x00, 0x00, 0x00, 0x00,
                 ;0x00, 0x00, 0x00, 0x00, 0x00, 0x00, 0x00, 0x00,
                 ;0x00, 0x00, 0x00, 0x00, 0x00, 0x00, 0x00, 0x00,
                 ;0x00, 0x00, 0x00, 0x00, 0x00, 0x00, 0x00, 0x00,
                 ;0x00, 0x00, 0x00, 0x00, 0x00, 0x00, 0x00, 0x00,
                 ;0x00, 0x00, 0x00, 0x00, 0x00, 0x00, 0x00, 0x00,
                 ;0x00, 0x00, 0x00, 0x00, 0x00, 0x00, 0x00, 0x00,
                 ;0x00, 0x00, 0x00, 0x00, 0x00, 0x00, 0x00, 0x00,
                 ;0x00, 0x00, 0x00, 0x00, 0x00, 0x00, 0x00, 0x00,
                 ;0x00, 0x00, 0x80, 0xFF, 0xFF, 0xFF, 0xFF, 0xFF,
                 ;0xFF, 0xEF, 0x3F, 0x00, 0x00, 0x00, 0x00, 0x00,
                 ;0x00, 0x00, 0x7E, 0x00, 0x00, 0x00, 0x00, 0x00,
                 ;0xE0, 0x07, 0x00, 0x07, 0x00, 0x00, 0x00, 0x00,
                 ;0x00, 0xF0, 0x01, 0x00, 0x00, 0x00, 0x00, 0x00,
                 ;0xDC, 0x00, 0x00, 0x10, 0x00, 0x00, 0x00, 0x00,
                 ;0x80, 0xFF, 0xFF, 0xFF, 0xFF, 0xFF, 0xFF, 0xFF,
                 ;0x13, 0x00, 0x00, 0x30, 0x00, 0x00, 0x00, 0x00,
                 ;0x20, 0x00, 0x00, 0x00, 0x00, 0x00, 0x00, 0x20,
                 ;0x08, 0x00, 0x00, 0x0C, 0x00, 0x00, 0x00, 0x00,
                 ;0x20, 0xF0, 0xC0, 0xC3, 0x03, 0x7C, 0xF8, 0x27,
                 ;0x08, 0x00, 0x80, 0x51, 0x00, 0x00, 0x00, 0x00,
                 ;0x20, 0xF0, 0xC0, 0xC3, 0x07, 0x7E, 0xF8, 0x27,
                 ;0xE8, 0xFF, 0x4F, 0x00, 0x00, 0x00, 0x00, 0x00,
                 ;0x20, 0xF0, 0xC0, 0xC3, 0x0F, 0x7E, 0xF8, 0x2F,
                 ;0x08, 0x00, 0x50, 0xA0, 0x00, 0x00, 0x00, 0x00,
                 ;0x20, 0xF0, 0xC0, 0xC3, 0x1F, 0x7F, 0x78, 0x20,
                 ;0x28, 0x00, 0xA0, 0x80, 0x1D, 0x00, 0x00, 0x00,
                 ;0x20, 0xF0, 0xC0, 0xC3, 0xBF, 0x7F, 0xF8, 0x23,
                 ;0x08, 0x00, 0x20, 0xE0, 0x0E, 0x0F, 0x00, 0x00,
                 ;0x20, 0xF0, 0xC0, 0xC3, 0xFF, 0x7F, 0xF8, 0x23,
                 ;0x28, 0x00, 0x20, 0x09, 0xC3, 0x07, 0x02, 0x00,
                 ;0x20, 0xF0, 0xC0, 0xC3, 0xFF, 0x7F, 0xF8, 0x23,
                 ;0x20, 0x00, 0x00, 0x40, 0x00, 0xE0, 0x0C, 0x00,
                 ;0x20, 0xF0, 0xC0, 0xC3, 0xFB, 0x7B, 0x78, 0x20,
                 ;0xD0, 0xFF, 0x7F, 0xE0, 0x00, 0x00, 0x64, 0x00,
                 ;0x20, 0xF0, 0xCF, 0xC3, 0xFB, 0x79, 0xF8, 0x2F,
                 ;0xD8, 0x01, 0x80, 0x10, 0xF8, 0x00, 0x68, 0x00,
                 ;0x20, 0xF0, 0xCF, 0xC3, 0xF3, 0x78, 0xF8, 0x27,
                 ;0x48, 0x00, 0x80, 0x00, 0x00, 0xE0, 0x60, 0x01,
                 ;0x20, 0xF0, 0xCF, 0xC3, 0x63, 0x78, 0xF8, 0x2F,
                 ;0x18, 0x00, 0xC0, 0x06, 0x80, 0x1F, 0x31, 0x01,
                 ;0xE0, 0xFF, 0xFF, 0xFF, 0xFF, 0xFF, 0xFF, 0x3F,
                 ;0x1E, 0x00, 0xC0, 0x01, 0x00, 0x80, 0x73, 0x01,
                 ;0xC0, 0xFF, 0xFF, 0xFF, 0xFF, 0xFF, 0xFF, 0xFF,
                 ;0x1D, 0x00, 0x60, 0x00, 0x00, 0x00, 0x35, 0x00,
                 ;0x00, 0x02, 0x00, 0x00, 0x00, 0x00, 0x00, 0x00,
                 ;0x1A, 0x00, 0x00, 0x00, 0x00, 0x00, 0xD0, 0x00,
                 ;0x00, 0xFE, 0xFF, 0xFF, 0xFF, 0xFF, 0xFF, 0xFF,
                 ;0x1F, 0x00, 0x10, 0x00, 0x00, 0x00, 0x11, 0x00,
                 ;0x00, 0x00, 0xFC, 0x1F, 0x62, 0xFF, 0xFF, 0xFF,
                 ;0x0F, 0x00, 0x10, 0x00, 0x00, 0x00, 0x81, 0x00,
                 ;0x00, 0x00, 0xFC, 0xF9, 0x87, 0xFD, 0xFF, 0xFF,
                 ;0x1F, 0x00, 0x10, 0x00, 0xFE, 0x07, 0x21, 0x00,
                 ;0x00, 0x00, 0xFC, 0xFE, 0x0F, 0xF7, 0xFF, 0xFF,
                 ;0xFF, 0xFF, 0x07, 0x80, 0xFF, 0x3F, 0x4F, 0x00,
                 ;0x00, 0x00, 0xFC, 0xFF, 0x7F, 0xDE, 0xFF, 0xFF,
                 ;0xFF, 0xFF, 0x07, 0xC0, 0xFF, 0x3F, 0x14, 0x00,
                 ;0x00, 0x00, 0xFC, 0xCF, 0xF3, 0xDC, 0xFF, 0xFF,
                 ;0xFF, 0xFF, 0x0F, 0xC0, 0x93, 0x7C, 0x12, 0x03,
                 ;0x00, 0x00, 0xFC, 0x77, 0xEC, 0xB9, 0xFF, 0xFF,
                 ;0xFF, 0xFF, 0x0F, 0xC0, 0x1D, 0xFB, 0x64, 0x02,
                 ;0x00, 0x00, 0xC0, 0x8B, 0xD1, 0xF1, 0x7F, 0x80,
                 ;0x03, 0x04, 0x1E, 0xE0, 0x16, 0xB0, 0x0F, 0x01,
                 ;0x00, 0x00, 0xE0, 0x8B, 0xE5, 0xF1, 0x9F, 0xBF,
                 ;0x3F, 0x00, 0xF0, 0xEB, 0x0E, 0x20, 0x80, 0x00,
                 ;0x00, 0xFC, 0xFF, 0x6F, 0xA0, 0xF1, 0xFF, 0xFF,
                 ;0xFF, 0xFF, 0xFF, 0x7F, 0x9A, 0x68, 0x30, 0x00,
                 ;0x00, 0xFE, 0xFF, 0xEF, 0xA0, 0xF7, 0xFF, 0xFF,
                 ;0xFF, 0xFF, 0xFF, 0xFF, 0x1E, 0xED, 0x00, 0x00,
                 ;0xE0, 0xFF, 0xFF, 0xCB, 0xC1, 0xF7, 0xFF, 0xFF,
                 ;0xFF, 0xFF, 0xFF, 0xFF, 0xFE, 0xF0, 0x01, 0x00,
                 ;0xE0, 0xFF, 0xFF, 0x37, 0xEC, 0xFF, 0xFF, 0xFF,
                 ;0xFF, 0xFF, 0xFF, 0xFF, 0x1D, 0xF2, 0xFD, 0x00,
                 ;0xE0, 0xFF, 0xFF, 0xEF, 0xF1, 0xBB, 0xFF, 0xFF,
                 ;0xFF, 0xFF, 0xFF, 0xFF, 0xB3, 0x7C, 0xFE, 0x01,
                 ;0xF0, 0xFF, 0xFF, 0x3F, 0xFC, 0xFF, 0xFF, 0xFF,
                 ;0xFF, 0xFF, 0xFF, 0xEF, 0x1F, 0x7F, 0x7F, 0x00,
                 ;0xF8, 0xFF, 0xFF, 0xFF, 0xFF, 0xEF, 0xFF, 0xFF,
                 ;0xFF, 0xFF, 0xFF, 0xFF, 0xFF, 0x9F, 0xFF, 0x00,
                 ;0xF8, 0xFF, 0xFF, 0xFD, 0xFF, 0xFB, 0xFF, 0xFF,
                 ;0xFF, 0xFF, 0xFF, 0x7F, 0xFF, 0xFF, 0xFF, 0x03,
                 ;0x80, 0xFF, 0xFF, 0xF7, 0x7F, 0xFE, 0xFF, 0xFF,
                 ;0xFF, 0xFF, 0xFF, 0xFF, 0xFD, 0xFB, 0xFF, 0x03,
                 ;0x00, 0xFC, 0xFF, 0x3F, 0xF8, 0xFF, 0xFF, 0xFF,
                 ;0xFF, 0xFF, 0xFF, 0xFF, 0xDF, 0xFF, 0x7F, 0x00,
                 ;0x00, 0x80, 0x3B, 0xFF, 0xFF, 0xFF, 0xFF, 0xFF,
                 ;0xFF, 0xFF, 0xFF, 0xFF, 0xFF, 0xFF, 0x1F, 0x00,
                 ;0x00, 0x00, 0x00, 0x00, 0xC0, 0xFF, 0xE3, 0xFF,
                 ;0xFF, 0xFF, 0xFF, 0xFF, 0xFF, 0xFF, 0x07, 0x00,
                 ;0x00, 0x00, 0x00, 0xE0, 0xFF, 0xFF, 0xFF, 0xFF,
                 ;0xFF, 0xFF, 0xFF, 0xFF, 0xFF, 0x0F, 0x04, 0x00,
                 ;0x00, 0x00, 0x00, 0x00, 0xF0, 0xFF, 0x5C, 0xFF,
                 ;0xFF, 0xFF, 0xFF, 0xC3, 0xFF, 0x07, 0x00, 0x00,
                 ;0x00, 0x00, 0x00, 0x00, 0xE0, 0xFF, 0xFF, 0xFF,
                 ;0xFF, 0xFF, 0x0F, 0xFF, 0xFF, 0x01, 0x00, 0x00,
                 ;0x00, 0x00, 0x00, 0x00, 0x00, 0x60, 0x03, 0xF0,
                 ;0xFF, 0x1F, 0xF8, 0x3F, 0xFE, 0x00, 0x00, 0x00,
                 ;0x00, 0x00, 0x00, 0x00, 0x00, 0x00, 0x00, 0x00,
                 ;0xF0, 0xFF, 0x7F, 0xF8, 0xFF, 0x01, 0x00, 0x00,
                 ;0x00, 0x00, 0x00, 0x00, 0x00, 0x00, 0x00, 0x00,
                 ;0x00, 0xE8, 0xC1, 0xC1, 0x7F, 0x00, 0x00, 0x00,
                 ;0x00, 0x00, 0x00, 0x00, 0x00, 0x00, 0x00, 0x00,
                 ;0x80, 0x27, 0x00, 0x00, 0xF7, 0x00, 0x00, 0x00,
                 ;0x00, 0x00, 0x00, 0x00, 0x00, 0x00, 0x00, 0x00,
                 ;0x00, 0x00, 0xDC, 0x1B, 0x00, 0x00, 0x00, 0x00,
                 ;0x00, 0x00, 0x00, 0x00, 0x00, 0x00, 0x00, 0x00,
                 ;0x00, 0x00, 0x00, 0x00, 0x00, 0x00, 0x00, 0x00,
                 ;0x00, 0x00, 0x00, 0x00, 0x00, 0x00, 0x00, 0x00,
                 ;0x00, 0x00, 0x00, 0x00, 0x00, 0x00, 0x00, 0x00,
                 ;0x00, 0x00, 0x00, 0x00, 0x00, 0x00, 0x00, 0x00,
                 ;0x00, 0x00, 0x00, 0x00, 0x00, 0x00, 0x00, 0x00,
                 ;#else
                 ;/* Image data for monochrome displays organized
                 ;   as rows of vertical bytes */
                 ;0x00, 0x00, 0x00, 0x00, 0x00, 0x00, 0x00, 0x00,
                 ;0x00, 0x00, 0x00, 0x00, 0x00, 0x00, 0x00, 0x00,
                 ;0x00, 0x00, 0x00, 0x00, 0x00, 0x00, 0x00, 0x00,
                 ;0x00, 0x00, 0x00, 0x00, 0x00, 0x00, 0x00, 0x00,
                 ;0x00, 0x00, 0x00, 0x00, 0x00, 0x00, 0x00, 0x00,
                 ;0x00, 0x00, 0x00, 0x00, 0x00, 0x00, 0x00, 0x00,
                 ;0x00, 0x00, 0x00, 0x00, 0x00, 0x00, 0x00, 0x00,
                 ;0x00, 0x00, 0x00, 0x00, 0x00, 0x00, 0x00, 0x00,
                 ;0x00, 0x00, 0x00, 0x00, 0x00, 0x00, 0x00, 0x00,
                 ;0x00, 0x00, 0x00, 0x00, 0x00, 0x00, 0x00, 0x00,
                 ;0x00, 0x00, 0x00, 0x00, 0x00, 0x00, 0x00, 0x00,
                 ;0x00, 0x00, 0x00, 0x00, 0x00, 0x00, 0x00, 0x00,
                 ;0x00, 0x00, 0x00, 0x00, 0x00, 0x00, 0x00, 0x00,
                 ;0x00, 0x00, 0x00, 0x00, 0x00, 0x00, 0x00, 0x00,
                 ;0x00, 0x00, 0x00, 0x00, 0x00, 0x00, 0x00, 0x00,
                 ;0x00, 0x00, 0x00, 0x00, 0x00, 0x00, 0x00, 0x00,
                 ;0x00, 0x00, 0x00, 0x00, 0x00, 0x00, 0x00, 0x00,
                 ;0x00, 0x00, 0x00, 0x00, 0x80, 0x80, 0x80, 0x80,
                 ;0x80, 0x40, 0x40, 0x40, 0x40, 0x40, 0x40, 0x20,
                 ;0x20, 0x20, 0x20, 0x20, 0x20, 0x20, 0x20, 0x20,
                 ;0x20, 0x20, 0x20, 0x20, 0x20, 0x20, 0x20, 0x20,
                 ;0x20, 0x20, 0x20, 0x20, 0x20, 0x20, 0x20, 0x20,
                 ;0x20, 0x20, 0x20, 0x20, 0x20, 0x20, 0x20, 0x20,
                 ;0x20, 0x20, 0x20, 0x20, 0x20, 0x20, 0x20, 0x20,
                 ;0x20, 0x20, 0xA0, 0xA0, 0xA0, 0x60, 0xE0, 0xE0,
                 ;0x60, 0x60, 0x60, 0x20, 0x00, 0x20, 0x20, 0x20,
                 ;0x20, 0x20, 0x20, 0x20, 0x20, 0x20, 0x00, 0x00,
                 ;0x40, 0x40, 0x40, 0x00, 0x80, 0x00, 0x00, 0x00,
                 ;0x00, 0x00, 0x00, 0x00, 0x00, 0x00, 0x00, 0x00,
                 ;0x00, 0x00, 0x00, 0x00, 0x00, 0x00, 0x00, 0x00,
                 ;0x00, 0x00, 0x00, 0x00, 0x00, 0x00, 0x00, 0x00,
                 ;0x00, 0x00, 0x00, 0x00, 0x00, 0x00, 0x00, 0x00,
                 ;0x00, 0x00, 0x00, 0x00, 0x00, 0xFE, 0x00, 0x01,
                 ;0x01, 0x01, 0x01, 0x01, 0xFD, 0xFD, 0xFD, 0xFD,
                 ;0x01, 0x01, 0x01, 0x01, 0x01, 0x01, 0xFD, 0xFD,
                 ;0xFD, 0xFD, 0x01, 0x01, 0x01, 0x01, 0xFD, 0xFD,
                 ;0xFD, 0xFD, 0xF9, 0xF1, 0xE1, 0xC1, 0x81, 0xC1,
                 ;0xE1, 0xF9, 0xFD, 0xFD, 0xFD, 0xFD, 0xFD, 0x01,
                 ;0x01, 0x01, 0x01, 0xFD, 0xFD, 0xFD, 0xFD, 0xDD,
                 ;0xDD, 0xDD, 0x1D, 0x11, 0x01, 0xFF, 0x01, 0x01,
                 ;0x01, 0x01, 0x00, 0xFE, 0x01, 0xA8, 0x08, 0x08,
                 ;0x08, 0x08, 0x08, 0x08, 0x08, 0x08, 0x08, 0x08,
                 ;0x08, 0x08, 0x08, 0x08, 0x10, 0xE0, 0x18, 0x24,
                 ;0x84, 0x00, 0x02, 0x82, 0x05, 0x51, 0x44, 0x70,
                 ;0xA0, 0xC0, 0x60, 0x60, 0x20, 0x00, 0x80, 0x80,
                 ;0xC0, 0xC0, 0xC0, 0x40, 0x00, 0x00, 0x00, 0x00,
                 ;0x00, 0x80, 0x00, 0x00, 0x00, 0x00, 0x00, 0x00,
                 ;0x00, 0x00, 0x00, 0x00, 0x00, 0x00, 0x00, 0x00,
                 ;0x00, 0x00, 0x00, 0x00, 0x00, 0x3F, 0x60, 0x60,
                 ;0x60, 0xE0, 0x60, 0x60, 0x7F, 0x7F, 0x7F, 0x7F,
                 ;0x7C, 0x7C, 0x7C, 0x7C, 0x60, 0x60, 0x7F, 0x7F,
                 ;0x7F, 0x7F, 0x60, 0x60, 0x60, 0x60, 0x7F, 0x7F,
                 ;0x7F, 0x7F, 0x61, 0x67, 0x6F, 0x7F, 0x7F, 0x6F,
                 ;0x67, 0x63, 0x61, 0x7F, 0x7F, 0x7F, 0x7F, 0x60,
                 ;0x60, 0x60, 0x60, 0x7F, 0x7F, 0x7F, 0x7F, 0x7D,
                 ;0x7D, 0x7D, 0x7C, 0x74, 0x60, 0x7F, 0x40, 0x40,
                 ;0x40, 0xA0, 0x60, 0xFC, 0xF6, 0x01, 0x0E, 0x06,
                 ;0x06, 0x02, 0x02, 0x02, 0x02, 0x02, 0x02, 0x02,
                 ;0x02, 0x02, 0x02, 0x02, 0x02, 0x42, 0x72, 0x3C,
                 ;0x20, 0x10, 0x10, 0x00, 0x04, 0x02, 0x03, 0x02,
                 ;0x00, 0x00, 0x00, 0x04, 0x04, 0x04, 0x04, 0x14,
                 ;0x10, 0x10, 0x10, 0x10, 0x10, 0x09, 0x09, 0x29,
                 ;0x70, 0x20, 0x43, 0x05, 0xF0, 0x7E, 0xAE, 0x80,
                 ;0x38, 0x00, 0x00, 0x00, 0x00, 0x00, 0x00, 0x00,
                 ;0x00, 0x00, 0x00, 0x00, 0x00, 0x00, 0x00, 0x00,
                 ;0x00, 0x01, 0x01, 0x01, 0x01, 0x01, 0x01, 0x01,
                 ;0x01, 0x01, 0x7F, 0x7F, 0x7F, 0x7F, 0xFF, 0xFF,
                 ;0xF7, 0xFB, 0x7B, 0xBF, 0x5F, 0x5D, 0x7D, 0xBD,
                 ;0xBD, 0x3F, 0x5D, 0x59, 0xB1, 0x73, 0xF3, 0xE5,
                 ;0xCF, 0x1B, 0x3F, 0x77, 0xFF, 0xCF, 0xBF, 0xFF,
                 ;0xFF, 0xFF, 0xFF, 0xFF, 0xFF, 0xFF, 0xFF, 0x7F,
                 ;0x7F, 0x7F, 0x7F, 0x7F, 0x7F, 0x7F, 0x7F, 0xFF,
                 ;0xFF, 0xFF, 0x7F, 0x7F, 0x7D, 0x78, 0x78, 0x78,
                 ;0x78, 0x78, 0xF8, 0x78, 0x78, 0x78, 0x78, 0x78,
                 ;0x78, 0xF8, 0xF8, 0xE0, 0x87, 0x00, 0x00, 0x00,
                 ;0x00, 0x00, 0x00, 0x00, 0x00, 0x80, 0xF0, 0xF8,
                 ;0x78, 0xBC, 0xDC, 0x5C, 0xFC, 0x1C, 0x1C, 0x3C,
                 ;0x5C, 0x5C, 0x3C, 0x78, 0xF8, 0xF8, 0x60, 0xC0,
                 ;0x8F, 0xA8, 0xD8, 0x88, 0x31, 0x44, 0x48, 0x02,
                 ;0xA0, 0x60, 0x00, 0x00, 0x00, 0x00, 0x00, 0x00,
                 ;0x00, 0x00, 0x00, 0x80, 0xC0, 0xF8, 0xF8, 0xF8,
                 ;0xF8, 0xFC, 0xFE, 0xFE, 0xFE, 0xFE, 0xFE, 0xFE,
                 ;0xFE, 0xFE, 0xFE, 0xFE, 0xFE, 0xFF, 0xFF, 0xFF,
                 ;0xFF, 0xFF, 0xF6, 0xEF, 0xD0, 0xF6, 0xAE, 0xAD,
                 ;0xA9, 0x80, 0xD1, 0xD0, 0xE0, 0xF7, 0xF9, 0xFF,
                 ;0xFF, 0xFC, 0xDC, 0xF0, 0x7F, 0xFF, 0xDF, 0xFF,
                 ;0xFF, 0xFF, 0xFF, 0xFF, 0xFF, 0xFE, 0xFE, 0xFF,
                 ;0xFF, 0xFF, 0xFF, 0xFF, 0xFF, 0xFF, 0xFE, 0xFF,
                 ;0xFF, 0xFF, 0xFF, 0xFF, 0xFF, 0xFF, 0xFE, 0xFE,
                 ;0xFE, 0xFE, 0xFE, 0xFE, 0xFE, 0xFE, 0xFE, 0xFE,
                 ;0xFE, 0xFE, 0xFE, 0xFE, 0xFF, 0xFF, 0xFF, 0xFF,
                 ;0xFF, 0xFF, 0xFE, 0xFF, 0xBE, 0xFF, 0xFF, 0xFD,
                 ;0xF0, 0xEF, 0xDD, 0xDF, 0xFE, 0xA8, 0x88, 0xAA,
                 ;0xC4, 0xD0, 0xE4, 0xE6, 0xF8, 0x7F, 0x7E, 0x9C,
                 ;0xD8, 0xE0, 0xF0, 0xF0, 0xF2, 0xF2, 0xF0, 0xB1,
                 ;0x20, 0x00, 0x00, 0x00, 0x00, 0x00, 0x00, 0x00,
                 ;0x00, 0x00, 0x00, 0x01, 0x01, 0x01, 0x01, 0x03,
                 ;0x03, 0x03, 0x07, 0x07, 0x07, 0x07, 0x07, 0x0F,
                 ;0x0F, 0x0F, 0x07, 0x0F, 0x0F, 0x0F, 0x07, 0x07,
                 ;0x0F, 0x0E, 0x0F, 0x0D, 0x0F, 0x2F, 0x2B, 0x2B,
                 ;0x2B, 0x2B, 0x2B, 0x2F, 0x6F, 0xEF, 0xFF, 0xFD,
                 ;0xFD, 0xFF, 0xFE, 0xFF, 0xFF, 0xFF, 0xFF, 0xFF,
                 ;0xBF, 0xBF, 0xEF, 0xEF, 0xEF, 0xBF, 0xFF, 0xBF,
                 ;0xFF, 0xFF, 0xFF, 0xFF, 0xFF, 0xFF, 0xFF, 0xFF,
                 ;0xFF, 0xFF, 0xFF, 0xFF, 0xFF, 0xFF, 0xFF, 0xFF,
                 ;0xFF, 0xFF, 0xFF, 0xFF, 0xFF, 0xFF, 0xFF, 0xFF,
                 ;0xFF, 0xFF, 0xFF, 0xFF, 0x7F, 0x7F, 0x7F, 0x7F,
                 ;0xFF, 0xFF, 0xBF, 0xBF, 0xBF, 0xBF, 0xFF, 0xFE,
                 ;0xFF, 0xFD, 0xFF, 0xFF, 0xFF, 0xFB, 0xFF, 0xFF,
                 ;0xFF, 0x7F, 0x7D, 0x3F, 0x1F, 0x1F, 0x1F, 0x1F,
                 ;0x1F, 0x1F, 0x3F, 0x0F, 0x0F, 0x07, 0x07, 0x03,
                 ;0x03, 0x03, 0x00, 0x00, 0x00, 0x00, 0x00, 0x00,
                 ;0x00, 0x00, 0x00, 0x00, 0x00, 0x00, 0x00, 0x00,
                 ;0x00, 0x00, 0x00, 0x00, 0x00, 0x00, 0x00, 0x00,
                 ;0x00, 0x00, 0x00, 0x00, 0x00, 0x00, 0x00, 0x00,
                 ;0x00, 0x00, 0x00, 0x00, 0x00, 0x00, 0x00, 0x00,
                 ;0x00, 0x00, 0x00, 0x00, 0x00, 0x00, 0x00, 0x00,
                 ;0x00, 0x00, 0x00, 0x00, 0x00, 0x01, 0x01, 0x00,
                 ;0x01, 0x01, 0x00, 0x00, 0x00, 0x00, 0x00, 0x00,
                 ;0x00, 0x00, 0x00, 0x00, 0x01, 0x01, 0x01, 0x01,
                 ;0x01, 0x01, 0x01, 0x01, 0x03, 0x03, 0x03, 0x0B,
                 ;0x0B, 0x0B, 0x0B, 0x07, 0x03, 0x0E, 0x06, 0x06,
                 ;0x06, 0x02, 0x12, 0x13, 0x13, 0x03, 0x17, 0x15,
                 ;0x15, 0x11, 0x01, 0x13, 0x13, 0x03, 0x06, 0x06,
                 ;0x0E, 0x0F, 0x0F, 0x07, 0x0F, 0x0F, 0x0F, 0x0B,
                 ;0x02, 0x00, 0x00, 0x00, 0x00, 0x00, 0x00, 0x00,
                 ;0x00, 0x00, 0x00, 0x00, 0x00, 0x00, 0x00, 0x00,
                 ;0x00, 0x00, 0x00, 0x00, 0x00, 0x00, 0x00, 0x00,
                 ;#endif
                 ;};
                 ;
                 
                 	.CSEG
                 _rtc_get_time:
                 ; .FSTART _rtc_get_time
000fbc 940e 1c9b 	CALL SUBOPT_0x2A
000fbe e0a0      	LDI  R26,LOW(0)
000fbf 940e 1ca2 	CALL SUBOPT_0x2B
000fc1 940e 1cae 	CALL SUBOPT_0x2C
000fc3 940e 1cb5 	CALL SUBOPT_0x2D
000fc5 940e 1cbb 	CALL SUBOPT_0x2E
000fc7 2fae      	MOV  R26,R30
000fc8 940e 1a91 	CALL _bcd2bin
000fca 81ac      	LDD  R26,Y+4
000fcb 81bd      	LDD  R27,Y+4+1
000fcc 93ec      	ST   X,R30
000fcd 940e 1e2e 	CALL _i2c_stop
000fcf 940c 11ca 	JMP  _0x2160014
                 ; .FEND
                 _rtc_get_date:
                 ; .FSTART _rtc_get_date
000fd1 940e 1c9b 	CALL SUBOPT_0x2A
000fd3 e0a3      	LDI  R26,LOW(3)
000fd4 940e 1ca2 	CALL SUBOPT_0x2B
000fd6 81ae      	LDD  R26,Y+6
000fd7 81bf      	LDD  R27,Y+6+1
000fd8 93ec      	ST   X,R30
000fd9 940e 1cb5 	CALL SUBOPT_0x2D
000fdb 81ac      	LDD  R26,Y+4
000fdc 81bd      	LDD  R27,Y+4+1
000fdd 93ec      	ST   X,R30
000fde 940e 1cb5 	CALL SUBOPT_0x2D
000fe0 940e 1cbb 	CALL SUBOPT_0x2E
000fe2 940e 1cae 	CALL SUBOPT_0x2C
000fe4 940e 1e2e 	CALL _i2c_stop
000fe6 940c 1575 	JMP  _0x216000B
                 ; .FEND
                 	#ifndef __SLEEP_DEFINED__
                 	#endif
                 
                 	.CSEG
                 _st7920_delay_G101:
                 ; .FSTART _st7920_delay_G101
000fe8 0000          nop
000fe9 0000          nop
000fea 0000          nop
000feb 9508      	RET
                 ; .FEND
                 _st7920_wrbus_G101:
                 ; .FSTART _st7920_wrbus_G101
000fec 93aa      	ST   -Y,R26
000fed 98d9      	CBI  0x1B,1
000fee 9ad8      	SBI  0x1B,0
000fef b3ea      	IN   R30,0x1A
000ff0 6fe0      	ORI  R30,LOW(0xF0)
000ff1 bbea      	OUT  0x1A,R30
000ff2 b3eb      	IN   R30,0x1B
000ff3 70ef      	ANDI R30,LOW(0xF)
000ff4 2fae      	MOV  R26,R30
000ff5 81e8      	LD   R30,Y
000ff6 7fe0      	ANDI R30,LOW(0xF0)
000ff7 2bea      	OR   R30,R26
000ff8 bbeb      	OUT  0x1B,R30
000ff9 dfee      	RCALL _st7920_delay_G101
000ffa 98d8      	CBI  0x1B,0
000ffb b3eb      	IN   R30,0x1B
000ffc 70ef      	ANDI R30,LOW(0xF)
000ffd 2fae      	MOV  R26,R30
000ffe 81e8      	LD   R30,Y
000fff 95e2      	SWAP R30
001000 7fe0      	ANDI R30,0xF0
001001 2bea      	OR   R30,R26
001002 bbeb      	OUT  0x1B,R30
001003 940e 1cc1 	CALL SUBOPT_0x2F
001005 98d8      	CBI  0x1B,0
001006 c3f7      	RJMP _0x2160011
                 ; .FEND
                 _st7920_rdbus_G101:
                 ; .FSTART _st7920_rdbus_G101
001007 931a      	ST   -Y,R17
001008 9ad9      	SBI  0x1B,1
001009 b3ea      	IN   R30,0x1A
00100a 70ef      	ANDI R30,LOW(0xF)
00100b bbea      	OUT  0x1A,R30
00100c 9ad8      	SBI  0x1B,0
00100d dfda      	RCALL _st7920_delay_G101
00100e b3e9      	IN   R30,0x19
00100f 7fe0      	ANDI R30,LOW(0xF0)
001010 2f1e      	MOV  R17,R30
001011 98d8      	CBI  0x1B,0
001012 940e 1cc1 	CALL SUBOPT_0x2F
001014 b3e9      	IN   R30,0x19
001015 95e2      	SWAP R30
001016 70ef      	ANDI R30,0xF
001017 2b1e      	OR   R17,R30
001018 98d8      	CBI  0x1B,0
001019 2fe1      	MOV  R30,R17
00101a c018      	RJMP _0x2160016
                 ; .FEND
                 _st7920_busy_G101:
                 ; .FSTART _st7920_busy_G101
00101b 931a      	ST   -Y,R17
00101c 98da      	CBI  0x1B,2
00101d 9ad9      	SBI  0x1B,1
00101e b3ea      	IN   R30,0x1A
00101f 70ef      	ANDI R30,LOW(0xF)
001020 bbea      	OUT  0x1A,R30
                 _0x2020004:
001021 9ad8      	SBI  0x1B,0
001022 dfc5      	RCALL _st7920_delay_G101
001023 b3e9      	IN   R30,0x19
001024 78e0      	ANDI R30,LOW(0x80)
001025 e0a0      	LDI  R26,LOW(0)
001026 940e 2060 	CALL __NEB12
001028 2f1e      	MOV  R17,R30
001029 98d8      	CBI  0x1B,0
00102a 940e 1cc1 	CALL SUBOPT_0x2F
00102c 98d8      	CBI  0x1B,0
00102d dfba      	RCALL _st7920_delay_G101
00102e 3010      	CPI  R17,0
00102f f789      	BRNE _0x2020004
                +
001030 e084     +LDI R24 , LOW ( 4 )
                +__DELAY_USB_LOOP :
001031 958a     +DEC R24
001032 f7f1     +BRNE __DELAY_USB_LOOP
                 	__DELAY_USB 4
                 _0x2160016:
001033 9119      	LD   R17,Y+
001034 9508      	RET
                 ; .FEND
                 _st7920_wrdata:
                 ; .FSTART _st7920_wrdata
001035 93aa      	ST   -Y,R26
001036 dfe4      	RCALL _st7920_busy_G101
001037 9ada      	SBI  0x1B,2
001038 81a8      	LD   R26,Y
001039 dfb2      	RCALL _st7920_wrbus_G101
00103a c3c3      	RJMP _0x2160011
                 ; .FEND
                 _st7920_rddata:
                 ; .FSTART _st7920_rddata
00103b dfdf      	RCALL _st7920_busy_G101
00103c 9ada      	SBI  0x1B,2
00103d dfc9      	RCALL _st7920_rdbus_G101
00103e 9508      	RET
                 ; .FEND
                 _st7920_wrcmd:
                 ; .FSTART _st7920_wrcmd
00103f 93aa      	ST   -Y,R26
001040 dfda      	RCALL _st7920_busy_G101
001041 81a8      	LD   R26,Y
001042 dfa9      	RCALL _st7920_wrbus_G101
001043 c3ba      	RJMP _0x2160011
                 ; .FEND
                 _st7920_setxy_G101:
                 ; .FSTART _st7920_setxy_G101
001044 93aa      	ST   -Y,R26
001045 81e8      	LD   R30,Y
001046 71ef      	ANDI R30,LOW(0x1F)
001047 68e0      	ORI  R30,0x80
001048 2fae      	MOV  R26,R30
001049 dff5      	RCALL _st7920_wrcmd
00104a 81a8      	LD   R26,Y
00104b 32a0      	CPI  R26,LOW(0x20)
00104c f018      	BRLO _0x2020006
00104d 81e9      	LDD  R30,Y+1
00104e 68e0      	ORI  R30,0x80
00104f 83e9      	STD  Y+1,R30
                 _0x2020006:
001050 81e9      	LDD  R30,Y+1
001051 95e2      	SWAP R30
001052 70ef      	ANDI R30,0xF
001053 68e0      	ORI  R30,0x80
001054 2fae      	MOV  R26,R30
001055 dfe9      	RCALL _st7920_wrcmd
001056 c3d4      	RJMP _0x216000F
                 ; .FEND
                 _glcd_display:
                 ; .FSTART _glcd_display
001057 93aa      	ST   -Y,R26
001058 940e 1cc6 	CALL SUBOPT_0x30
00105a 81e8      	LD   R30,Y
00105b 30e0      	CPI  R30,0
00105c f011      	BREQ _0x2020007
00105d e0ec      	LDI  R30,LOW(12)
00105e c001      	RJMP _0x2020008
                 _0x2020007:
00105f e0e8      	LDI  R30,LOW(8)
                 _0x2020008:
001060 2fae      	MOV  R26,R30
001061 dfdd      	RCALL _st7920_wrcmd
001062 81e8      	LD   R30,Y
001063 30e0      	CPI  R30,0
001064 f011      	BREQ _0x202000A
001065 e0e2      	LDI  R30,LOW(2)
001066 c001      	RJMP _0x202000B
                 _0x202000A:
001067 e0e0      	LDI  R30,LOW(0)
                 _0x202000B:
001068 93e0 0327 	STS  _st7920_graphics_on_G101,R30
00106a 940e 1cc6 	CALL SUBOPT_0x30
00106c 940e 1ccc 	CALL SUBOPT_0x31
00106e c38f      	RJMP _0x2160011
                 ; .FEND
                 _glcd_cleartext:
                 ; .FSTART _glcd_cleartext
00106f 940e 1cc6 	CALL SUBOPT_0x30
001071 e0a1      	LDI  R26,LOW(1)
001072 dfcc      	RCALL _st7920_wrcmd
001073 e0e0      	LDI  R30,LOW(0)
001074 93e0 032a 	STS  _yt_G101,R30
001076 93e0 0329 	STS  _xt_G101,R30
001078 93ea      	ST   -Y,R30
001079 e0a0      	LDI  R26,LOW(0)
00107a d547      	RCALL _glcd_moveto
00107b 9508      	RET
                 ; .FEND
                 _glcd_cleargraphics:
                 ; .FSTART _glcd_cleargraphics
00107c 940e 2159 	CALL __SAVELOCR4
00107e e030      	LDI  R19,0
                +
00107f 91e0 02af+LDS R30 , _glcd_state + ( 1 )
                 	__GETB1MN _glcd_state,1
001081 30e0      	CPI  R30,0
001082 f009      	BREQ _0x202000D
001083 ef3f      	LDI  R19,LOW(255)
                 _0x202000D:
001084 940e 1ccc 	CALL SUBOPT_0x31
001086 e000      	LDI  R16,LOW(0)
                 _0x202000E:
001087 3400      	CPI  R16,64
001088 f488      	BRSH _0x2020010
001089 e0e0      	LDI  R30,LOW(0)
00108a 93ea      	ST   -Y,R30
00108b 2fa0      	MOV  R26,R16
00108c 5f0f      	SUBI R16,-1
00108d dfb6      	RCALL _st7920_setxy_G101
00108e e110      	LDI  R17,LOW(16)
                 _0x2020011:
00108f 2fe1      	MOV  R30,R17
001090 5011      	SUBI R17,1
001091 30e0      	CPI  R30,0
001092 f031      	BREQ _0x2020013
001093 2fa3      	MOV  R26,R19
001094 dfa0      	RCALL _st7920_wrdata
                +
001095 e084     +LDI R24 , LOW ( 4 )
                +__DELAY_USB_LOOP :
001096 958a     +DEC R24
001097 f7f1     +BRNE __DELAY_USB_LOOP
                 	__DELAY_USB 4
001098 cff6      	RJMP _0x2020011
                 _0x2020013:
001099 cfed      	RJMP _0x202000E
                 _0x2020010:
00109a e0e0      	LDI  R30,LOW(0)
00109b 93ea      	ST   -Y,R30
00109c e0a0      	LDI  R26,LOW(0)
00109d d524      	RCALL _glcd_moveto
00109e 940e 2160 	CALL __LOADLOCR4
                 _0x2160015:
0010a0 9624      	ADIW R28,4
0010a1 9508      	RET
                 ; .FEND
                 _glcd_clear:
                 ; .FSTART _glcd_clear
0010a2 dfcc      	RCALL _glcd_cleartext
0010a3 dfd8      	RCALL _glcd_cleargraphics
0010a4 9508      	RET
                 ; .FEND
                 _glcd_init:
                 ; .FSTART _glcd_init
0010a5 93ba      	ST   -Y,R27
0010a6 93aa      	ST   -Y,R26
0010a7 931a      	ST   -Y,R17
0010a8 9ad0      	SBI  0x1A,0
0010a9 98d8      	CBI  0x1B,0
0010aa 9ad1      	SBI  0x1A,1
0010ab 9ad9      	SBI  0x1B,1
0010ac 9ad2      	SBI  0x1A,2
0010ad 98da      	CBI  0x1B,2
0010ae 9ad3      	SBI  0x1A,3
0010af e3a2      	LDI  R26,LOW(50)
0010b0 e0b0      	LDI  R27,0
0010b1 940e 1e6b 	CALL _delay_ms
0010b3 98db      	CBI  0x1B,3
0010b4 e0a1      	LDI  R26,LOW(1)
0010b5 e0b0      	LDI  R27,0
0010b6 940e 1e6b 	CALL _delay_ms
0010b8 9adb      	SBI  0x1B,3
0010b9 e0a1      	LDI  R26,LOW(1)
0010ba e0b0      	LDI  R27,0
0010bb 940e 1e6b 	CALL _delay_ms
0010bd 98d9      	CBI  0x1B,1
0010be b3ea      	IN   R30,0x1A
0010bf 6fe0      	ORI  R30,LOW(0xF0)
0010c0 bbea      	OUT  0x1A,R30
0010c1 e010      	LDI  R17,LOW(0)
                 _0x2020015:
0010c2 3016      	CPI  R17,6
0010c3 f4a8      	BRSH _0x2020016
0010c4 9ad8      	SBI  0x1B,0
0010c5 b3eb      	IN   R30,0x1B
0010c6 70ef      	ANDI R30,LOW(0xF)
0010c7 2fae      	MOV  R26,R30
0010c8 2fe1      	MOV  R30,R17
0010c9 e0f0      	LDI  R31,0
0010ca 51e4      	SUBI R30,LOW(-_st7920_init_4bit_G101*2)
0010cb 4efc      	SBCI R31,HIGH(-_st7920_init_4bit_G101*2)
0010cc 91e4      	LPM  R30,Z
0010cd 2bea      	OR   R30,R26
0010ce bbeb      	OUT  0x1B,R30
                +
0010cf e182     +LDI R24 , LOW ( 18 )
                +__DELAY_USB_LOOP :
0010d0 958a     +DEC R24
0010d1 f7f1     +BRNE __DELAY_USB_LOOP
                 	__DELAY_USB 18
0010d2 98d8      	CBI  0x1B,0
                +
0010d3 e289     +LDI R24 , LOW ( 553 )
0010d4 e092     +LDI R25 , HIGH ( 553 )
                +__DELAY_USW_LOOP :
0010d5 9701     +SBIW R24 , 1
0010d6 f7f1     +BRNE __DELAY_USW_LOOP
                 	__DELAY_USW 553
0010d7 5f1f      	SUBI R17,-1
0010d8 cfe9      	RJMP _0x2020015
                 _0x2020016:
0010d9 e0a8      	LDI  R26,LOW(8)
0010da df11      	RCALL _st7920_wrbus_G101
                +
0010db e289     +LDI R24 , LOW ( 553 )
0010dc e092     +LDI R25 , HIGH ( 553 )
                +__DELAY_USW_LOOP :
0010dd 9701     +SBIW R24 , 1
0010de f7f1     +BRNE __DELAY_USW_LOOP
                 	__DELAY_USW 553
0010df e0a1      	LDI  R26,LOW(1)
0010e0 df5e      	RCALL _st7920_wrcmd
0010e1 e0af      	LDI  R26,LOW(15)
0010e2 e0b0      	LDI  R27,0
0010e3 940e 1e6b 	CALL _delay_ms
0010e5 e0e0      	LDI  R30,LOW(0)
0010e6 93e0 032a 	STS  _yt_G101,R30
0010e8 93e0 0329 	STS  _xt_G101,R30
0010ea e0a6      	LDI  R26,LOW(6)
0010eb df53      	RCALL _st7920_wrcmd
0010ec e2a4      	LDI  R26,LOW(36)
0010ed df51      	RCALL _st7920_wrcmd
0010ee e4a0      	LDI  R26,LOW(64)
0010ef df4f      	RCALL _st7920_wrcmd
0010f0 e0a2      	LDI  R26,LOW(2)
0010f1 df4d      	RCALL _st7920_wrcmd
0010f2 e0e0      	LDI  R30,LOW(0)
0010f3 93e0 0327 	STS  _st7920_graphics_on_G101,R30
0010f5 df86      	RCALL _glcd_cleargraphics
0010f6 e0a1      	LDI  R26,LOW(1)
0010f7 df5f      	RCALL _glcd_display
0010f8 940e 1b55 	CALL SUBOPT_0x8
0010fa e0e1      	LDI  R30,LOW(1)
                +
0010fb 93e0 02b4+STS _glcd_state + ( 6 ) , R30
                 	__PUTB1MN _glcd_state,6
                +
0010fd 93e0 02b5+STS _glcd_state + ( 7 ) , R30
                 	__PUTB1MN _glcd_state,7
0010ff 81e9      	LDD  R30,Y+1
001100 81fa      	LDD  R31,Y+1+1
001101 9730      	SBIW R30,0
001102 f0a9      	BREQ _0x2020017
001103 81a9      	LDD  R26,Y+1
001104 81ba      	LDD  R27,Y+1+1
001105 940e 20fe 	CALL __GETW1P
001107 940e 1b4a 	CALL SUBOPT_0x6
001109 81a9      	LDD  R26,Y+1
00110a 81ba      	LDD  R27,Y+1+1
00110b 9612      	ADIW R26,2
00110c 940e 20fe 	CALL __GETW1P
                +
00110e 93e0 02c7+STS _glcd_state + ( 25 ) , R30
001110 93f0 02c8+STS _glcd_state + ( 25 ) + 1 , R31
                 	__PUTW1MN _glcd_state,25
001112 81a9      	LDD  R26,Y+1
001113 81ba      	LDD  R27,Y+1+1
001114 9614      	ADIW R26,4
001115 940e 20fe 	CALL __GETW1P
001117 c00a      	RJMP _0x20200A6
                 _0x2020017:
001118 e0e0      	LDI  R30,LOW(0)
001119 e0f0      	LDI  R31,HIGH(0)
00111a 940e 1b4a 	CALL SUBOPT_0x6
00111c e0e0      	LDI  R30,LOW(0)
00111d e0f0      	LDI  R31,HIGH(0)
                +
00111e 93e0 02c7+STS _glcd_state + ( 25 ) , R30
001120 93f0 02c8+STS _glcd_state + ( 25 ) + 1 , R31
                 	__PUTW1MN _glcd_state,25
                 _0x20200A6:
                +
001122 93e0 02c9+STS _glcd_state + ( 27 ) , R30
001124 93f0 02ca+STS _glcd_state + ( 27 ) + 1 , R31
                 	__PUTW1MN _glcd_state,27
001126 e0e1      	LDI  R30,LOW(1)
                +
001127 93e0 02b6+STS _glcd_state + ( 8 ) , R30
                 	__PUTB1MN _glcd_state,8
001129 efef      	LDI  R30,LOW(255)
                +
00112a 93e0 02b7+STS _glcd_state + ( 9 ) , R30
                 	__PUTB1MN _glcd_state,9
00112c e0e1      	LDI  R30,LOW(1)
                +
00112d 93e0 02be+STS _glcd_state + ( 16 ) , R30
                 	__PUTB1MN _glcd_state,16
                +
00112f ebef     +LDI R30 , LOW ( _glcd_state + ( 17 ) )
001130 e0f2     +LDI R31 , HIGH ( _glcd_state + ( 17 ) )
                 	__POINTW1MN _glcd_state,17
001131 93fa      	ST   -Y,R31
001132 93ea      	ST   -Y,R30
001133 efef      	LDI  R30,LOW(255)
001134 93ea      	ST   -Y,R30
001135 e0a8      	LDI  R26,LOW(8)
001136 e0b0      	LDI  R27,0
001137 940e 1a07 	CALL _memset
001139 e0e1      	LDI  R30,LOW(1)
00113a c319      	RJMP _0x216000D
                 ; .FEND
                 _st7920_rdbyte_G101:
                 ; .FSTART _st7920_rdbyte_G101
00113b 93aa      	ST   -Y,R26
00113c 81e9      	LDD  R30,Y+1
00113d 93ea      	ST   -Y,R30
00113e 81a9      	LDD  R26,Y+1
00113f df04      	RCALL _st7920_setxy_G101
001140 defa      	RCALL _st7920_rddata
001141 81e9      	LDD  R30,Y+1
001142 70ef      	ANDI R30,LOW(0xF)
001143 30e8      	CPI  R30,LOW(0x8)
001144 f018      	BRLO _0x2020019
001145 def5      	RCALL _st7920_rddata
001146 93e0 0328 	STS  _st7920_bits8_15_G101,R30
                 _0x2020019:
001148 def2      	RCALL _st7920_rddata
001149 c2e1      	RJMP _0x216000F
                 ; .FEND
                 _st7920_wrbyte_G101:
                 ; .FSTART _st7920_wrbyte_G101
00114a 93aa      	ST   -Y,R26
00114b 81ea      	LDD  R30,Y+2
00114c 93ea      	ST   -Y,R30
00114d 81aa      	LDD  R26,Y+2
00114e def5      	RCALL _st7920_setxy_G101
00114f 81ea      	LDD  R30,Y+2
001150 70ef      	ANDI R30,LOW(0xF)
001151 30e8      	CPI  R30,LOW(0x8)
001152 f018      	BRLO _0x202001A
001153 91a0 0328 	LDS  R26,_st7920_bits8_15_G101
001155 dedf      	RCALL _st7920_wrdata
                 _0x202001A:
001156 81a8      	LD   R26,Y
001157 dedd      	RCALL _st7920_wrdata
001158 c2fc      	RJMP _0x216000E
                 ; .FEND
                 _glcd_putpixel:
                 ; .FSTART _glcd_putpixel
001159 93aa      	ST   -Y,R26
00115a 931a      	ST   -Y,R17
00115b 930a      	ST   -Y,R16
00115c 81ac      	LDD  R26,Y+4
00115d 38a0      	CPI  R26,LOW(0x80)
00115e f418      	BRSH _0x202001C
00115f 81ab      	LDD  R26,Y+3
001160 34a0      	CPI  R26,LOW(0x40)
001161 f008      	BRLO _0x202001B
                 _0x202001C:
001162 c26d      	RJMP _0x2160012
                 _0x202001B:
001163 940e 1ccc 	CALL SUBOPT_0x31
001165 81ec      	LDD  R30,Y+4
001166 93ea      	ST   -Y,R30
001167 81ac      	LDD  R26,Y+4
001168 dfd2      	RCALL _st7920_rdbyte_G101
001169 2f1e      	MOV  R17,R30
00116a 81ec      	LDD  R30,Y+4
00116b 70e7      	ANDI R30,LOW(0x7)
00116c e0a7      	LDI  R26,LOW(7)
00116d 940e 212e 	CALL __SWAPB12
00116f 1bea      	SUB  R30,R26
001170 e0a1      	LDI  R26,LOW(1)
001171 940e 202e 	CALL __LSLB12
001173 2f0e      	MOV  R16,R30
001174 81ea      	LDD  R30,Y+2
001175 30e0      	CPI  R30,0
001176 f011      	BREQ _0x202001E
001177 2b10      	OR   R17,R16
001178 c003      	RJMP _0x202001F
                 _0x202001E:
001179 2fe0      	MOV  R30,R16
00117a 95e0      	COM  R30
00117b 231e      	AND  R17,R30
                 _0x202001F:
00117c 81ec      	LDD  R30,Y+4
00117d 93ea      	ST   -Y,R30
00117e 81ec      	LDD  R30,Y+4
00117f 93ea      	ST   -Y,R30
001180 2fa1      	MOV  R26,R17
001181 dfc8      	RCALL _st7920_wrbyte_G101
001182 c24d      	RJMP _0x2160012
                 ; .FEND
                 _st7920_wrmasked_G101:
                 ; .FSTART _st7920_wrmasked_G101
001183 93aa      	ST   -Y,R26
001184 931a      	ST   -Y,R17
001185 940e 1ccc 	CALL SUBOPT_0x31
001187 81ed      	LDD  R30,Y+5
001188 93ea      	ST   -Y,R30
001189 81ad      	LDD  R26,Y+5
00118a 940e 1cd2 	CALL SUBOPT_0x32
00118c 2f1e      	MOV  R17,R30
00118d 81e9      	LDD  R30,Y+1
00118e 30e7      	CPI  R30,LOW(0x7)
00118f f011      	BREQ _0x202002A
001190 30e8      	CPI  R30,LOW(0x8)
001191 f439      	BRNE _0x202002B
                 _0x202002A:
001192 81eb      	LDD  R30,Y+3
001193 93ea      	ST   -Y,R30
001194 81aa      	LDD  R26,Y+2
001195 940e 1aa9 	CALL _glcd_mappixcolor1bit
001197 83eb      	STD  Y+3,R30
001198 c00e      	RJMP _0x202002C
                 _0x202002B:
001199 30e3      	CPI  R30,LOW(0x3)
00119a f421      	BRNE _0x202002E
00119b 81eb      	LDD  R30,Y+3
00119c 95e0      	COM  R30
00119d 83eb      	STD  Y+3,R30
00119e c002      	RJMP _0x202002F
                 _0x202002E:
00119f 30e0      	CPI  R30,0
0011a0 f409      	BRNE _0x2020030
                 _0x202002F:
0011a1 c002      	RJMP _0x2020031
                 _0x2020030:
0011a2 30e9      	CPI  R30,LOW(0x9)
0011a3 f409      	BRNE _0x2020032
                 _0x2020031:
0011a4 c002      	RJMP _0x2020033
                 _0x2020032:
0011a5 30ea      	CPI  R30,LOW(0xA)
0011a6 f421      	BRNE _0x2020034
                 _0x2020033:
                 _0x202002C:
0011a7 81ea      	LDD  R30,Y+2
0011a8 95e0      	COM  R30
0011a9 231e      	AND  R17,R30
0011aa c002      	RJMP _0x2020035
                 _0x2020034:
0011ab 30e2      	CPI  R30,LOW(0x2)
0011ac f429      	BRNE _0x2020036
                 _0x2020035:
0011ad 81ea      	LDD  R30,Y+2
0011ae 81ab      	LDD  R26,Y+3
0011af 23ea      	AND  R30,R26
0011b0 2b1e      	OR   R17,R30
0011b1 c00e      	RJMP _0x2020028
                 _0x2020036:
0011b2 30e1      	CPI  R30,LOW(0x1)
0011b3 f429      	BRNE _0x2020037
0011b4 81ea      	LDD  R30,Y+2
0011b5 81ab      	LDD  R26,Y+3
0011b6 23ea      	AND  R30,R26
0011b7 271e      	EOR  R17,R30
0011b8 c007      	RJMP _0x2020028
                 _0x2020037:
0011b9 30e4      	CPI  R30,LOW(0x4)
0011ba f429      	BRNE _0x2020028
0011bb 81ea      	LDD  R30,Y+2
0011bc 95e0      	COM  R30
0011bd 81ab      	LDD  R26,Y+3
0011be 2bea      	OR   R30,R26
0011bf 231e      	AND  R17,R30
                 _0x2020028:
0011c0 81ed      	LDD  R30,Y+5
0011c1 93ea      	ST   -Y,R30
0011c2 81ed      	LDD  R30,Y+5
0011c3 93ea      	ST   -Y,R30
0011c4 2fa1      	MOV  R26,R17
0011c5 940e 1b0f 	CALL _glcd_revbits
0011c7 2fae      	MOV  R26,R30
0011c8 df81      	RCALL _st7920_wrbyte_G101
0011c9 8118      	LDD  R17,Y+0
                 _0x2160014:
0011ca 9626      	ADIW R28,6
0011cb 9508      	RET
                 ; .FEND
                 _glcd_block:
                 ; .FSTART _glcd_block
0011cc 93aa      	ST   -Y,R26
0011cd 9727      	SBIW R28,7
0011ce 940e 2157 	CALL __SAVELOCR6
0011d0 89ac      	LDD  R26,Y+20
0011d1 38a0      	CPI  R26,LOW(0x80)
0011d2 f448      	BRSH _0x202003A
0011d3 89ab      	LDD  R26,Y+19
0011d4 34a0      	CPI  R26,LOW(0x40)
0011d5 f430      	BRSH _0x202003A
0011d6 89aa      	LDD  R26,Y+18
0011d7 30a0      	CPI  R26,LOW(0x0)
0011d8 f019      	BREQ _0x202003A
0011d9 89a9      	LDD  R26,Y+17
0011da 30a0      	CPI  R26,LOW(0x0)
0011db f409      	BRNE _0x2020039
                 _0x202003A:
0011dc c1a8      	RJMP _0x2160013
                 _0x2020039:
0011dd 89ea      	LDD  R30,Y+18
0011de 95e6      	LSR  R30
0011df 95e6      	LSR  R30
0011e0 95e6      	LSR  R30
0011e1 2f2e      	MOV  R18,R30
                +
0011e2 8728     +STD Y + 8 , R18
                 	__PUTBSR 18,8
0011e3 89ea      	LDD  R30,Y+18
0011e4 70e7      	ANDI R30,LOW(0x7)
0011e5 87eb      	STD  Y+11,R30
0011e6 30e0      	CPI  R30,0
0011e7 f019      	BREQ _0x202003C
0011e8 85e8      	LDD  R30,Y+8
0011e9 5fef      	SUBI R30,-LOW(1)
0011ea 87e8      	STD  Y+8,R30
                 _0x202003C:
0011eb 890a      	LDD  R16,Y+18
0011ec 89ac      	LDD  R26,Y+20
0011ed 27bb      	CLR  R27
0011ee 89ea      	LDD  R30,Y+18
0011ef e0f0      	LDI  R31,0
0011f0 0fae      	ADD  R26,R30
0011f1 1fbf      	ADC  R27,R31
0011f2 38a1      	CPI  R26,LOW(0x81)
0011f3 e0e0      	LDI  R30,HIGH(0x81)
0011f4 07be      	CPC  R27,R30
0011f5 f020      	BRLO _0x202003D
0011f6 89ac      	LDD  R26,Y+20
0011f7 e8e0      	LDI  R30,LOW(128)
0011f8 1bea      	SUB  R30,R26
0011f9 8bea      	STD  Y+18,R30
                 _0x202003D:
0011fa 89e9      	LDD  R30,Y+17
0011fb 87ea      	STD  Y+10,R30
0011fc 89ab      	LDD  R26,Y+19
0011fd 27bb      	CLR  R27
0011fe 89e9      	LDD  R30,Y+17
0011ff e0f0      	LDI  R31,0
001200 0fae      	ADD  R26,R30
001201 1fbf      	ADC  R27,R31
001202 34a1      	CPI  R26,LOW(0x41)
001203 e0e0      	LDI  R30,HIGH(0x41)
001204 07be      	CPC  R27,R30
001205 f020      	BRLO _0x202003E
001206 89ab      	LDD  R26,Y+19
001207 e4e0      	LDI  R30,LOW(64)
001208 1bea      	SUB  R30,R26
001209 8be9      	STD  Y+17,R30
                 _0x202003E:
00120a 85ed      	LDD  R30,Y+13
00120b 30e6      	CPI  R30,LOW(0x6)
00120c f009      	BREQ PC+2
00120d c04e      	RJMP _0x2020042
00120e 89e8      	LDD  R30,Y+16
00120f 30e1      	CPI  R30,LOW(0x1)
001210 f409      	BRNE _0x2020046
001211 c173      	RJMP _0x2160013
                 _0x2020046:
001212 30e3      	CPI  R30,LOW(0x3)
001213 f439      	BRNE _0x2020049
                +
001214 91e0 02c9+LDS R30 , _glcd_state + ( 27 )
001216 91f0 02ca+LDS R31 , _glcd_state + ( 27 ) + 1
                 	__GETW1MN _glcd_state,27
001218 9730      	SBIW R30,0
001219 f409      	BRNE _0x2020048
00121a c16a      	RJMP _0x2160013
                 _0x2020048:
                 _0x2020049:
00121b 85eb      	LDD  R30,Y+11
00121c 30e0      	CPI  R30,0
00121d f419      	BRNE _0x202004B
00121e 89aa      	LDD  R26,Y+18
00121f 170a      	CP   R16,R26
001220 f0d9      	BREQ _0x202004A
                 _0x202004B:
001221 2fe2      	MOV  R30,R18
001222 85ae      	LDD  R26,Y+14
001223 85bf      	LDD  R27,Y+14+1
001224 e0f0      	LDI  R31,0
001225 940e 1cd7 	CALL SUBOPT_0x33
001227 8919      	LDD  R17,Y+17
                 _0x202004D:
001228 3010      	CPI  R17,0
001229 f091      	BREQ _0x202004F
00122a 2f32      	MOV  R19,R18
                 _0x2020050:
00122b 933f      	PUSH R19
00122c 5f3f      	SUBI R19,-1
00122d 85e8      	LDD  R30,Y+8
00122e 91af      	POP  R26
00122f 17ae      	CP   R26,R30
001230 f418      	BRSH _0x2020052
001231 940e 1cdc 	CALL SUBOPT_0x34
001233 cff7      	RJMP _0x2020050
                 _0x2020052:
001234 2fe2      	MOV  R30,R18
001235 81ae      	LDD  R26,Y+6
001236 81bf      	LDD  R27,Y+6+1
001237 e0f0      	LDI  R31,0
001238 940e 1cd7 	CALL SUBOPT_0x33
00123a 5011      	SUBI R17,LOW(1)
00123b cfec      	RJMP _0x202004D
                 _0x202004F:
                 _0x202004A:
00123c 8929      	LDD  R18,Y+17
00123d 85ea      	LDD  R30,Y+10
00123e 17e2      	CP   R30,R18
00123f f0d9      	BREQ _0x2020053
001240 2fa2      	MOV  R26,R18
001241 27bb      	CLR  R27
001242 85e8      	LDD  R30,Y+8
001243 e0f0      	LDI  R31,0
001244 940e 2065 	CALL __MULW12U
001246 85ae      	LDD  R26,Y+14
001247 85bf      	LDD  R27,Y+14+1
001248 940e 1cd7 	CALL SUBOPT_0x33
                 _0x2020054:
00124a 932f      	PUSH R18
00124b 5f2f      	SUBI R18,-1
00124c 85ea      	LDD  R30,Y+10
00124d 91af      	POP  R26
00124e 17ae      	CP   R26,R30
00124f f458      	BRSH _0x2020056
001250 e030      	LDI  R19,LOW(0)
                 _0x2020057:
001251 933f      	PUSH R19
001252 5f3f      	SUBI R19,-1
001253 85e8      	LDD  R30,Y+8
001254 91af      	POP  R26
001255 17ae      	CP   R26,R30
001256 f418      	BRSH _0x2020059
001257 940e 1cdc 	CALL SUBOPT_0x34
001259 cff7      	RJMP _0x2020057
                 _0x2020059:
00125a cfef      	RJMP _0x2020054
                 _0x2020056:
                 _0x2020053:
00125b c00d      	RJMP _0x2020041
                 _0x2020042:
00125c 30e9      	CPI  R30,LOW(0x9)
00125d f411      	BRNE _0x202005A
00125e e0e0      	LDI  R30,LOW(0)
00125f c003      	RJMP _0x20200A7
                 _0x202005A:
001260 30ea      	CPI  R30,LOW(0xA)
001261 f439      	BRNE _0x2020041
001262 efef      	LDI  R30,LOW(255)
                 _0x20200A7:
001263 87ea      	STD  Y+10,R30
001264 93ea      	ST   -Y,R30
001265 85ae      	LDD  R26,Y+14
001266 940e 1aa9 	CALL _glcd_mappixcolor1bit
001268 87ea      	STD  Y+10,R30
                 _0x2020041:
001269 89ec      	LDD  R30,Y+20
00126a 70e7      	ANDI R30,LOW(0x7)
00126b 2f3e      	MOV  R19,R30
00126c e0e8      	LDI  R30,LOW(8)
00126d 1be3      	SUB  R30,R19
00126e 2f2e      	MOV  R18,R30
00126f 2f52      	MOV  R21,R18
001270 89aa      	LDD  R26,Y+18
001271 172a      	CP   R18,R26
001272 f010      	BRLO _0x202005E
001273 895a      	LDD  R21,Y+18
001274 c00e      	RJMP _0x202005F
                 _0x202005E:
001275 3030      	CPI  R19,0
001276 f061      	BREQ _0x2020060
001277 2f43      	MOV  R20,R19
001278 89aa      	LDD  R26,Y+18
001279 30a9      	CPI  R26,LOW(0x9)
00127a f418      	BRSH _0x2020061
00127b 89ea      	LDD  R30,Y+18
00127c 1be2      	SUB  R30,R18
00127d 2f4e      	MOV  R20,R30
                 _0x2020061:
00127e 2fe4      	MOV  R30,R20
00127f e0f0      	LDI  R31,0
001280 51ee      	SUBI R30,LOW(-__glcd_mask*2)
001281 4efc      	SBCI R31,HIGH(-__glcd_mask*2)
001282 9144      	LPM  R20,Z
                 _0x2020060:
                 _0x202005F:
001283 933a      	ST   -Y,R19
001284 2fa5      	MOV  R26,R21
001285 940e 1a9e 	CALL _glcd_getmask
001287 2f5e      	MOV  R21,R30
001288 85ab      	LDD  R26,Y+11
001289 172a      	CP   R18,R26
00128a f418      	BRSH _0x2020062
00128b 85eb      	LDD  R30,Y+11
00128c 1be2      	SUB  R30,R18
00128d 87eb      	STD  Y+11,R30
                 _0x2020062:
00128e 85eb      	LDD  R30,Y+11
00128f e0f0      	LDI  R31,0
001290 51ee      	SUBI R30,LOW(-__glcd_mask*2)
001291 4efc      	SBCI R31,HIGH(-__glcd_mask*2)
001292 9004      	LPM  R0,Z
001293 860c      	STD  Y+12,R0
001294 940e 1ccc 	CALL SUBOPT_0x31
                 _0x2020063:
001296 89e9      	LDD  R30,Y+17
001297 50e1      	SUBI R30,LOW(1)
001298 8be9      	STD  Y+17,R30
001299 5fef      	SUBI R30,-LOW(1)
00129a f409      	BRNE PC+2
00129b c0e9      	RJMP _0x2020065
00129c e010      	LDI  R17,LOW(0)
00129d 890c      	LDD  R16,Y+20
00129e 85ee      	LDD  R30,Y+14
00129f 85ff      	LDD  R31,Y+14+1
0012a0 83ee      	STD  Y+6,R30
0012a1 83ff      	STD  Y+6+1,R31
0012a2 3030      	CPI  R19,0
0012a3 f409      	BRNE PC+2
0012a4 c096      	RJMP _0x2020066
                +
0012a5 874b     +STD Y + 11 , R20
                 	__PUTBSR 20,11
0012a6 85ad      	LDD  R26,Y+13
0012a7 30a6      	CPI  R26,LOW(0x6)
0012a8 f009      	BREQ PC+2
0012a9 c055      	RJMP _0x2020067
                 _0x2020068:
0012aa 89ea      	LDD  R30,Y+18
0012ab 171e      	CP   R17,R30
0012ac f008      	BRLO PC+2
0012ad c050      	RJMP _0x202006A
0012ae 930a      	ST   -Y,R16
0012af 89ac      	LDD  R26,Y+20
0012b0 940e 1cd2 	CALL SUBOPT_0x32
0012b2 23e5      	AND  R30,R21
0012b3 2fae      	MOV  R26,R30
0012b4 2fe3      	MOV  R30,R19
0012b5 940e 2036 	CALL __LSRB12
0012b7 87e9      	STD  Y+9,R30
0012b8 940e 1ce9 	CALL SUBOPT_0x35
0012ba 2e1e      	MOV  R1,R30
0012bb 2fe3      	MOV  R30,R19
0012bc 2fa5      	MOV  R26,R21
0012bd 940e 2036 	CALL __LSRB12
0012bf 95e0      	COM  R30
0012c0 21e1      	AND  R30,R1
0012c1 85a9      	LDD  R26,Y+9
0012c2 2bea      	OR   R30,R26
0012c3 87e9      	STD  Y+9,R30
0012c4 89aa      	LDD  R26,Y+18
0012c5 172a      	CP   R18,R26
0012c6 f430      	BRSH _0x202006C
0012c7 2fe0      	MOV  R30,R16
0012c8 95e6      	LSR  R30
0012c9 95e6      	LSR  R30
0012ca 95e6      	LSR  R30
0012cb 30ef      	CPI  R30,LOW(0xF)
0012cc f040      	BRLO _0x202006B
                 _0x202006C:
0012cd 940e 1cf1 	CALL SUBOPT_0x36
0012cf 93fa      	ST   -Y,R31
0012d0 93ea      	ST   -Y,R30
0012d1 85ac      	LDD  R26,Y+12
0012d2 940e 1af0 	CALL _glcd_writemem
0012d4 c029      	RJMP _0x202006A
                 _0x202006B:
0012d5 89aa      	LDD  R26,Y+18
0012d6 1ba1      	SUB  R26,R17
0012d7 30a8      	CPI  R26,LOW(0x8)
0012d8 f410      	BRSH _0x202006E
0012d9 85ec      	LDD  R30,Y+12
0012da 87eb      	STD  Y+11,R30
                 _0x202006E:
0012db 5f08      	SUBI R16,-LOW(8)
0012dc 930a      	ST   -Y,R16
0012dd 89ac      	LDD  R26,Y+20
0012de 940e 1cd2 	CALL SUBOPT_0x32
0012e0 85ab      	LDD  R26,Y+11
0012e1 23ea      	AND  R30,R26
0012e2 2fae      	MOV  R26,R30
0012e3 2fe2      	MOV  R30,R18
0012e4 940e 202e 	CALL __LSLB12
0012e6 87ea      	STD  Y+10,R30
0012e7 2fe2      	MOV  R30,R18
0012e8 85ab      	LDD  R26,Y+11
0012e9 940e 202e 	CALL __LSLB12
0012eb 95e0      	COM  R30
0012ec 85a9      	LDD  R26,Y+9
0012ed 23ea      	AND  R30,R26
0012ee 85aa      	LDD  R26,Y+10
0012ef 2bea      	OR   R30,R26
0012f0 87ea      	STD  Y+10,R30
0012f1 940e 1cf1 	CALL SUBOPT_0x36
0012f3 9631      	ADIW R30,1
0012f4 83ef      	STD  Y+7,R30
0012f5 87f8      	STD  Y+7+1,R31
0012f6 9731      	SBIW R30,1
0012f7 93fa      	ST   -Y,R31
0012f8 93ea      	ST   -Y,R30
0012f9 85ad      	LDD  R26,Y+13
0012fa 940e 1af0 	CALL _glcd_writemem
0012fc 5f18      	SUBI R17,-LOW(8)
0012fd cfac      	RJMP _0x2020068
                 _0x202006A:
0012fe c03b      	RJMP _0x202006F
                 _0x2020067:
                 _0x2020070:
0012ff 89ea      	LDD  R30,Y+18
001300 171e      	CP   R17,R30
001301 f5c0      	BRSH _0x2020072
001302 85ed      	LDD  R30,Y+13
001303 30e9      	CPI  R30,LOW(0x9)
001304 f011      	BREQ _0x2020077
001305 30ea      	CPI  R30,LOW(0xA)
001306 f409      	BRNE _0x2020079
                 _0x2020077:
001307 c00d      	RJMP _0x2020075
                 _0x2020079:
001308 940e 1cf1 	CALL SUBOPT_0x36
00130a 9631      	ADIW R30,1
00130b 83ef      	STD  Y+7,R30
00130c 87f8      	STD  Y+7+1,R31
00130d 9731      	SBIW R30,1
00130e 2766      	CLR  R22
00130f 2777      	CLR  R23
001310 01df      	MOVW R26,R30
001311 01cb      	MOVW R24,R22
001312 940e 1ad1 	CALL _glcd_readmem
001314 87ea      	STD  Y+10,R30
                 _0x2020075:
001315 930a      	ST   -Y,R16
001316 89ec      	LDD  R30,Y+20
001317 93ea      	ST   -Y,R30
001318 2fe3      	MOV  R30,R19
001319 85ac      	LDD  R26,Y+12
00131a 940e 202e 	CALL __LSLB12
00131c 93ea      	ST   -Y,R30
00131d 935a      	ST   -Y,R21
00131e 89a9      	LDD  R26,Y+17
00131f de63      	RCALL _st7920_wrmasked_G101
001320 89aa      	LDD  R26,Y+18
001321 172a      	CP   R18,R26
001322 f4b8      	BRSH _0x2020072
001323 2fe0      	MOV  R30,R16
001324 95e6      	LSR  R30
001325 95e6      	LSR  R30
001326 95e6      	LSR  R30
001327 30ef      	CPI  R30,LOW(0xF)
001328 f488      	BRSH _0x2020072
001329 1ba1      	SUB  R26,R17
00132a 30a8      	CPI  R26,LOW(0x8)
00132b f410      	BRSH _0x202007C
00132c 85ec      	LDD  R30,Y+12
00132d 87eb      	STD  Y+11,R30
                 _0x202007C:
00132e 5f08      	SUBI R16,-LOW(8)
00132f 930a      	ST   -Y,R16
001330 89ec      	LDD  R30,Y+20
001331 93ea      	ST   -Y,R30
001332 2fe2      	MOV  R30,R18
001333 85ac      	LDD  R26,Y+12
001334 940e 2036 	CALL __LSRB12
001336 940e 1cf6 	CALL SUBOPT_0x37
001338 5f18      	SUBI R17,-LOW(8)
001339 cfc5      	RJMP _0x2020070
                 _0x2020072:
                 _0x202006F:
00133a c03e      	RJMP _0x202007D
                 _0x2020066:
                +
00133b 875b     +STD Y + 11 , R21
                 	__PUTBSR 21,11
                 _0x202007E:
00133c 89ea      	LDD  R30,Y+18
00133d 171e      	CP   R17,R30
00133e f5d0      	BRSH _0x2020080
00133f 89aa      	LDD  R26,Y+18
001340 1ba1      	SUB  R26,R17
001341 30a8      	CPI  R26,LOW(0x8)
001342 f410      	BRSH _0x2020081
001343 85ec      	LDD  R30,Y+12
001344 87eb      	STD  Y+11,R30
                 _0x2020081:
001345 85ed      	LDD  R30,Y+13
001346 30e9      	CPI  R30,LOW(0x9)
001347 f011      	BREQ _0x2020086
001348 30ea      	CPI  R30,LOW(0xA)
001349 f409      	BRNE _0x2020088
                 _0x2020086:
00134a c009      	RJMP _0x2020084
                 _0x2020088:
00134b 85ad      	LDD  R26,Y+13
00134c 30a6      	CPI  R26,LOW(0x6)
00134d f419      	BRNE _0x202008A
00134e 85ab      	LDD  R26,Y+11
00134f 3faf      	CPI  R26,LOW(0xFF)
001350 f019      	BREQ _0x2020089
                 _0x202008A:
001351 940e 1ce9 	CALL SUBOPT_0x35
001353 87ea      	STD  Y+10,R30
                 _0x2020089:
                 _0x2020084:
001354 85ad      	LDD  R26,Y+13
001355 30a6      	CPI  R26,LOW(0x6)
001356 f4a1      	BRNE _0x202008C
001357 940e 1cf1 	CALL SUBOPT_0x36
001359 93fa      	ST   -Y,R31
00135a 93ea      	ST   -Y,R30
00135b 930a      	ST   -Y,R16
00135c 89af      	LDD  R26,Y+23
00135d 940e 1cd2 	CALL SUBOPT_0x32
00135f 85ae      	LDD  R26,Y+14
001360 23ea      	AND  R30,R26
001361 2e0e      	MOV  R0,R30
001362 85ee      	LDD  R30,Y+14
001363 95e0      	COM  R30
001364 85ad      	LDD  R26,Y+13
001365 23ea      	AND  R30,R26
001366 29e0      	OR   R30,R0
001367 2fae      	MOV  R26,R30
001368 940e 1af0 	CALL _glcd_writemem
00136a c006      	RJMP _0x202008D
                 _0x202008C:
00136b 930a      	ST   -Y,R16
00136c 89ec      	LDD  R30,Y+20
00136d 93ea      	ST   -Y,R30
00136e 85ec      	LDD  R30,Y+12
00136f 940e 1cf6 	CALL SUBOPT_0x37
                 _0x202008D:
001371 81ee      	LDD  R30,Y+6
001372 81ff      	LDD  R31,Y+6+1
001373 9631      	ADIW R30,1
001374 83ee      	STD  Y+6,R30
001375 83ff      	STD  Y+6+1,R31
001376 5f08      	SUBI R16,-LOW(8)
001377 5f18      	SUBI R17,-LOW(8)
001378 cfc3      	RJMP _0x202007E
                 _0x2020080:
                 _0x202007D:
001379 89eb      	LDD  R30,Y+19
00137a 5fef      	SUBI R30,-LOW(1)
00137b 8beb      	STD  Y+19,R30
00137c 85e8      	LDD  R30,Y+8
00137d 85ae      	LDD  R26,Y+14
00137e 85bf      	LDD  R27,Y+14+1
00137f e0f0      	LDI  R31,0
001380 0fea      	ADD  R30,R26
001381 1ffb      	ADC  R31,R27
001382 87ee      	STD  Y+14,R30
001383 87ff      	STD  Y+14+1,R31
001384 cf11      	RJMP _0x2020063
                 _0x2020065:
                 _0x2160013:
001385 940e 215e 	CALL __LOADLOCR6
001387 9665      	ADIW R28,21
001388 9508      	RET
                 ; .FEND
                 _lcd_gotoxy:
                 ; .FSTART _lcd_gotoxy
001389 93aa      	ST   -Y,R26
00138a 81a9      	LDD  R26,Y+1
00138b 31a0      	CPI  R26,LOW(0x10)
00138c f010      	BRLO _0x202008E
00138d e0ef      	LDI  R30,LOW(15)
00138e 83e9      	STD  Y+1,R30
                 _0x202008E:
00138f 81a8      	LD   R26,Y
001390 30a4      	CPI  R26,LOW(0x4)
001391 f010      	BRLO _0x202008F
001392 e0e3      	LDI  R30,LOW(3)
001393 83e8      	ST   Y,R30
                 _0x202008F:
001394 940e 1cc6 	CALL SUBOPT_0x30
001396 81e8      	LD   R30,Y
001397 e0f0      	LDI  R31,0
001398 50ee      	SUBI R30,LOW(-_st7920_base_y_G101*2)
001399 4efc      	SBCI R31,HIGH(-_st7920_base_y_G101*2)
00139a 91a4      	LPM  R26,Z
00139b 81e9      	LDD  R30,Y+1
00139c 95e6      	LSR  R30
00139d 2bea      	OR   R30,R26
00139e 2fae      	MOV  R26,R30
00139f dc9f      	RCALL _st7920_wrcmd
0013a0 81e9      	LDD  R30,Y+1
0013a1 93e0 0329 	STS  _xt_G101,R30
0013a3 81e8      	LD   R30,Y
0013a4 93e0 032a 	STS  _yt_G101,R30
0013a6 c084      	RJMP _0x216000F
                 ; .FEND
                 _glcd_putcharcg:
                 ; .FSTART _glcd_putcharcg
0013a7 93aa      	ST   -Y,R26
0013a8 931a      	ST   -Y,R17
0013a9 930a      	ST   -Y,R16
0013aa 81ac      	LDD  R26,Y+4
0013ab 31a0      	CPI  R26,LOW(0x10)
0013ac f010      	BRLO _0x2020090
0013ad e0ef      	LDI  R30,LOW(15)
0013ae 83ec      	STD  Y+4,R30
                 _0x2020090:
0013af 81ab      	LDD  R26,Y+3
0013b0 30a4      	CPI  R26,LOW(0x4)
0013b1 f010      	BRLO _0x2020091
0013b2 e0e3      	LDI  R30,LOW(3)
0013b3 83eb      	STD  Y+3,R30
                 _0x2020091:
0013b4 81eb      	LDD  R30,Y+3
0013b5 e0f0      	LDI  R31,0
0013b6 50ee      	SUBI R30,LOW(-_st7920_base_y_G101*2)
0013b7 4efc      	SBCI R31,HIGH(-_st7920_base_y_G101*2)
0013b8 91a4      	LPM  R26,Z
0013b9 81ec      	LDD  R30,Y+4
0013ba 95e6      	LSR  R30
0013bb 2bea      	OR   R30,R26
0013bc 2f1e      	MOV  R17,R30
0013bd 940e 1cc6 	CALL SUBOPT_0x30
0013bf 2fa1      	MOV  R26,R17
0013c0 dc7e      	RCALL _st7920_wrcmd
0013c1 dc79      	RCALL _st7920_rddata
0013c2 81ec      	LDD  R30,Y+4
0013c3 70e1      	ANDI R30,LOW(0x1)
0013c4 f011      	BREQ _0x2020092
0013c5 dc75      	RCALL _st7920_rddata
0013c6 2f0e      	MOV  R16,R30
                 _0x2020092:
0013c7 2fa1      	MOV  R26,R17
0013c8 dc76      	RCALL _st7920_wrcmd
0013c9 81ec      	LDD  R30,Y+4
0013ca 70e1      	ANDI R30,LOW(0x1)
0013cb f011      	BREQ _0x2020093
0013cc 2fa0      	MOV  R26,R16
0013cd dc67      	RCALL _st7920_wrdata
                 _0x2020093:
0013ce 81aa      	LDD  R26,Y+2
0013cf dc65      	RCALL _st7920_wrdata
                 _0x2160012:
0013d0 8119      	LDD  R17,Y+1
0013d1 8108      	LDD  R16,Y+0
0013d2 9625      	ADIW R28,5
0013d3 9508      	RET
                 ; .FEND
                 _lcd_putchar:
                 ; .FSTART _lcd_putchar
0013d4 93aa      	ST   -Y,R26
0013d5 81a8      	LD   R26,Y
0013d6 30aa      	CPI  R26,LOW(0xA)
0013d7 f021      	BREQ _0x2020098
0013d8 91a0 0329 	LDS  R26,_xt_G101
0013da 31a0      	CPI  R26,LOW(0x10)
0013db f060      	BRLO _0x2020097
                 _0x2020098:
0013dc e0e0      	LDI  R30,LOW(0)
0013dd 93e0 0329 	STS  _xt_G101,R30
0013df 91a0 032a 	LDS  R26,_yt_G101
0013e1 5faf      	SUBI R26,-LOW(1)
0013e2 93a0 032a 	STS  _yt_G101,R26
0013e4 30a4      	CPI  R26,LOW(0x4)
0013e5 f010      	BRLO _0x202009A
0013e6 93e0 032a 	STS  _yt_G101,R30
                 _0x202009A:
                 _0x2020097:
0013e8 81a8      	LD   R26,Y
0013e9 30aa      	CPI  R26,LOW(0xA)
0013ea f439      	BRNE _0x202009B
0013eb 91e0 0329 	LDS  R30,_xt_G101
0013ed 93ea      	ST   -Y,R30
0013ee 91a0 032a 	LDS  R26,_yt_G101
0013f0 df98      	RCALL _lcd_gotoxy
0013f1 c00c      	RJMP _0x202009C
                 _0x202009B:
0013f2 91e0 0329 	LDS  R30,_xt_G101
0013f4 5fef      	SUBI R30,-LOW(1)
0013f5 93e0 0329 	STS  _xt_G101,R30
0013f7 50e1      	SUBI R30,LOW(1)
0013f8 93ea      	ST   -Y,R30
0013f9 91e0 032a 	LDS  R30,_yt_G101
0013fb 93ea      	ST   -Y,R30
0013fc 81aa      	LDD  R26,Y+2
0013fd dfa9      	RCALL _glcd_putcharcg
                 _0x202009C:
                 _0x2160011:
0013fe 9621      	ADIW R28,1
0013ff 9508      	RET
                 ; .FEND
                 _lcd_puts:
                 ; .FSTART _lcd_puts
001400 93ba      	ST   -Y,R27
001401 93aa      	ST   -Y,R26
001402 931a      	ST   -Y,R17
                 _0x202009D:
001403 940e 1cfc 	CALL SUBOPT_0x38
001405 f019      	BREQ _0x202009F
001406 2fa1      	MOV  R26,R17
001407 dfcc      	RCALL _lcd_putchar
001408 cffa      	RJMP _0x202009D
                 _0x202009F:
001409 c04a      	RJMP _0x216000D
                 ; .FEND
                 
                 	.CSEG
                 _glcd_clipx:
                 ; .FSTART _glcd_clipx
00140a 940e 1d04 	CALL SUBOPT_0x39
00140c f01c      	BRLT _0x2040003
00140d e0e0      	LDI  R30,LOW(0)
00140e e0f0      	LDI  R31,HIGH(0)
00140f c01b      	RJMP _0x216000F
                 _0x2040003:
001410 81a8      	LD   R26,Y
001411 81b9      	LDD  R27,Y+1
001412 38a0      	CPI  R26,LOW(0x80)
001413 e0e0      	LDI  R30,HIGH(0x80)
001414 07be      	CPC  R27,R30
001415 f01c      	BRLT _0x2040004
001416 e7ef      	LDI  R30,LOW(127)
001417 e0f0      	LDI  R31,HIGH(127)
001418 c012      	RJMP _0x216000F
                 _0x2040004:
001419 c00f      	RJMP _0x2160010
                 ; .FEND
                 _glcd_clipy:
                 ; .FSTART _glcd_clipy
00141a 940e 1d04 	CALL SUBOPT_0x39
00141c f01c      	BRLT _0x2040005
00141d e0e0      	LDI  R30,LOW(0)
00141e e0f0      	LDI  R31,HIGH(0)
00141f c00b      	RJMP _0x216000F
                 _0x2040005:
001420 81a8      	LD   R26,Y
001421 81b9      	LDD  R27,Y+1
001422 34a0      	CPI  R26,LOW(0x40)
001423 e0e0      	LDI  R30,HIGH(0x40)
001424 07be      	CPC  R27,R30
001425 f01c      	BRLT _0x2040006
001426 e3ef      	LDI  R30,LOW(63)
001427 e0f0      	LDI  R31,HIGH(63)
001428 c002      	RJMP _0x216000F
                 _0x2040006:
                 _0x2160010:
001429 81e8      	LD   R30,Y
00142a 81f9      	LDD  R31,Y+1
                 _0x216000F:
00142b 9622      	ADIW R28,2
00142c 9508      	RET
                 ; .FEND
                 _glcd_imagesize:
                 ; .FSTART _glcd_imagesize
00142d 93aa      	ST   -Y,R26
00142e 931a      	ST   -Y,R17
00142f 81aa      	LDD  R26,Y+2
001430 38a0      	CPI  R26,LOW(0x80)
001431 f418      	BRSH _0x2040008
001432 81a9      	LDD  R26,Y+1
001433 34a0      	CPI  R26,LOW(0x40)
001434 f028      	BRLO _0x2040007
                 _0x2040008:
                +
001435 e0e0     +LDI R30 , LOW ( 0x0 )
001436 e0f0     +LDI R31 , HIGH ( 0x0 )
001437 e060     +LDI R22 , BYTE3 ( 0x0 )
001438 e070     +LDI R23 , BYTE4 ( 0x0 )
                 	__GETD1N 0x0
001439 c01a      	RJMP _0x216000D
                 _0x2040007:
00143a 81ea      	LDD  R30,Y+2
00143b 70e7      	ANDI R30,LOW(0x7)
00143c 2f1e      	MOV  R17,R30
00143d 81ea      	LDD  R30,Y+2
00143e 95e6      	LSR  R30
00143f 95e6      	LSR  R30
001440 95e6      	LSR  R30
001441 83ea      	STD  Y+2,R30
001442 3010      	CPI  R17,0
001443 f011      	BREQ _0x204000A
001444 5fef      	SUBI R30,-LOW(1)
001445 83ea      	STD  Y+2,R30
                 _0x204000A:
001446 81aa      	LDD  R26,Y+2
001447 27bb      	CLR  R27
001448 2788      	CLR  R24
001449 2799      	CLR  R25
00144a 81e9      	LDD  R30,Y+1
00144b 27ff      	CLR  R31
00144c 2766      	CLR  R22
00144d 2777      	CLR  R23
00144e 940e 206d 	CALL __MULD12U
                +
001450 5fec     +SUBI R30 , LOW ( - 4 )
001451 4fff     +SBCI R31 , HIGH ( - 4 )
001452 4f6f     +SBCI R22 , BYTE3 ( - 4 )
001453 4f7f     +SBCI R23 , BYTE4 ( - 4 )
                 	__ADDD1N 4
                 _0x216000D:
001454 8118      	LDD  R17,Y+0
                 _0x216000E:
001455 9623      	ADIW R28,3
001456 9508      	RET
                 ; .FEND
                 _glcd_getcharw_G102:
                 ; .FSTART _glcd_getcharw_G102
001457 93ba      	ST   -Y,R27
001458 93aa      	ST   -Y,R26
001459 9723      	SBIW R28,3
00145a 940e 1d0b 	CALL SUBOPT_0x3A
00145c 018f      	MOVW R16,R30
00145d 2e00      	MOV  R0,R16
00145e 2a01      	OR   R0,R17
00145f f419      	BRNE _0x204000B
001460 e0e0      	LDI  R30,LOW(0)
001461 e0f0      	LDI  R31,HIGH(0)
001462 c068      	RJMP _0x216000C
                 _0x204000B:
001463 940e 1d12 	CALL SUBOPT_0x3B
001465 820f      	STD  Y+7,R0
001466 940e 1d12 	CALL SUBOPT_0x3B
001468 820e      	STD  Y+6,R0
001469 940e 1d12 	CALL SUBOPT_0x3B
00146b 8608      	STD  Y+8,R0
00146c 85eb      	LDD  R30,Y+11
00146d 85a8      	LDD  R26,Y+8
00146e 17ea      	CP   R30,R26
00146f f418      	BRSH _0x204000C
001470 e0e0      	LDI  R30,LOW(0)
001471 e0f0      	LDI  R31,HIGH(0)
001472 c058      	RJMP _0x216000C
                 _0x204000C:
001473 01f8      	MOVW R30,R16
                +
001474 5f0f     +SUBI R16 , LOW ( - 1 )
001475 4f1f     +SBCI R17 , HIGH ( - 1 )
                 	__ADDWRN 16,17,1
001476 9154      	LPM  R21,Z
001477 85a8      	LDD  R26,Y+8
001478 27bb      	CLR  R27
001479 27ee      	CLR  R30
00147a 0fa5      	ADD  R26,R21
00147b 1fbe      	ADC  R27,R30
00147c 85eb      	LDD  R30,Y+11
00147d e0f0      	LDI  R31,0
00147e 17ea      	CP   R30,R26
00147f 07fb      	CPC  R31,R27
001480 f018      	BRLO _0x204000D
001481 e0e0      	LDI  R30,LOW(0)
001482 e0f0      	LDI  R31,HIGH(0)
001483 c047      	RJMP _0x216000C
                 _0x204000D:
001484 81ef      	LDD  R30,Y+7
001485 30e0      	CPI  R30,0
001486 f0e1      	BREQ _0x204000E
001487 85a9      	LDD  R26,Y+9
001488 85ba      	LDD  R27,Y+9+1
001489 93ec      	ST   X,R30
00148a 95e6      	LSR  R30
00148b 95e6      	LSR  R30
00148c 95e6      	LSR  R30
00148d 2f4e      	MOV  R20,R30
00148e 81ef      	LDD  R30,Y+7
00148f 70e7      	ANDI R30,LOW(0x7)
001490 f009      	BREQ _0x204000F
001491 5f4f      	SUBI R20,-LOW(1)
                 _0x204000F:
001492 85a8      	LDD  R26,Y+8
001493 85eb      	LDD  R30,Y+11
001494 1bea      	SUB  R30,R26
001495 e0f0      	LDI  R31,0
001496 01df      	MOVW R26,R30
001497 81ee      	LDD  R30,Y+6
001498 e0f0      	LDI  R31,0
001499 940e 2065 	CALL __MULW12U
00149b 01df      	MOVW R26,R30
00149c 2fe4      	MOV  R30,R20
00149d e0f0      	LDI  R31,0
00149e 940e 2065 	CALL __MULW12U
0014a0 0fe0      	ADD  R30,R16
0014a1 1ff1      	ADC  R31,R17
0014a2 c028      	RJMP _0x216000C
                 _0x204000E:
0014a3 0198      	MOVW R18,R16
0014a4 2fe5      	MOV  R30,R21
0014a5 e0f0      	LDI  R31,0
                +
0014a6 0f0e     +ADD R16 , R30
0014a7 1f1f     +ADC R17 , R31
                 	__ADDWRR 16,17,30,31
                 _0x2040010:
0014a8 85a8      	LDD  R26,Y+8
0014a9 5faf      	SUBI R26,-LOW(1)
0014aa 87a8      	STD  Y+8,R26
0014ab 50a1      	SUBI R26,LOW(1)
0014ac 85eb      	LDD  R30,Y+11
0014ad 17ae      	CP   R26,R30
0014ae f4b0      	BRSH _0x2040012
0014af 01f9      	MOVW R30,R18
0014b0 91e4      	LPM  R30,Z
0014b1 95e6      	LSR  R30
0014b2 95e6      	LSR  R30
0014b3 95e6      	LSR  R30
0014b4 2f4e      	MOV  R20,R30
0014b5 01f9      	MOVW R30,R18
                +
0014b6 5f2f     +SUBI R18 , LOW ( - 1 )
0014b7 4f3f     +SBCI R19 , HIGH ( - 1 )
                 	__ADDWRN 18,19,1
0014b8 91e4      	LPM  R30,Z
0014b9 70e7      	ANDI R30,LOW(0x7)
0014ba f009      	BREQ _0x2040013
0014bb 5f4f      	SUBI R20,-LOW(1)
                 _0x2040013:
0014bc 81ae      	LDD  R26,Y+6
0014bd 27bb      	CLR  R27
0014be 2fe4      	MOV  R30,R20
0014bf e0f0      	LDI  R31,0
0014c0 940e 2065 	CALL __MULW12U
                +
0014c2 0f0e     +ADD R16 , R30
0014c3 1f1f     +ADC R17 , R31
                 	__ADDWRR 16,17,30,31
0014c4 cfe3      	RJMP _0x2040010
                 _0x2040012:
0014c5 01f9      	MOVW R30,R18
0014c6 91e4      	LPM  R30,Z
0014c7 85a9      	LDD  R26,Y+9
0014c8 85ba      	LDD  R27,Y+9+1
0014c9 93ec      	ST   X,R30
0014ca 01f8      	MOVW R30,R16
                 _0x216000C:
0014cb 940e 215e 	CALL __LOADLOCR6
0014cd 962c      	ADIW R28,12
0014ce 9508      	RET
                 ; .FEND
                 _glcd_new_line_G102:
                 ; .FSTART _glcd_new_line_G102
0014cf e0e0      	LDI  R30,LOW(0)
                +
0014d0 93e0 02b0+STS _glcd_state + ( 2 ) , R30
                 	__PUTB1MN _glcd_state,2
                +
0014d2 91a0 02b1+LDS R26 , _glcd_state + ( 3 )
                 	__GETB2MN _glcd_state,3
0014d4 27bb      	CLR  R27
0014d5 940e 1d17 	CALL SUBOPT_0x3C
0014d7 e0f0      	LDI  R31,0
0014d8 0fae      	ADD  R26,R30
0014d9 1fbf      	ADC  R27,R31
                +
0014da 91e0 02b5+LDS R30 , _glcd_state + ( 7 )
                 	__GETB1MN _glcd_state,7
0014dc e0f0      	LDI  R31,0
0014dd 0fae      	ADD  R26,R30
0014de 1fbf      	ADC  R27,R31
0014df 940e 1d1e 	CALL SUBOPT_0x3D
0014e1 9508      	RET
                 ; .FEND
                 _glcd_putchar:
                 ; .FSTART _glcd_putchar
0014e2 93aa      	ST   -Y,R26
0014e3 9721      	SBIW R28,1
0014e4 940e 1d0b 	CALL SUBOPT_0x3A
0014e6 9730      	SBIW R30,0
0014e7 f409      	BRNE PC+2
0014e8 c052      	RJMP _0x2040020
0014e9 81af      	LDD  R26,Y+7
0014ea 30aa      	CPI  R26,LOW(0xA)
0014eb f409      	BRNE _0x2040021
0014ec c04b      	RJMP _0x2040022
                 _0x2040021:
0014ed 81ef      	LDD  R30,Y+7
0014ee 93ea      	ST   -Y,R30
0014ef 01de      	MOVW R26,R28
0014f0 9617      	ADIW R26,7
0014f1 df65      	RCALL _glcd_getcharw_G102
0014f2 01af      	MOVW R20,R30
0014f3 9730      	SBIW R30,0
0014f4 f409      	BRNE _0x2040023
0014f5 c07d      	RJMP _0x216000A
                 _0x2040023:
                +
0014f6 91e0 02b4+LDS R30 , _glcd_state + ( 6 )
                 	__GETB1MN _glcd_state,6
0014f8 81ae      	LDD  R26,Y+6
0014f9 0fea      	ADD  R30,R26
0014fa 2f3e      	MOV  R19,R30
                +
0014fb 91a0 02b0+LDS R26 , _glcd_state + ( 2 )
                 	__GETB2MN _glcd_state,2
0014fd 27bb      	CLR  R27
0014fe e0f0      	LDI  R31,0
0014ff 0fea      	ADD  R30,R26
001500 1ffb      	ADC  R31,R27
001501 018f      	MOVW R16,R30
                +
001502 3801     +CPI R16 , LOW ( 129 )
001503 e0e0     +LDI R30 , HIGH ( 129 )
001504 071e     +CPC R17 , R30
                 	__CPWRN 16,17,129
001505 f018      	BRLO _0x2040024
001506 2f03      	MOV  R16,R19
001507 2711      	CLR  R17
001508 dfc6      	RCALL _glcd_new_line_G102
                 _0x2040024:
001509 940e 1d23 	CALL SUBOPT_0x3E
00150b 85e8      	LDD  R30,Y+8
00150c 93ea      	ST   -Y,R30
00150d 940e 1d17 	CALL SUBOPT_0x3C
00150f 93ea      	ST   -Y,R30
001510 e0e1      	LDI  R30,LOW(1)
001511 93ea      	ST   -Y,R30
001512 935a      	ST   -Y,R21
001513 934a      	ST   -Y,R20
001514 e0a7      	LDI  R26,LOW(7)
001515 940e 1d2a 	CALL SUBOPT_0x3F
001517 81ae      	LDD  R26,Y+6
001518 0fea      	ADD  R30,R26
001519 93ea      	ST   -Y,R30
                +
00151a 91e0 02b1+LDS R30 , _glcd_state + ( 3 )
                 	__GETB1MN _glcd_state,3
00151c 93ea      	ST   -Y,R30
                +
00151d 91e0 02b4+LDS R30 , _glcd_state + ( 6 )
                 	__GETB1MN _glcd_state,6
00151f 93ea      	ST   -Y,R30
001520 940e 1d17 	CALL SUBOPT_0x3C
001522 940e 1d2f 	CALL SUBOPT_0x40
001524 940e 1d2a 	CALL SUBOPT_0x3F
001526 93ea      	ST   -Y,R30
                +
001527 91a0 02b1+LDS R26 , _glcd_state + ( 3 )
                 	__GETB2MN _glcd_state,3
001529 940e 1d17 	CALL SUBOPT_0x3C
00152b 0fea      	ADD  R30,R26
00152c 93ea      	ST   -Y,R30
00152d 933a      	ST   -Y,R19
                +
00152e 91e0 02b5+LDS R30 , _glcd_state + ( 7 )
                 	__GETB1MN _glcd_state,7
001530 940e 1d2f 	CALL SUBOPT_0x40
001532 dc99      	RCALL _glcd_block
001533 e8e0      	LDI  R30,LOW(128)
001534 e0f0      	LDI  R31,HIGH(128)
001535 17e0      	CP   R30,R16
001536 07f1      	CPC  R31,R17
001537 f411      	BRNE _0x2040025
                 _0x2040022:
001538 df96      	RCALL _glcd_new_line_G102
001539 c039      	RJMP _0x216000A
                 _0x2040025:
00153a c036      	RJMP _0x2040026
                 _0x2040020:
00153b 81af      	LDD  R26,Y+7
00153c 30aa      	CPI  R26,LOW(0xA)
00153d f151      	BREQ _0x2040028
                +
00153e 91e0 02b0+LDS R30 , _glcd_state + ( 2 )
                 	__GETB1MN _glcd_state,2
001540 95e6      	LSR  R30
001541 95e6      	LSR  R30
001542 95e6      	LSR  R30
001543 2f3e      	MOV  R19,R30
                +
001544 91e0 02b1+LDS R30 , _glcd_state + ( 3 )
                 	__GETB1MN _glcd_state,3
001546 95e2      	SWAP R30
001547 70ef      	ANDI R30,0xF
001548 2f2e      	MOV  R18,R30
001549 933a      	ST   -Y,R19
00154a 932a      	ST   -Y,R18
00154b 85a9      	LDD  R26,Y+9
00154c de5a      	RCALL _glcd_putcharcg
00154d 2fe3      	MOV  R30,R19
00154e 0fee      	LSL  R30
00154f 0fee      	LSL  R30
001550 0fee      	LSL  R30
                +
001551 93e0 02b0+STS _glcd_state + ( 2 ) , R30
                 	__PUTB1MN _glcd_state,2
001553 e1a0      	LDI  R26,LOW(16)
001554 9f2a      	MUL  R18,R26
001555 01f0      	MOVW R30,R0
                +
001556 93e0 02b1+STS _glcd_state + ( 3 ) , R30
                 	__PUTB1MN _glcd_state,3
001558 940e 1d23 	CALL SUBOPT_0x3E
00155a e0e8      	LDI  R30,LOW(8)
00155b 93ea      	ST   -Y,R30
00155c e1e0      	LDI  R30,LOW(16)
00155d 940e 1d2f 	CALL SUBOPT_0x40
00155f 940e 1d2a 	CALL SUBOPT_0x3F
001561 e0f0      	LDI  R31,0
001562 9638      	ADIW R30,8
001563 018f      	MOVW R16,R30
                +
001564 3800     +CPI R16 , LOW ( 128 )
001565 e0e0     +LDI R30 , HIGH ( 128 )
001566 071e     +CPC R17 , R30
                 	__CPWRN 16,17,128
001567 f048      	BRLO _0x2040029
                 _0x2040028:
                +
001568 e000     +LDI R16 , LOW ( 0 )
001569 e010     +LDI R17 , HIGH ( 0 )
                 	__GETWRN 16,17,0
                +
00156a 91e0 02b1+LDS R30 , _glcd_state + ( 3 )
                 	__GETB1MN _glcd_state,3
00156c e0f0      	LDI  R31,0
00156d 9670      	ADIW R30,16
00156e 01df      	MOVW R26,R30
00156f 940e 1d1e 	CALL SUBOPT_0x3D
                 _0x2040029:
                 _0x2040026:
                +
001571 9300 02b0+STS _glcd_state + ( 2 ) , R16
                 	__PUTBMRN _glcd_state,2,16
                 _0x216000A:
001573 940e 215e 	CALL __LOADLOCR6
                 _0x216000B:
001575 9628      	ADIW R28,8
001576 9508      	RET
                 ; .FEND
                 _glcd_outtextxy:
                 ; .FSTART _glcd_outtextxy
001577 940e 1d38 	CALL SUBOPT_0x41
                 _0x204002A:
001579 940e 1cfc 	CALL SUBOPT_0x38
00157b f019      	BREQ _0x204002C
00157c 2fa1      	MOV  R26,R17
00157d df64      	RCALL _glcd_putchar
00157e cffa      	RJMP _0x204002A
                 _0x204002C:
00157f 8118      	LDD  R17,Y+0
001580 940c 1a15 	JMP  _0x2160004
                 ; .FEND
                 _glcd_outtextxyf:
                 ; .FSTART _glcd_outtextxyf
001582 940e 1d38 	CALL SUBOPT_0x41
                 _0x204002D:
001584 81e9      	LDD  R30,Y+1
001585 81fa      	LDD  R31,Y+1+1
001586 9631      	ADIW R30,1
001587 83e9      	STD  Y+1,R30
001588 83fa      	STD  Y+1+1,R31
001589 9731      	SBIW R30,1
00158a 91e4      	LPM  R30,Z
00158b 2f1e      	MOV  R17,R30
00158c 30e0      	CPI  R30,0
00158d f019      	BREQ _0x204002F
00158e 2fa1      	MOV  R26,R17
00158f df52      	RCALL _glcd_putchar
001590 cff3      	RJMP _0x204002D
                 _0x204002F:
001591 8118      	LDD  R17,Y+0
001592 940c 1a15 	JMP  _0x2160004
                 ; .FEND
                 _glcd_putimagef:
                 ; .FSTART _glcd_putimagef
001594 93aa      	ST   -Y,R26
001595 940e 2159 	CALL __SAVELOCR4
001597 81ac      	LDD  R26,Y+4
001598 30a5      	CPI  R26,LOW(0x5)
001599 f500      	BRSH _0x204003D
00159a 81ed      	LDD  R30,Y+5
00159b 81fe      	LDD  R31,Y+5+1
00159c 9105      	LPM  R16,Z+
00159d 940e 1d40 	CALL SUBOPT_0x42
00159f 9115      	LPM  R17,Z+
0015a0 940e 1d40 	CALL SUBOPT_0x42
0015a2 9125      	LPM  R18,Z+
0015a3 940e 1d40 	CALL SUBOPT_0x42
0015a5 9135      	LPM  R19,Z+
0015a6 83ed      	STD  Y+5,R30
0015a7 83fe      	STD  Y+5+1,R31
0015a8 85e8      	LDD  R30,Y+8
0015a9 93ea      	ST   -Y,R30
0015aa 85e8      	LDD  R30,Y+8
0015ab 93ea      	ST   -Y,R30
0015ac 930a      	ST   -Y,R16
0015ad 932a      	ST   -Y,R18
0015ae e0e1      	LDI  R30,LOW(1)
0015af 93ea      	ST   -Y,R30
0015b0 85ea      	LDD  R30,Y+10
0015b1 85fb      	LDD  R31,Y+10+1
0015b2 93fa      	ST   -Y,R31
0015b3 93ea      	ST   -Y,R30
0015b4 85ab      	LDD  R26,Y+11
0015b5 dc16      	RCALL _glcd_block
0015b6 930a      	ST   -Y,R16
0015b7 2fa2      	MOV  R26,R18
0015b8 de74      	RCALL _glcd_imagesize
0015b9 c004      	RJMP _0x2160009
                 _0x204003D:
                +
0015ba e0e0     +LDI R30 , LOW ( 0x0 )
0015bb e0f0     +LDI R31 , HIGH ( 0x0 )
0015bc e060     +LDI R22 , BYTE3 ( 0x0 )
0015bd e070     +LDI R23 , BYTE4 ( 0x0 )
                 	__GETD1N 0x0
                 _0x2160009:
0015be 940e 2160 	CALL __LOADLOCR4
0015c0 9629      	ADIW R28,9
0015c1 9508      	RET
                 ; .FEND
                 _glcd_moveto:
                 ; .FSTART _glcd_moveto
0015c2 93aa      	ST   -Y,R26
0015c3 81a9      	LDD  R26,Y+1
0015c4 27bb      	CLR  R27
0015c5 de44      	RCALL _glcd_clipx
                +
0015c6 93e0 02b0+STS _glcd_state + ( 2 ) , R30
                 	__PUTB1MN _glcd_state,2
0015c8 81a8      	LD   R26,Y
0015c9 27bb      	CLR  R27
0015ca 940e 1d1e 	CALL SUBOPT_0x3D
0015cc 940c 1aa7 	JMP  _0x2160003
                 ; .FEND
                 
                 	.CSEG
                 _ftoa:
                 ; .FSTART _ftoa
0015ce 93ba      	ST   -Y,R27
0015cf 93aa      	ST   -Y,R26
0015d0 9724      	SBIW R28,4
0015d1 940e 1c6f 	CALL SUBOPT_0x24
0015d3 e3ef      	LDI  R30,LOW(63)
0015d4 83eb      	STD  Y+3,R30
0015d5 931a      	ST   -Y,R17
0015d6 930a      	ST   -Y,R16
0015d7 85eb      	LDD  R30,Y+11
0015d8 85fc      	LDD  R31,Y+11+1
0015d9 3fef      	CPI  R30,LOW(0xFFFF)
0015da efaf      	LDI  R26,HIGH(0xFFFF)
0015db 07fa      	CPC  R31,R26
0015dc f439      	BRNE _0x208000D
0015dd 940e 1d43 	CALL SUBOPT_0x43
                +
0015df eca8     +LDI R26 , LOW ( 2 * _0x2080000 + ( 0 ) )
0015e0 e1b4     +LDI R27 , HIGH ( 2 * _0x2080000 + ( 0 ) )
                 	__POINTW2FN _0x2080000,0
0015e1 940e 1a24 	CALL _strcpyf
0015e3 c0ad      	RJMP _0x2160008
                 _0x208000D:
0015e4 3fef      	CPI  R30,LOW(0x7FFF)
0015e5 e7af      	LDI  R26,HIGH(0x7FFF)
0015e6 07fa      	CPC  R31,R26
0015e7 f439      	BRNE _0x208000C
0015e8 940e 1d43 	CALL SUBOPT_0x43
                +
0015ea eca9     +LDI R26 , LOW ( 2 * _0x2080000 + ( 1 ) )
0015eb e1b4     +LDI R27 , HIGH ( 2 * _0x2080000 + ( 1 ) )
                 	__POINTW2FN _0x2080000,1
0015ec 940e 1a24 	CALL _strcpyf
0015ee c0a2      	RJMP _0x2160008
                 _0x208000C:
0015ef 85ac      	LDD  R26,Y+12
0015f0 23aa      	TST  R26
0015f1 f462      	BRPL _0x208000F
                +
0015f2 85e9     +LDD R30 , Y + 9
0015f3 85fa     +LDD R31 , Y + 9 + 1
0015f4 856b     +LDD R22 , Y + 9 + 2
0015f5 857c     +LDD R23 , Y + 9 + 3
                 	__GETD1S 9
0015f6 940e 1e75 	CALL __ANEGF1
0015f8 940e 1d48 	CALL SUBOPT_0x44
0015fa 940e 1d4d 	CALL SUBOPT_0x45
0015fc e2ed      	LDI  R30,LOW(45)
0015fd 93ec      	ST   X,R30
                 _0x208000F:
0015fe 85a8      	LDD  R26,Y+8
0015ff 30a7      	CPI  R26,LOW(0x7)
001600 f010      	BRLO _0x2080010
001601 e0e6      	LDI  R30,LOW(6)
001602 87e8      	STD  Y+8,R30
                 _0x2080010:
001603 8518      	LDD  R17,Y+8
                 _0x2080011:
001604 2fe1      	MOV  R30,R17
001605 5011      	SUBI R17,1
001606 30e0      	CPI  R30,0
001607 f039      	BREQ _0x2080013
001608 940e 1d54 	CALL SUBOPT_0x46
00160a 940e 1d59 	CALL SUBOPT_0x47
00160c 940e 1d60 	CALL SUBOPT_0x48
00160e cff5      	RJMP _0x2080011
                 _0x2080013:
00160f 940e 1d65 	CALL SUBOPT_0x49
001611 940e 1f1b 	CALL __ADDF12
001613 940e 1d48 	CALL SUBOPT_0x44
001615 e010      	LDI  R17,LOW(0)
                +
001616 e0e0     +LDI R30 , LOW ( 0x3F800000 )
001617 e0f0     +LDI R31 , HIGH ( 0x3F800000 )
001618 e860     +LDI R22 , BYTE3 ( 0x3F800000 )
001619 e37f     +LDI R23 , BYTE4 ( 0x3F800000 )
                 	__GETD1N 0x3F800000
00161a 940e 1d60 	CALL SUBOPT_0x48
                 _0x2080014:
00161c 940e 1d65 	CALL SUBOPT_0x49
00161e 940e 1ffe 	CALL __CMPF12
001620 f088      	BRLO _0x2080016
001621 940e 1d54 	CALL SUBOPT_0x46
001623 940e 1d6e 	CALL SUBOPT_0x4A
001625 940e 1d60 	CALL SUBOPT_0x48
001627 5f1f      	SUBI R17,-LOW(1)
001628 3217      	CPI  R17,39
001629 f038      	BRLO _0x2080017
00162a 940e 1d43 	CALL SUBOPT_0x43
                +
00162c ecad     +LDI R26 , LOW ( 2 * _0x2080000 + ( 5 ) )
00162d e1b4     +LDI R27 , HIGH ( 2 * _0x2080000 + ( 5 ) )
                 	__POINTW2FN _0x2080000,5
00162e 940e 1a24 	CALL _strcpyf
001630 c060      	RJMP _0x2160008
                 _0x2080017:
001631 cfea      	RJMP _0x2080014
                 _0x2080016:
001632 3010      	CPI  R17,0
001633 f429      	BRNE _0x2080018
001634 940e 1d4d 	CALL SUBOPT_0x45
001636 e3e0      	LDI  R30,LOW(48)
001637 93ec      	ST   X,R30
001638 c02b      	RJMP _0x2080019
                 _0x2080018:
                 _0x208001A:
001639 2fe1      	MOV  R30,R17
00163a 5011      	SUBI R17,1
00163b 30e0      	CPI  R30,0
00163c f139      	BREQ _0x208001C
00163d 940e 1d54 	CALL SUBOPT_0x46
00163f 940e 1d59 	CALL SUBOPT_0x47
001641 940e 1d75 	CALL SUBOPT_0x4B
001643 01df      	MOVW R26,R30
001644 01cb      	MOVW R24,R22
001645 940e 1a7b 	CALL _floor
001647 940e 1d60 	CALL SUBOPT_0x48
001649 940e 1d65 	CALL SUBOPT_0x49
00164b 940e 1fb9 	CALL __DIVF21
00164d 940e 1ea8 	CALL __CFD1U
00164f 2f0e      	MOV  R16,R30
001650 940e 1d4d 	CALL SUBOPT_0x45
001652 2fe0      	MOV  R30,R16
001653 5de0      	SUBI R30,-LOW(48)
001654 93ec      	ST   X,R30
001655 2fe0      	MOV  R30,R16
001656 e0f0      	LDI  R31,0
001657 940e 1d54 	CALL SUBOPT_0x46
001659 940e 205b 	CALL __CWD1
00165b 940e 1ee1 	CALL __CDF1
00165d 940e 1f6b 	CALL __MULF12
00165f 940e 1d7c 	CALL SUBOPT_0x4C
001661 940e 1d81 	CALL SUBOPT_0x4D
001663 cfd5      	RJMP _0x208001A
                 _0x208001C:
                 _0x2080019:
001664 85e8      	LDD  R30,Y+8
001665 30e0      	CPI  R30,0
001666 f131      	BREQ _0x2160007
001667 940e 1d4d 	CALL SUBOPT_0x45
001669 e2ee      	LDI  R30,LOW(46)
00166a 93ec      	ST   X,R30
                 _0x208001E:
00166b 85e8      	LDD  R30,Y+8
00166c 50e1      	SUBI R30,LOW(1)
00166d 87e8      	STD  Y+8,R30
00166e 5fef      	SUBI R30,-LOW(1)
00166f f0e9      	BREQ _0x2080020
001670 940e 1d7c 	CALL SUBOPT_0x4C
001672 940e 1d6e 	CALL SUBOPT_0x4A
001674 940e 1d48 	CALL SUBOPT_0x44
                +
001676 85e9     +LDD R30 , Y + 9
001677 85fa     +LDD R31 , Y + 9 + 1
001678 856b     +LDD R22 , Y + 9 + 2
001679 857c     +LDD R23 , Y + 9 + 3
                 	__GETD1S 9
00167a 940e 1ea8 	CALL __CFD1U
00167c 2f0e      	MOV  R16,R30
00167d 940e 1d4d 	CALL SUBOPT_0x45
00167f 2fe0      	MOV  R30,R16
001680 5de0      	SUBI R30,-LOW(48)
001681 93ec      	ST   X,R30
001682 2fe0      	MOV  R30,R16
001683 e0f0      	LDI  R31,0
001684 940e 1d7c 	CALL SUBOPT_0x4C
001686 940e 205b 	CALL __CWD1
001688 940e 1ee1 	CALL __CDF1
00168a 940e 1d81 	CALL SUBOPT_0x4D
00168c cfde      	RJMP _0x208001E
                 _0x2080020:
                 _0x2160007:
00168d 81ae      	LDD  R26,Y+6
00168e 81bf      	LDD  R27,Y+6+1
00168f e0e0      	LDI  R30,LOW(0)
001690 93ec      	ST   X,R30
                 _0x2160008:
001691 8119      	LDD  R17,Y+1
001692 8108      	LDD  R16,Y+0
001693 962d      	ADIW R28,13
001694 9508      	RET
                 ; .FEND
                 
                 	.DSEG
                 
                 	.CSEG
                 	#ifndef __SLEEP_DEFINED__
                 	#endif
                 
                 	.CSEG
                 _put_buff_G105:
                 ; .FSTART _put_buff_G105
001695 93ba      	ST   -Y,R27
001696 93aa      	ST   -Y,R26
001697 931a      	ST   -Y,R17
001698 930a      	ST   -Y,R16
001699 81aa      	LDD  R26,Y+2
00169a 81bb      	LDD  R27,Y+2+1
00169b 9612      	ADIW R26,2
00169c 940e 20fe 	CALL __GETW1P
00169e 9730      	SBIW R30,0
00169f f129      	BREQ _0x20A0010
0016a0 81aa      	LDD  R26,Y+2
0016a1 81bb      	LDD  R27,Y+2+1
0016a2 9614      	ADIW R26,4
0016a3 940e 20fe 	CALL __GETW1P
0016a5 018f      	MOVW R16,R30
0016a6 9730      	SBIW R30,0
0016a7 f061      	BREQ _0x20A0012
                +
0016a8 3002     +CPI R16 , LOW ( 2 )
0016a9 e0e0     +LDI R30 , HIGH ( 2 )
0016aa 071e     +CPC R17 , R30
                 	__CPWRN 16,17,2
0016ab f080      	BRLO _0x20A0013
0016ac 01f8      	MOVW R30,R16
0016ad 9731      	SBIW R30,1
0016ae 018f      	MOVW R16,R30
                +
0016af 81aa     +LDD R26 , Y + 2
0016b0 81bb     +LDD R27 , Y + 2 + 1
0016b1 9614     +ADIW R26 , 4
0016b2 93ed     +ST X + , R30
0016b3 93fc     +ST X , R31
                 	__PUTW1SNS 2,4
                 _0x20A0012:
0016b4 81aa      	LDD  R26,Y+2
0016b5 81bb      	LDD  R27,Y+2+1
0016b6 9612      	ADIW R26,2
0016b7 940e 1d86 	CALL SUBOPT_0x4E
0016b9 9731      	SBIW R30,1
0016ba 81ac      	LDD  R26,Y+4
0016bb 83a0      	STD  Z+0,R26
                 _0x20A0013:
0016bc 81aa      	LDD  R26,Y+2
0016bd 81bb      	LDD  R27,Y+2+1
0016be 940e 20fe 	CALL __GETW1P
0016c0 23ff      	TST  R31
0016c1 f012      	BRMI _0x20A0014
0016c2 940e 1d86 	CALL SUBOPT_0x4E
                 _0x20A0014:
0016c4 c006      	RJMP _0x20A0015
                 _0x20A0010:
0016c5 81aa      	LDD  R26,Y+2
0016c6 81bb      	LDD  R27,Y+2+1
0016c7 efef      	LDI  R30,LOW(65535)
0016c8 efff      	LDI  R31,HIGH(65535)
0016c9 93ed      	ST   X+,R30
0016ca 93fc      	ST   X,R31
                 _0x20A0015:
0016cb 8119      	LDD  R17,Y+1
0016cc 8108      	LDD  R16,Y+0
0016cd 940c 1a15 	JMP  _0x2160004
                 ; .FEND
                 __ftoe_G105:
                 ; .FSTART __ftoe_G105
0016cf 93ba      	ST   -Y,R27
0016d0 93aa      	ST   -Y,R26
0016d1 9724      	SBIW R28,4
0016d2 e0e0      	LDI  R30,LOW(0)
0016d3 83e8      	ST   Y,R30
0016d4 83e9      	STD  Y+1,R30
0016d5 e8e0      	LDI  R30,LOW(128)
0016d6 83ea      	STD  Y+2,R30
0016d7 e3ef      	LDI  R30,LOW(63)
0016d8 83eb      	STD  Y+3,R30
0016d9 940e 2159 	CALL __SAVELOCR4
0016db 85ee      	LDD  R30,Y+14
0016dc 85ff      	LDD  R31,Y+14+1
0016dd 3fef      	CPI  R30,LOW(0xFFFF)
0016de efaf      	LDI  R26,HIGH(0xFFFF)
0016df 07fa      	CPC  R31,R26
0016e0 f449      	BRNE _0x20A0019
0016e1 85e8      	LDD  R30,Y+8
0016e2 85f9      	LDD  R31,Y+8+1
0016e3 93fa      	ST   -Y,R31
0016e4 93ea      	ST   -Y,R30
                +
0016e5 eda2     +LDI R26 , LOW ( 2 * _0x20A0000 + ( 0 ) )
0016e6 e1b4     +LDI R27 , HIGH ( 2 * _0x20A0000 + ( 0 ) )
                 	__POINTW2FN _0x20A0000,0
0016e7 940e 1a24 	CALL _strcpyf
0016e9 c0cb      	RJMP _0x2160006
                 _0x20A0019:
0016ea 3fef      	CPI  R30,LOW(0x7FFF)
0016eb e7af      	LDI  R26,HIGH(0x7FFF)
0016ec 07fa      	CPC  R31,R26
0016ed f449      	BRNE _0x20A0018
0016ee 85e8      	LDD  R30,Y+8
0016ef 85f9      	LDD  R31,Y+8+1
0016f0 93fa      	ST   -Y,R31
0016f1 93ea      	ST   -Y,R30
                +
0016f2 eda3     +LDI R26 , LOW ( 2 * _0x20A0000 + ( 1 ) )
0016f3 e1b4     +LDI R27 , HIGH ( 2 * _0x20A0000 + ( 1 ) )
                 	__POINTW2FN _0x20A0000,1
0016f4 940e 1a24 	CALL _strcpyf
0016f6 c0be      	RJMP _0x2160006
                 _0x20A0018:
0016f7 85ab      	LDD  R26,Y+11
0016f8 30a7      	CPI  R26,LOW(0x7)
0016f9 f010      	BRLO _0x20A001B
0016fa e0e6      	LDI  R30,LOW(6)
0016fb 87eb      	STD  Y+11,R30
                 _0x20A001B:
0016fc 851b      	LDD  R17,Y+11
                 _0x20A001C:
0016fd 2fe1      	MOV  R30,R17
0016fe 5011      	SUBI R17,1
0016ff 30e0      	CPI  R30,0
001700 f029      	BREQ _0x20A001E
001701 940e 1d8c 	CALL SUBOPT_0x4F
001703 940e 1d91 	CALL SUBOPT_0x50
001705 cff7      	RJMP _0x20A001C
                 _0x20A001E:
                +
001706 85ec     +LDD R30 , Y + 12
001707 85fd     +LDD R31 , Y + 12 + 1
001708 856e     +LDD R22 , Y + 12 + 2
001709 857f     +LDD R23 , Y + 12 + 3
                 	__GETD1S 12
00170a 940e 214f 	CALL __CPD10
00170c f431      	BRNE _0x20A001F
00170d e030      	LDI  R19,LOW(0)
00170e 940e 1d8c 	CALL SUBOPT_0x4F
001710 940e 1d91 	CALL SUBOPT_0x50
001712 c037      	RJMP _0x20A0020
                 _0x20A001F:
001713 853b      	LDD  R19,Y+11
001714 940e 1d96 	CALL SUBOPT_0x51
001716 f009      	BREQ PC+2
001717 f408      	BRCC PC+2
001718 c010      	RJMP _0x20A0021
001719 940e 1d8c 	CALL SUBOPT_0x4F
00171b 940e 1d91 	CALL SUBOPT_0x50
                 _0x20A0022:
00171d 940e 1d96 	CALL SUBOPT_0x51
00171f f040      	BRLO _0x20A0024
001720 940e 1da1 	CALL SUBOPT_0x52
001722 940e 1d59 	CALL SUBOPT_0x47
001724 940e 1da6 	CALL SUBOPT_0x53
001726 5f3f      	SUBI R19,-LOW(1)
001727 cff5      	RJMP _0x20A0022
                 _0x20A0024:
001728 c00f      	RJMP _0x20A0025
                 _0x20A0021:
                 _0x20A0026:
001729 940e 1d96 	CALL SUBOPT_0x51
00172b f440      	BRSH _0x20A0028
00172c 940e 1da1 	CALL SUBOPT_0x52
00172e 940e 1d6e 	CALL SUBOPT_0x4A
001730 940e 1da6 	CALL SUBOPT_0x53
001732 5031      	SUBI R19,LOW(1)
001733 cff5      	RJMP _0x20A0026
                 _0x20A0028:
001734 940e 1d8c 	CALL SUBOPT_0x4F
001736 940e 1d91 	CALL SUBOPT_0x50
                 _0x20A0025:
                +
001738 85ec     +LDD R30 , Y + 12
001739 85fd     +LDD R31 , Y + 12 + 1
00173a 856e     +LDD R22 , Y + 12 + 2
00173b 857f     +LDD R23 , Y + 12 + 3
                 	__GETD1S 12
00173c 940e 1d75 	CALL SUBOPT_0x4B
00173e 940e 1da6 	CALL SUBOPT_0x53
001740 940e 1d96 	CALL SUBOPT_0x51
001742 f038      	BRLO _0x20A0029
001743 940e 1da1 	CALL SUBOPT_0x52
001745 940e 1d59 	CALL SUBOPT_0x47
001747 940e 1da6 	CALL SUBOPT_0x53
001749 5f3f      	SUBI R19,-LOW(1)
                 _0x20A0029:
                 _0x20A0020:
00174a e010      	LDI  R17,LOW(0)
                 _0x20A002A:
00174b 85eb      	LDD  R30,Y+11
00174c 17e1      	CP   R30,R17
00174d f1d8      	BRLO _0x20A002C
                +
00174e 81ac     +LDD R26 , Y + 4
00174f 81bd     +LDD R27 , Y + 4 + 1
001750 818e     +LDD R24 , Y + 4 + 2
001751 819f     +LDD R25 , Y + 4 + 3
                 	__GETD2S 4
001752 940e 1d59 	CALL SUBOPT_0x47
001754 940e 1d75 	CALL SUBOPT_0x4B
001756 01df      	MOVW R26,R30
001757 01cb      	MOVW R24,R22
001758 940e 1a7b 	CALL _floor
00175a 940e 1d91 	CALL SUBOPT_0x50
                +
00175c 81ec     +LDD R30 , Y + 4
00175d 81fd     +LDD R31 , Y + 4 + 1
00175e 816e     +LDD R22 , Y + 4 + 2
00175f 817f     +LDD R23 , Y + 4 + 3
                 	__GETD1S 4
001760 940e 1da1 	CALL SUBOPT_0x52
001762 940e 1fb9 	CALL __DIVF21
001764 940e 1ea8 	CALL __CFD1U
001766 2f0e      	MOV  R16,R30
001767 940e 1dab 	CALL SUBOPT_0x54
001769 2fe0      	MOV  R30,R16
00176a 5de0      	SUBI R30,-LOW(48)
00176b 93ec      	ST   X,R30
00176c 2fe0      	MOV  R30,R16
00176d 27ff      	CLR  R31
00176e 2766      	CLR  R22
00176f 2777      	CLR  R23
001770 940e 1ee1 	CALL __CDF1
                +
001772 81ac     +LDD R26 , Y + 4
001773 81bd     +LDD R27 , Y + 4 + 1
001774 818e     +LDD R24 , Y + 4 + 2
001775 819f     +LDD R25 , Y + 4 + 3
                 	__GETD2S 4
001776 940e 1f6b 	CALL __MULF12
001778 940e 1da1 	CALL SUBOPT_0x52
00177a 940e 2125 	CALL __SWAPD12
00177c 940e 1f14 	CALL __SUBF12
00177e 940e 1da6 	CALL SUBOPT_0x53
001780 2fe1      	MOV  R30,R17
001781 5f1f      	SUBI R17,-1
001782 30e0      	CPI  R30,0
001783 f639      	BRNE _0x20A002A
001784 940e 1dab 	CALL SUBOPT_0x54
001786 e2ee      	LDI  R30,LOW(46)
001787 93ec      	ST   X,R30
001788 cfc2      	RJMP _0x20A002A
                 _0x20A002C:
001789 940e 1db2 	CALL SUBOPT_0x55
00178b 9731      	SBIW R30,1
00178c 85aa      	LDD  R26,Y+10
00178d 83a0      	STD  Z+0,R26
00178e 3030      	CPI  R19,0
00178f f42c      	BRGE _0x20A002E
001790 9531      	NEG  R19
001791 85a8      	LDD  R26,Y+8
001792 85b9      	LDD  R27,Y+8+1
001793 e2ed      	LDI  R30,LOW(45)
001794 c003      	RJMP _0x20A0113
                 _0x20A002E:
001795 85a8      	LDD  R26,Y+8
001796 85b9      	LDD  R27,Y+8+1
001797 e2eb      	LDI  R30,LOW(43)
                 _0x20A0113:
001798 93ec      	ST   X,R30
001799 940e 1db2 	CALL SUBOPT_0x55
00179b 940e 1db2 	CALL SUBOPT_0x55
00179d 9731      	SBIW R30,1
00179e 01bf      	MOVW R22,R30
00179f 2fa3      	MOV  R26,R19
0017a0 e0ea      	LDI  R30,LOW(10)
0017a1 940e 20a0 	CALL __DIVB21
0017a3 5de0      	SUBI R30,-LOW(48)
0017a4 01db      	MOVW R26,R22
0017a5 93ec      	ST   X,R30
0017a6 940e 1db2 	CALL SUBOPT_0x55
0017a8 9731      	SBIW R30,1
0017a9 01bf      	MOVW R22,R30
0017aa 2fa3      	MOV  R26,R19
0017ab e0ea      	LDI  R30,LOW(10)
0017ac 940e 20ca 	CALL __MODB21
0017ae 5de0      	SUBI R30,-LOW(48)
0017af 01db      	MOVW R26,R22
0017b0 93ec      	ST   X,R30
0017b1 85a8      	LDD  R26,Y+8
0017b2 85b9      	LDD  R27,Y+8+1
0017b3 e0e0      	LDI  R30,LOW(0)
0017b4 93ec      	ST   X,R30
                 _0x2160006:
0017b5 940e 2160 	CALL __LOADLOCR4
0017b7 9660      	ADIW R28,16
0017b8 9508      	RET
                 ; .FEND
                 __print_G105:
                 ; .FSTART __print_G105
0017b9 93ba      	ST   -Y,R27
0017ba 93aa      	ST   -Y,R26
0017bb 97ef      	SBIW R28,63
0017bc 9761      	SBIW R28,17
0017bd 940e 2157 	CALL __SAVELOCR6
0017bf e010      	LDI  R17,0
                +
0017c0 01fe     +MOVW R30 , R28
0017c1 5ae8     +SUBI R30 , LOW ( - 88 )
0017c2 4fff     +SBCI R31 , HIGH ( - 88 )
0017c3 9001     +LD R0 , Z +
0017c4 81f0     +LD R31 , Z
0017c5 2de0     +MOV R30 , R0
                 	__GETW1SX 88
0017c6 87e8      	STD  Y+8,R30
0017c7 87f9      	STD  Y+8+1,R31
                +
0017c8 01fe     +MOVW R30 , R28
0017c9 5aea     +SUBI R30 , LOW ( - 86 )
0017ca 4fff     +SBCI R31 , HIGH ( - 86 )
0017cb 9001     +LD R0 , Z +
0017cc 81f0     +LD R31 , Z
0017cd 2de0     +MOV R30 , R0
                 	__GETW1SX 86
0017ce 83ee      	STD  Y+6,R30
0017cf 83ff      	STD  Y+6+1,R31
0017d0 81ae      	LDD  R26,Y+6
0017d1 81bf      	LDD  R27,Y+6+1
0017d2 e0e0      	LDI  R30,LOW(0)
0017d3 e0f0      	LDI  R31,HIGH(0)
0017d4 93ed      	ST   X+,R30
0017d5 93fc      	ST   X,R31
                 _0x20A0030:
0017d6 01de      	MOVW R26,R28
0017d7 5aa4      	SUBI R26,LOW(-(92))
0017d8 4fbf      	SBCI R27,HIGH(-(92))
0017d9 940e 1d86 	CALL SUBOPT_0x4E
0017db 9731      	SBIW R30,1
0017dc 91e4      	LPM  R30,Z
0017dd 2f2e      	MOV  R18,R30
0017de 30e0      	CPI  R30,0
0017df f409      	BRNE PC+2
0017e0 c1e9      	RJMP _0x20A0032
0017e1 2fe1      	MOV  R30,R17
0017e2 30e0      	CPI  R30,0
0017e3 f439      	BRNE _0x20A0036
0017e4 3225      	CPI  R18,37
0017e5 f411      	BRNE _0x20A0037
0017e6 e011      	LDI  R17,LOW(1)
0017e7 c002      	RJMP _0x20A0038
                 _0x20A0037:
0017e8 940e 1db8 	CALL SUBOPT_0x56
                 _0x20A0038:
0017ea c1de      	RJMP _0x20A0035
                 _0x20A0036:
0017eb 30e1      	CPI  R30,LOW(0x1)
0017ec f4c1      	BRNE _0x20A0039
0017ed 3225      	CPI  R18,37
0017ee f419      	BRNE _0x20A003A
0017ef 940e 1db8 	CALL SUBOPT_0x56
0017f1 c1d6      	RJMP _0x20A0114
                 _0x20A003A:
0017f2 e012      	LDI  R17,LOW(2)
0017f3 e0e0      	LDI  R30,LOW(0)
0017f4 8bed      	STD  Y+21,R30
0017f5 e000      	LDI  R16,LOW(0)
0017f6 322d      	CPI  R18,45
0017f7 f411      	BRNE _0x20A003B
0017f8 e001      	LDI  R16,LOW(1)
0017f9 c1cf      	RJMP _0x20A0035
                 _0x20A003B:
0017fa 322b      	CPI  R18,43
0017fb f419      	BRNE _0x20A003C
0017fc e2eb      	LDI  R30,LOW(43)
0017fd 8bed      	STD  Y+21,R30
0017fe c1ca      	RJMP _0x20A0035
                 _0x20A003C:
0017ff 3220      	CPI  R18,32
001800 f419      	BRNE _0x20A003D
001801 e2e0      	LDI  R30,LOW(32)
001802 8bed      	STD  Y+21,R30
001803 c1c5      	RJMP _0x20A0035
                 _0x20A003D:
001804 c002      	RJMP _0x20A003E
                 _0x20A0039:
001805 30e2      	CPI  R30,LOW(0x2)
001806 f439      	BRNE _0x20A003F
                 _0x20A003E:
001807 e050      	LDI  R21,LOW(0)
001808 e013      	LDI  R17,LOW(3)
001809 3320      	CPI  R18,48
00180a f411      	BRNE _0x20A0040
00180b 6800      	ORI  R16,LOW(128)
00180c c1bc      	RJMP _0x20A0035
                 _0x20A0040:
00180d c002      	RJMP _0x20A0041
                 _0x20A003F:
00180e 30e3      	CPI  R30,LOW(0x3)
00180f f491      	BRNE _0x20A0042
                 _0x20A0041:
001810 3320      	CPI  R18,48
001811 f010      	BRLO _0x20A0044
001812 332a      	CPI  R18,58
001813 f008      	BRLO _0x20A0045
                 _0x20A0044:
001814 c007      	RJMP _0x20A0043
                 _0x20A0045:
001815 e0aa      	LDI  R26,LOW(10)
001816 9f5a      	MUL  R21,R26
001817 2d50      	MOV  R21,R0
001818 2fe2      	MOV  R30,R18
001819 53e0      	SUBI R30,LOW(48)
00181a 0f5e      	ADD  R21,R30
00181b c1ad      	RJMP _0x20A0035
                 _0x20A0043:
00181c e040      	LDI  R20,LOW(0)
00181d 322e      	CPI  R18,46
00181e f411      	BRNE _0x20A0046
00181f e014      	LDI  R17,LOW(4)
001820 c1a8      	RJMP _0x20A0035
                 _0x20A0046:
001821 c00f      	RJMP _0x20A0047
                 _0x20A0042:
001822 30e4      	CPI  R30,LOW(0x4)
001823 f499      	BRNE _0x20A0049
001824 3320      	CPI  R18,48
001825 f010      	BRLO _0x20A004B
001826 332a      	CPI  R18,58
001827 f008      	BRLO _0x20A004C
                 _0x20A004B:
001828 c008      	RJMP _0x20A004A
                 _0x20A004C:
001829 6200      	ORI  R16,LOW(32)
00182a e0aa      	LDI  R26,LOW(10)
00182b 9f4a      	MUL  R20,R26
00182c 2d40      	MOV  R20,R0
00182d 2fe2      	MOV  R30,R18
00182e 53e0      	SUBI R30,LOW(48)
00182f 0f4e      	ADD  R20,R30
001830 c198      	RJMP _0x20A0035
                 _0x20A004A:
                 _0x20A0047:
001831 362c      	CPI  R18,108
001832 f419      	BRNE _0x20A004D
001833 6002      	ORI  R16,LOW(2)
001834 e015      	LDI  R17,LOW(5)
001835 c193      	RJMP _0x20A0035
                 _0x20A004D:
001836 c003      	RJMP _0x20A004E
                 _0x20A0049:
001837 30e5      	CPI  R30,LOW(0x5)
001838 f009      	BREQ PC+2
001839 c18f      	RJMP _0x20A0035
                 _0x20A004E:
00183a 2fe2      	MOV  R30,R18
00183b 36e3      	CPI  R30,LOW(0x63)
00183c f459      	BRNE _0x20A0053
00183d 940e 1dbf 	CALL SUBOPT_0x57
00183f 940e 1dc6 	CALL SUBOPT_0x58
001841 940e 1dbf 	CALL SUBOPT_0x57
001843 81a4      	LDD  R26,Z+4
001844 93aa      	ST   -Y,R26
001845 940e 1dcd 	CALL SUBOPT_0x59
001847 c180      	RJMP _0x20A0054
                 _0x20A0053:
001848 34e5      	CPI  R30,LOW(0x45)
001849 f011      	BREQ _0x20A0057
00184a 36e5      	CPI  R30,LOW(0x65)
00184b f409      	BRNE _0x20A0058
                 _0x20A0057:
00184c c003      	RJMP _0x20A0059
                 _0x20A0058:
00184d 36e6      	CPI  R30,LOW(0x66)
00184e f009      	BREQ PC+2
00184f c048      	RJMP _0x20A005A
                 _0x20A0059:
001850 01fe      	MOVW R30,R28
001851 9676      	ADIW R30,22
001852 87ee      	STD  Y+14,R30
001853 87ff      	STD  Y+14+1,R31
001854 940e 1dd3 	CALL SUBOPT_0x5A
001856 940e 2102 	CALL __GETD1P
001858 940e 1dda 	CALL SUBOPT_0x5B
00185a 940e 1ddf 	CALL SUBOPT_0x5C
00185c 85ad      	LDD  R26,Y+13
00185d 23aa      	TST  R26
00185e f032      	BRMI _0x20A005B
00185f 89ad      	LDD  R26,Y+21
001860 32ab      	CPI  R26,LOW(0x2B)
001861 f059      	BREQ _0x20A005D
001862 32a0      	CPI  R26,LOW(0x20)
001863 f081      	BREQ _0x20A005F
001864 c017      	RJMP _0x20A0060
                 _0x20A005B:
001865 940e 1de1 	CALL SUBOPT_0x5D
001867 940e 1e75 	CALL __ANEGF1
001869 940e 1dda 	CALL SUBOPT_0x5B
00186b e2ed      	LDI  R30,LOW(45)
00186c 8bed      	STD  Y+21,R30
                 _0x20A005D:
00186d ff07      	SBRS R16,7
00186e c005      	RJMP _0x20A0061
00186f 89ed      	LDD  R30,Y+21
001870 93ea      	ST   -Y,R30
001871 940e 1dcd 	CALL SUBOPT_0x59
001873 c008      	RJMP _0x20A0062
                 _0x20A0061:
                 _0x20A005F:
001874 85ee      	LDD  R30,Y+14
001875 85ff      	LDD  R31,Y+14+1
001876 9631      	ADIW R30,1
001877 87ee      	STD  Y+14,R30
001878 87ff      	STD  Y+14+1,R31
001879 9731      	SBIW R30,1
00187a 89ad      	LDD  R26,Y+21
00187b 83a0      	STD  Z+0,R26
                 _0x20A0062:
                 _0x20A0060:
00187c ff05      	SBRS R16,5
00187d e046      	LDI  R20,LOW(6)
00187e 3626      	CPI  R18,102
00187f f451      	BRNE _0x20A0064
001880 940e 1de1 	CALL SUBOPT_0x5D
001882 940e 211b 	CALL __PUTPARD1
001884 934a      	ST   -Y,R20
001885 89ab      	LDD  R26,Y+19
001886 89bc      	LDD  R27,Y+19+1
001887 940e 15ce 	CALL _ftoa
001889 c009      	RJMP _0x20A0065
                 _0x20A0064:
00188a 940e 1de1 	CALL SUBOPT_0x5D
00188c 940e 211b 	CALL __PUTPARD1
00188e 934a      	ST   -Y,R20
00188f 932a      	ST   -Y,R18
001890 89ac      	LDD  R26,Y+20
001891 89bd      	LDD  R27,Y+20+1
001892 de3c      	RCALL __ftoe_G105
                 _0x20A0065:
001893 01fe      	MOVW R30,R28
001894 9676      	ADIW R30,22
001895 940e 1de6 	CALL SUBOPT_0x5E
001897 c01e      	RJMP _0x20A0066
                 _0x20A005A:
001898 37e3      	CPI  R30,LOW(0x73)
001899 f439      	BRNE _0x20A0068
00189a 940e 1ddf 	CALL SUBOPT_0x5C
00189c 940e 1dee 	CALL SUBOPT_0x5F
00189e 940e 1de6 	CALL SUBOPT_0x5E
0018a0 c00e      	RJMP _0x20A0069
                 _0x20A0068:
0018a1 37e0      	CPI  R30,LOW(0x70)
0018a2 f4c1      	BRNE _0x20A006B
0018a3 940e 1ddf 	CALL SUBOPT_0x5C
0018a5 940e 1dee 	CALL SUBOPT_0x5F
0018a7 87ee      	STD  Y+14,R30
0018a8 87ff      	STD  Y+14+1,R31
0018a9 85ae      	LDD  R26,Y+14
0018aa 85bf      	LDD  R27,Y+14+1
0018ab 940e 1a3d 	CALL _strlenf
0018ad 2f1e      	MOV  R17,R30
0018ae 6008      	ORI  R16,LOW(8)
                 _0x20A0069:
0018af 770f      	ANDI R16,LOW(127)
0018b0 3040      	CPI  R20,0
0018b1 f011      	BREQ _0x20A006D
0018b2 1741      	CP   R20,R17
0018b3 f008      	BRLO _0x20A006E
                 _0x20A006D:
0018b4 c001      	RJMP _0x20A006C
                 _0x20A006E:
0018b5 2f14      	MOV  R17,R20
                 _0x20A006C:
                 _0x20A0066:
0018b6 e040      	LDI  R20,LOW(0)
0018b7 e0e0      	LDI  R30,LOW(0)
0018b8 8bec      	STD  Y+20,R30
0018b9 e030      	LDI  R19,LOW(0)
0018ba c06d      	RJMP _0x20A006F
                 _0x20A006B:
0018bb 36e4      	CPI  R30,LOW(0x64)
0018bc f011      	BREQ _0x20A0072
0018bd 36e9      	CPI  R30,LOW(0x69)
0018be f411      	BRNE _0x20A0073
                 _0x20A0072:
0018bf 6004      	ORI  R16,LOW(4)
0018c0 c002      	RJMP _0x20A0074
                 _0x20A0073:
0018c1 37e5      	CPI  R30,LOW(0x75)
0018c2 f4a1      	BRNE _0x20A0075
                 _0x20A0074:
0018c3 e0ea      	LDI  R30,LOW(10)
0018c4 8bec      	STD  Y+20,R30
0018c5 ff01      	SBRS R16,1
0018c6 c008      	RJMP _0x20A0076
                +
0018c7 e0e0     +LDI R30 , LOW ( 0x3B9ACA00 )
0018c8 ecfa     +LDI R31 , HIGH ( 0x3B9ACA00 )
0018c9 e96a     +LDI R22 , BYTE3 ( 0x3B9ACA00 )
0018ca e37b     +LDI R23 , BYTE4 ( 0x3B9ACA00 )
                 	__GETD1N 0x3B9ACA00
0018cb 940e 1df3 	CALL SUBOPT_0x60
0018cd e01a      	LDI  R17,LOW(10)
0018ce c022      	RJMP _0x20A0077
                 _0x20A0076:
                +
0018cf e1e0     +LDI R30 , LOW ( 0x2710 )
0018d0 e2f7     +LDI R31 , HIGH ( 0x2710 )
0018d1 e060     +LDI R22 , BYTE3 ( 0x2710 )
0018d2 e070     +LDI R23 , BYTE4 ( 0x2710 )
                 	__GETD1N 0x2710
0018d3 940e 1df3 	CALL SUBOPT_0x60
0018d5 e015      	LDI  R17,LOW(5)
0018d6 c01a      	RJMP _0x20A0077
                 _0x20A0075:
0018d7 35e8      	CPI  R30,LOW(0x58)
0018d8 f411      	BRNE _0x20A0079
0018d9 6008      	ORI  R16,LOW(8)
0018da c003      	RJMP _0x20A007A
                 _0x20A0079:
0018db 37e8      	CPI  R30,LOW(0x78)
0018dc f009      	BREQ PC+2
0018dd c0ea      	RJMP _0x20A00B8
                 _0x20A007A:
0018de e1e0      	LDI  R30,LOW(16)
0018df 8bec      	STD  Y+20,R30
0018e0 ff01      	SBRS R16,1
0018e1 c008      	RJMP _0x20A007C
                +
0018e2 e0e0     +LDI R30 , LOW ( 0x10000000 )
0018e3 e0f0     +LDI R31 , HIGH ( 0x10000000 )
0018e4 e060     +LDI R22 , BYTE3 ( 0x10000000 )
0018e5 e170     +LDI R23 , BYTE4 ( 0x10000000 )
                 	__GETD1N 0x10000000
0018e6 940e 1df3 	CALL SUBOPT_0x60
0018e8 e018      	LDI  R17,LOW(8)
0018e9 c007      	RJMP _0x20A0077
                 _0x20A007C:
                +
0018ea e0e0     +LDI R30 , LOW ( 0x1000 )
0018eb e1f0     +LDI R31 , HIGH ( 0x1000 )
0018ec e060     +LDI R22 , BYTE3 ( 0x1000 )
0018ed e070     +LDI R23 , BYTE4 ( 0x1000 )
                 	__GETD1N 0x1000
0018ee 940e 1df3 	CALL SUBOPT_0x60
0018f0 e014      	LDI  R17,LOW(4)
                 _0x20A0077:
0018f1 3040      	CPI  R20,0
0018f2 f011      	BREQ _0x20A007D
0018f3 770f      	ANDI R16,LOW(127)
0018f4 c001      	RJMP _0x20A007E
                 _0x20A007D:
0018f5 e041      	LDI  R20,LOW(1)
                 _0x20A007E:
0018f6 ff01      	SBRS R16,1
0018f7 c008      	RJMP _0x20A007F
0018f8 940e 1ddf 	CALL SUBOPT_0x5C
0018fa 940e 1dd3 	CALL SUBOPT_0x5A
0018fc 9614      	ADIW R26,4
0018fd 940e 2102 	CALL __GETD1P
0018ff c00f      	RJMP _0x20A0115
                 _0x20A007F:
001900 ff02      	SBRS R16,2
001901 c007      	RJMP _0x20A0081
001902 940e 1ddf 	CALL SUBOPT_0x5C
001904 940e 1dee 	CALL SUBOPT_0x5F
001906 940e 205b 	CALL __CWD1
001908 c006      	RJMP _0x20A0115
                 _0x20A0081:
001909 940e 1ddf 	CALL SUBOPT_0x5C
00190b 940e 1dee 	CALL SUBOPT_0x5F
00190d 2766      	CLR  R22
00190e 2777      	CLR  R23
                 _0x20A0115:
                +
00190f 87ea     +STD Y + 10 , R30
001910 87fb     +STD Y + 10 + 1 , R31
001911 876c     +STD Y + 10 + 2 , R22
001912 877d     +STD Y + 10 + 3 , R23
                 	__PUTD1S 10
001913 ff02      	SBRS R16,2
001914 c012      	RJMP _0x20A0083
001915 85ad      	LDD  R26,Y+13
001916 23aa      	TST  R26
001917 f442      	BRPL _0x20A0084
001918 940e 1de1 	CALL SUBOPT_0x5D
00191a 940e 2026 	CALL __ANEGD1
00191c 940e 1dda 	CALL SUBOPT_0x5B
00191e e2ed      	LDI  R30,LOW(45)
00191f 8bed      	STD  Y+21,R30
                 _0x20A0084:
001920 89ed      	LDD  R30,Y+21
001921 30e0      	CPI  R30,0
001922 f019      	BREQ _0x20A0085
001923 5f1f      	SUBI R17,-LOW(1)
001924 5f4f      	SUBI R20,-LOW(1)
001925 c001      	RJMP _0x20A0086
                 _0x20A0085:
001926 7f0b      	ANDI R16,LOW(251)
                 _0x20A0086:
                 _0x20A0083:
001927 2f34      	MOV  R19,R20
                 _0x20A006F:
001928 fd00      	SBRC R16,0
001929 c014      	RJMP _0x20A0087
                 _0x20A0088:
00192a 1715      	CP   R17,R21
00192b f410      	BRSH _0x20A008B
00192c 1735      	CP   R19,R21
00192d f008      	BRLO _0x20A008C
                 _0x20A008B:
00192e c00f      	RJMP _0x20A008A
                 _0x20A008C:
00192f ff07      	SBRS R16,7
001930 c008      	RJMP _0x20A008D
001931 ff02      	SBRS R16,2
001932 c004      	RJMP _0x20A008E
001933 7f0b      	ANDI R16,LOW(251)
001934 892d      	LDD  R18,Y+21
001935 5011      	SUBI R17,LOW(1)
001936 c001      	RJMP _0x20A008F
                 _0x20A008E:
001937 e320      	LDI  R18,LOW(48)
                 _0x20A008F:
001938 c001      	RJMP _0x20A0090
                 _0x20A008D:
001939 e220      	LDI  R18,LOW(32)
                 _0x20A0090:
00193a 940e 1db8 	CALL SUBOPT_0x56
00193c 5051      	SUBI R21,LOW(1)
00193d cfec      	RJMP _0x20A0088
                 _0x20A008A:
                 _0x20A0087:
                 _0x20A0091:
00193e 1714      	CP   R17,R20
00193f f490      	BRSH _0x20A0093
001940 6100      	ORI  R16,LOW(16)
001941 ff02      	SBRS R16,2
001942 c006      	RJMP _0x20A0094
001943 940e 1df8 	CALL SUBOPT_0x61
001945 f009      	BREQ _0x20A0095
001946 5051      	SUBI R21,LOW(1)
                 _0x20A0095:
001947 5011      	SUBI R17,LOW(1)
001948 5041      	SUBI R20,LOW(1)
                 _0x20A0094:
001949 e3e0      	LDI  R30,LOW(48)
00194a 93ea      	ST   -Y,R30
00194b 940e 1dcd 	CALL SUBOPT_0x59
00194d 3050      	CPI  R21,0
00194e f009      	BREQ _0x20A0096
00194f 5051      	SUBI R21,LOW(1)
                 _0x20A0096:
001950 5041      	SUBI R20,LOW(1)
001951 cfec      	RJMP _0x20A0091
                 _0x20A0093:
001952 2f31      	MOV  R19,R17
001953 89ec      	LDD  R30,Y+20
001954 30e0      	CPI  R30,0
001955 f4b9      	BRNE _0x20A0097
                 _0x20A0098:
001956 3030      	CPI  R19,0
001957 f0a1      	BREQ _0x20A009A
001958 ff03      	SBRS R16,3
001959 c006      	RJMP _0x20A009B
00195a 85ee      	LDD  R30,Y+14
00195b 85ff      	LDD  R31,Y+14+1
00195c 9125      	LPM  R18,Z+
00195d 87ee      	STD  Y+14,R30
00195e 87ff      	STD  Y+14+1,R31
00195f c005      	RJMP _0x20A009C
                 _0x20A009B:
001960 85ae      	LDD  R26,Y+14
001961 85bf      	LDD  R27,Y+14+1
001962 912d      	LD   R18,X+
001963 87ae      	STD  Y+14,R26
001964 87bf      	STD  Y+14+1,R27
                 _0x20A009C:
001965 940e 1db8 	CALL SUBOPT_0x56
001967 3050      	CPI  R21,0
001968 f009      	BREQ _0x20A009D
001969 5051      	SUBI R21,LOW(1)
                 _0x20A009D:
00196a 5031      	SUBI R19,LOW(1)
00196b cfea      	RJMP _0x20A0098
                 _0x20A009A:
00196c c051      	RJMP _0x20A009E
                 _0x20A0097:
                 _0x20A00A0:
00196d 940e 1e0a 	CALL SUBOPT_0x62
00196f 940e 20a5 	CALL __DIVD21U
001971 2f2e      	MOV  R18,R30
001972 302a      	CPI  R18,10
001973 f030      	BRLO _0x20A00A2
001974 ff03      	SBRS R16,3
001975 c002      	RJMP _0x20A00A3
001976 5c29      	SUBI R18,-LOW(55)
001977 c001      	RJMP _0x20A00A4
                 _0x20A00A3:
001978 5a29      	SUBI R18,-LOW(87)
                 _0x20A00A4:
001979 c001      	RJMP _0x20A00A5
                 _0x20A00A2:
00197a 5d20      	SUBI R18,-LOW(48)
                 _0x20A00A5:
00197b fd04      	SBRC R16,4
00197c c021      	RJMP _0x20A00A7
00197d 3321      	CPI  R18,49
00197e f460      	BRSH _0x20A00A9
                +
00197f 89a8     +LDD R26 , Y + 16
001980 89b9     +LDD R27 , Y + 16 + 1
001981 898a     +LDD R24 , Y + 16 + 2
001982 899b     +LDD R25 , Y + 16 + 3
                 	__GETD2S 16
                +
001983 30a1     +CPI R26 , LOW ( 0x1 )
001984 e0e0     +LDI R30 , HIGH ( 0x1 )
001985 07be     +CPC R27 , R30
001986 e0e0     +LDI R30 , BYTE3 ( 0x1 )
001987 078e     +CPC R24 , R30
001988 e0e0     +LDI R30 , BYTE4 ( 0x1 )
001989 079e     +CPC R25 , R30
                 	__CPD2N 0x1
00198a f409      	BRNE _0x20A00A8
                 _0x20A00A9:
00198b c00b      	RJMP _0x20A00AB
                 _0x20A00A8:
00198c 1743      	CP   R20,R19
00198d f440      	BRSH _0x20A0116
00198e 1753      	CP   R21,R19
00198f f010      	BRLO _0x20A00AE
001990 ff00      	SBRS R16,0
001991 c001      	RJMP _0x20A00AF
                 _0x20A00AE:
001992 c010      	RJMP _0x20A00AD
                 _0x20A00AF:
001993 e220      	LDI  R18,LOW(32)
001994 ff07      	SBRS R16,7
001995 c008      	RJMP _0x20A00B0
                 _0x20A0116:
001996 e320      	LDI  R18,LOW(48)
                 _0x20A00AB:
001997 6100      	ORI  R16,LOW(16)
001998 ff02      	SBRS R16,2
001999 c004      	RJMP _0x20A00B1
00199a 940e 1df8 	CALL SUBOPT_0x61
00199c f009      	BREQ _0x20A00B2
00199d 5051      	SUBI R21,LOW(1)
                 _0x20A00B2:
                 _0x20A00B1:
                 _0x20A00B0:
                 _0x20A00A7:
00199e 940e 1db8 	CALL SUBOPT_0x56
0019a0 3050      	CPI  R21,0
0019a1 f009      	BREQ _0x20A00B3
0019a2 5051      	SUBI R21,LOW(1)
                 _0x20A00B3:
                 _0x20A00AD:
0019a3 5031      	SUBI R19,LOW(1)
0019a4 940e 1e0a 	CALL SUBOPT_0x62
0019a6 940e 20e0 	CALL __MODD21U
0019a8 940e 1dda 	CALL SUBOPT_0x5B
0019aa 89ec      	LDD  R30,Y+20
                +
0019ab 89a8     +LDD R26 , Y + 16
0019ac 89b9     +LDD R27 , Y + 16 + 1
0019ad 898a     +LDD R24 , Y + 16 + 2
0019ae 899b     +LDD R25 , Y + 16 + 3
                 	__GETD2S 16
0019af 27ff      	CLR  R31
0019b0 2766      	CLR  R22
0019b1 2777      	CLR  R23
0019b2 940e 20a5 	CALL __DIVD21U
0019b4 940e 1df3 	CALL SUBOPT_0x60
                +
0019b6 89e8     +LDD R30 , Y + 16
0019b7 89f9     +LDD R31 , Y + 16 + 1
0019b8 896a     +LDD R22 , Y + 16 + 2
0019b9 897b     +LDD R23 , Y + 16 + 3
                 	__GETD1S 16
0019ba 940e 214f 	CALL __CPD10
0019bc f009      	BREQ _0x20A00A1
0019bd cfaf      	RJMP _0x20A00A0
                 _0x20A00A1:
                 _0x20A009E:
0019be ff00      	SBRS R16,0
0019bf c008      	RJMP _0x20A00B4
                 _0x20A00B5:
0019c0 3050      	CPI  R21,0
0019c1 f031      	BREQ _0x20A00B7
0019c2 5051      	SUBI R21,LOW(1)
0019c3 e2e0      	LDI  R30,LOW(32)
0019c4 93ea      	ST   -Y,R30
0019c5 940e 1dcd 	CALL SUBOPT_0x59
0019c7 cff8      	RJMP _0x20A00B5
                 _0x20A00B7:
                 _0x20A00B4:
                 _0x20A00B8:
                 _0x20A0054:
                 _0x20A0114:
0019c8 e010      	LDI  R17,LOW(0)
                 _0x20A0035:
0019c9 ce0c      	RJMP _0x20A0030
                 _0x20A0032:
0019ca 81ae      	LDD  R26,Y+6
0019cb 81bf      	LDD  R27,Y+6+1
0019cc 940e 20fe 	CALL __GETW1P
0019ce 940e 215e 	CALL __LOADLOCR6
0019d0 96ef      	ADIW R28,63
0019d1 966f      	ADIW R28,31
0019d2 9508      	RET
                 ; .FEND
                 _sprintf:
                 ; .FSTART _sprintf
0019d3 92ff      	PUSH R15
0019d4 2ef8      	MOV  R15,R24
0019d5 9726      	SBIW R28,6
0019d6 940e 2159 	CALL __SAVELOCR4
0019d8 940e 1e13 	CALL SUBOPT_0x63
0019da 9730      	SBIW R30,0
0019db f419      	BRNE _0x20A00B9
0019dc efef      	LDI  R30,LOW(65535)
0019dd efff      	LDI  R31,HIGH(65535)
0019de c023      	RJMP _0x2160005
                 _0x20A00B9:
0019df 01de      	MOVW R26,R28
0019e0 9616      	ADIW R26,6
0019e1 940e 201e 	CALL __ADDW2R15
0019e3 018d      	MOVW R16,R26
0019e4 940e 1e13 	CALL SUBOPT_0x63
0019e6 83ee      	STD  Y+6,R30
0019e7 83ff      	STD  Y+6+1,R31
0019e8 e0e0      	LDI  R30,LOW(0)
0019e9 87e8      	STD  Y+8,R30
0019ea 87e9      	STD  Y+8+1,R30
0019eb 01de      	MOVW R26,R28
0019ec 961a      	ADIW R26,10
0019ed 940e 201e 	CALL __ADDW2R15
0019ef 940e 20fe 	CALL __GETW1P
0019f1 93fa      	ST   -Y,R31
0019f2 93ea      	ST   -Y,R30
0019f3 931a      	ST   -Y,R17
0019f4 930a      	ST   -Y,R16
0019f5 e9e5      	LDI  R30,LOW(_put_buff_G105)
0019f6 e1f6      	LDI  R31,HIGH(_put_buff_G105)
0019f7 93fa      	ST   -Y,R31
0019f8 93ea      	ST   -Y,R30
0019f9 01de      	MOVW R26,R28
0019fa 961a      	ADIW R26,10
0019fb ddbd      	RCALL __print_G105
0019fc 019f      	MOVW R18,R30
0019fd 81ae      	LDD  R26,Y+6
0019fe 81bf      	LDD  R27,Y+6+1
0019ff e0e0      	LDI  R30,LOW(0)
001a00 93ec      	ST   X,R30
001a01 01f9      	MOVW R30,R18
                 _0x2160005:
001a02 940e 2160 	CALL __LOADLOCR4
001a04 962a      	ADIW R28,10
001a05 90ff      	POP  R15
001a06 9508      	RET
                 ; .FEND
                 
                 	.CSEG
                 _memset:
                 ; .FSTART _memset
001a07 93ba      	ST   -Y,R27
001a08 93aa      	ST   -Y,R26
001a09 81b9          ldd  r27,y+1
001a0a 81a8          ld   r26,y
001a0b 9610          adiw r26,0
001a0c f031          breq memset1
001a0d 81fc          ldd  r31,y+4
001a0e 81eb          ldd  r30,y+3
001a0f 816a          ldd  r22,y+2
                 memset0:
001a10 9361          st   z+,r22
001a11 9711          sbiw r26,1
001a12 f7e9          brne memset0
                 memset1:
001a13 81eb          ldd  r30,y+3
001a14 81fc          ldd  r31,y+4
                 _0x2160004:
001a15 9625      	ADIW R28,5
001a16 9508      	RET
                 ; .FEND
                 _strcpy:
                 ; .FSTART _strcpy
001a17 93ba      	ST   -Y,R27
001a18 93aa      	ST   -Y,R26
001a19 91e9          ld   r30,y+
001a1a 91f9          ld   r31,y+
001a1b 91a9          ld   r26,y+
001a1c 91b9          ld   r27,y+
001a1d 01cd          movw r24,r26
                 strcpy0:
001a1e 9161          ld   r22,z+
001a1f 936d          st   x+,r22
001a20 2366          tst  r22
001a21 f7e1          brne strcpy0
001a22 01fc          movw r30,r24
001a23 9508          ret
                 ; .FEND
                 _strcpyf:
                 ; .FSTART _strcpyf
001a24 93ba      	ST   -Y,R27
001a25 93aa      	ST   -Y,R26
001a26 91e9          ld   r30,y+
001a27 91f9          ld   r31,y+
001a28 91a9          ld   r26,y+
001a29 91b9          ld   r27,y+
001a2a 01cd          movw r24,r26
                 strcpyf0:
001a2b 9005      	lpm  r0,z+
001a2c 920d          st   x+,r0
001a2d 2000          tst  r0
001a2e f7e1          brne strcpyf0
001a2f 01fc          movw r30,r24
001a30 9508          ret
                 ; .FEND
                 _strlen:
                 ; .FSTART _strlen
001a31 93ba      	ST   -Y,R27
001a32 93aa      	ST   -Y,R26
001a33 91a9          ld   r26,y+
001a34 91b9          ld   r27,y+
001a35 27ee          clr  r30
001a36 27ff          clr  r31
                 strlen0:
001a37 916d          ld   r22,x+
001a38 2366          tst  r22
001a39 f011          breq strlen1
001a3a 9631          adiw r30,1
001a3b cffb          rjmp strlen0
                 strlen1:
001a3c 9508          ret
                 ; .FEND
                 _strlenf:
                 ; .FSTART _strlenf
001a3d 93ba      	ST   -Y,R27
001a3e 93aa      	ST   -Y,R26
001a3f 27aa          clr  r26
001a40 27bb          clr  r27
001a41 91e9          ld   r30,y+
001a42 91f9          ld   r31,y+
                 strlenf0:
001a43 9005      	lpm  r0,z+
001a44 2000          tst  r0
001a45 f011          breq strlenf1
001a46 9611          adiw r26,1
001a47 cffb          rjmp strlenf0
                 strlenf1:
001a48 01fd          movw r30,r26
001a49 9508          ret
                 ; .FEND
                 
                 	.CSEG
                 _ftrunc:
                 ; .FSTART _ftrunc
001a4a 940e 2120 	CALL __PUTPARD2
001a4c 817b         ldd  r23,y+3
001a4d 816a         ldd  r22,y+2
001a4e 81f9         ldd  r31,y+1
001a4f 81e8         ld   r30,y
001a50 fb77         bst  r23,7
001a51 0f77         lsl  r23
001a52 fd67         sbrc r22,7
001a53 6071         sbr  r23,1
001a54 2f97         mov  r25,r23
001a55 579e         subi r25,0x7e
001a56 f081         breq __ftrunc0
001a57 f078         brcs __ftrunc0
001a58 3198         cpi  r25,24
001a59 f490         brsh __ftrunc1
001a5a 27aa         clr  r26
001a5b 27bb         clr  r27
001a5c 2788         clr  r24
                 __ftrunc2:
001a5d 9408         sec
001a5e 9587         ror  r24
001a5f 95b7         ror  r27
001a60 95a7         ror  r26
001a61 959a         dec  r25
001a62 f7d1         brne __ftrunc2
001a63 23ea         and  r30,r26
001a64 23fb         and  r31,r27
001a65 2368         and  r22,r24
001a66 c005         rjmp __ftrunc1
                 __ftrunc0:
001a67 94e8         clt
001a68 2777         clr  r23
001a69 27ee         clr  r30
001a6a 27ff         clr  r31
001a6b 2766         clr  r22
                 __ftrunc1:
001a6c 776f         cbr  r22,0x80
001a6d 9576         lsr  r23
001a6e f408         brcc __ftrunc3
001a6f 6860         sbr  r22,0x80
                 __ftrunc3:
001a70 f977         bld  r23,7
001a71 91a9         ld   r26,y+
001a72 91b9         ld   r27,y+
001a73 9189         ld   r24,y+
001a74 9199         ld   r25,y+
001a75 17ea         cp   r30,r26
001a76 07fb         cpc  r31,r27
001a77 0768         cpc  r22,r24
001a78 0779         cpc  r23,r25
001a79 fb97         bst  r25,7
001a7a 9508         ret
                 ; .FEND
                 _floor:
                 ; .FSTART _floor
001a7b 940e 2120 	CALL __PUTPARD2
001a7d 940e 2111 	CALL __GETD2S0
001a7f 940e 1a4a 	CALL _ftrunc
001a81 940e 2116 	CALL __PUTD1S0
001a83 f419          brne __floor1
                 __floor0:
001a84 940e 210c 	CALL __GETD1S0
001a86 c086      	RJMP _0x2160001
                 __floor1:
001a87 f7e6          brtc __floor0
001a88 940e 210c 	CALL __GETD1S0
                +
001a8a e0a0     +LDI R26 , LOW ( 0x3F800000 )
001a8b e0b0     +LDI R27 , HIGH ( 0x3F800000 )
001a8c e880     +LDI R24 , BYTE3 ( 0x3F800000 )
001a8d e39f     +LDI R25 , BYTE4 ( 0x3F800000 )
                 	__GETD2N 0x3F800000
001a8e 940e 1f14 	CALL __SUBF12
001a90 c07c      	RJMP _0x2160001
                 ; .FEND
                 
                 	.CSEG
                 _bcd2bin:
                 ; .FSTART _bcd2bin
001a91 93aa      	ST   -Y,R26
001a92 81e8          ld   r30,y
001a93 95e2          swap r30
001a94 70ef          andi r30,0xf
001a95 2fae          mov  r26,r30
001a96 0faa          lsl  r26
001a97 0faa          lsl  r26
001a98 0fea          add  r30,r26
001a99 0fee          lsl  r30
001a9a 91a9          ld   r26,y+
001a9b 70af          andi r26,0xf
001a9c 0fea          add  r30,r26
001a9d 9508          ret
                 ; .FEND
                 
                 	.CSEG
                 _glcd_getmask:
                 ; .FSTART _glcd_getmask
001a9e 93aa      	ST   -Y,R26
001a9f 81e8      	LD   R30,Y
001aa0 e0f0      	LDI  R31,0
001aa1 51ee      	SUBI R30,LOW(-__glcd_mask*2)
001aa2 4efc      	SBCI R31,HIGH(-__glcd_mask*2)
001aa3 91a4      	LPM  R26,Z
001aa4 81e9      	LDD  R30,Y+1
001aa5 940e 202e 	CALL __LSLB12
                 _0x2160003:
001aa7 9622      	ADIW R28,2
001aa8 9508      	RET
                 ; .FEND
                 _glcd_mappixcolor1bit:
                 ; .FSTART _glcd_mappixcolor1bit
001aa9 93aa      	ST   -Y,R26
001aaa 931a      	ST   -Y,R17
001aab 81e9      	LDD  R30,Y+1
001aac 30e7      	CPI  R30,LOW(0x7)
001aad f011      	BREQ _0x2120007
001aae 30ea      	CPI  R30,LOW(0xA)
001aaf f419      	BRNE _0x2120008
                 _0x2120007:
001ab0 9110 02ae 	LDS  R17,_glcd_state
001ab2 c009      	RJMP _0x2120009
                 _0x2120008:
001ab3 30e9      	CPI  R30,LOW(0x9)
001ab4 f419      	BRNE _0x212000B
                +
001ab5 9110 02af+LDS R17 , _glcd_state + ( 1 )
                 	__GETBRMN 17,_glcd_state,1
001ab7 c004      	RJMP _0x2120009
                 _0x212000B:
001ab8 30e8      	CPI  R30,LOW(0x8)
001ab9 f4a1      	BRNE _0x2120005
                +
001aba 9110 02be+LDS R17 , _glcd_state + ( 16 )
                 	__GETBRMN 17,_glcd_state,16
                 _0x2120009:
                +
001abc 91e0 02af+LDS R30 , _glcd_state + ( 1 )
                 	__GETB1MN _glcd_state,1
001abe 30e0      	CPI  R30,0
001abf f049      	BREQ _0x212000E
001ac0 3010      	CPI  R17,0
001ac1 f019      	BREQ _0x212000F
001ac2 efef      	LDI  R30,LOW(255)
001ac3 8118      	LDD  R17,Y+0
001ac4 c029      	RJMP _0x2160002
                 _0x212000F:
001ac5 81ea      	LDD  R30,Y+2
001ac6 95e0      	COM  R30
001ac7 8118      	LDD  R17,Y+0
001ac8 c025      	RJMP _0x2160002
                 _0x212000E:
001ac9 3010      	CPI  R17,0
001aca f419      	BRNE _0x2120011
001acb e0e0      	LDI  R30,LOW(0)
001acc 8118      	LDD  R17,Y+0
001acd c020      	RJMP _0x2160002
                 _0x2120011:
                 _0x2120005:
001ace 81ea      	LDD  R30,Y+2
001acf 8118      	LDD  R17,Y+0
001ad0 c01d      	RJMP _0x2160002
                 ; .FEND
                 _glcd_readmem:
                 ; .FSTART _glcd_readmem
001ad1 93ba      	ST   -Y,R27
001ad2 93aa      	ST   -Y,R26
001ad3 81ea      	LDD  R30,Y+2
001ad4 30e1      	CPI  R30,LOW(0x1)
001ad5 f421      	BRNE _0x2120015
001ad6 81e8      	LD   R30,Y
001ad7 81f9      	LDD  R31,Y+1
001ad8 91e4      	LPM  R30,Z
001ad9 c014      	RJMP _0x2160002
                 _0x2120015:
001ada 30e2      	CPI  R30,LOW(0x2)
001adb f429      	BRNE _0x2120016
001adc 81a8      	LD   R26,Y
001add 81b9      	LDD  R27,Y+1
001ade 940e 2132 	CALL __EEPROMRDB
001ae0 c00d      	RJMP _0x2160002
                 _0x2120016:
001ae1 30e3      	CPI  R30,LOW(0x3)
001ae2 f441      	BRNE _0x2120018
001ae3 81a8      	LD   R26,Y
001ae4 81b9      	LDD  R27,Y+1
                +
001ae5 91e0 02c7+LDS R30 , _glcd_state + ( 25 )
001ae7 91f0 02c8+LDS R31 , _glcd_state + ( 25 ) + 1
001ae9 9509     +ICALL
                 	__CALL1MN _glcd_state,25
001aea c003      	RJMP _0x2160002
                 _0x2120018:
001aeb 81a8      	LD   R26,Y
001aec 81b9      	LDD  R27,Y+1
001aed 91ec      	LD   R30,X
                 _0x2160002:
001aee 9623      	ADIW R28,3
001aef 9508      	RET
                 ; .FEND
                 _glcd_writemem:
                 ; .FSTART _glcd_writemem
001af0 93aa      	ST   -Y,R26
001af1 81eb      	LDD  R30,Y+3
001af2 30e0      	CPI  R30,0
001af3 f429      	BRNE _0x212001C
001af4 81e8      	LD   R30,Y
001af5 81a9      	LDD  R26,Y+1
001af6 81ba      	LDD  R27,Y+1+1
001af7 93ec      	ST   X,R30
001af8 c014      	RJMP _0x212001B
                 _0x212001C:
001af9 30e2      	CPI  R30,LOW(0x2)
001afa f431      	BRNE _0x212001D
001afb 81e8      	LD   R30,Y
001afc 81a9      	LDD  R26,Y+1
001afd 81ba      	LDD  R27,Y+1+1
001afe 940e 213e 	CALL __EEPROMWRB
001b00 c00c      	RJMP _0x212001B
                 _0x212001D:
001b01 30e3      	CPI  R30,LOW(0x3)
001b02 f451      	BRNE _0x212001B
001b03 81e9      	LDD  R30,Y+1
001b04 81fa      	LDD  R31,Y+1+1
001b05 93fa      	ST   -Y,R31
001b06 93ea      	ST   -Y,R30
001b07 81aa      	LDD  R26,Y+2
                +
001b08 91e0 02c9+LDS R30 , _glcd_state + ( 27 )
001b0a 91f0 02ca+LDS R31 , _glcd_state + ( 27 ) + 1
001b0c 9509     +ICALL
                 	__CALL1MN _glcd_state,27
                 _0x212001B:
                 _0x2160001:
001b0d 9624      	ADIW R28,4
001b0e 9508      	RET
                 ; .FEND
                 _glcd_revbits:
                 ; .FSTART _glcd_revbits
001b0f 93aa      	ST   -Y,R26
001b10 91a9          ld  r26,y+
001b11 fba0          bst r26,0
001b12 f9e7          bld r30,7
                 
001b13 fba1          bst r26,1
001b14 f9e6          bld r30,6
                 
001b15 fba2          bst r26,2
001b16 f9e5          bld r30,5
                 
001b17 fba3          bst r26,3
001b18 f9e4          bld r30,4
                 
001b19 fba4          bst r26,4
001b1a f9e3          bld r30,3
                 
001b1b fba5          bst r26,5
001b1c f9e2          bld r30,2
                 
001b1d fba6          bst r26,6
001b1e f9e1          bld r30,1
                 
001b1f fba7          bst r26,7
001b20 f9e0          bld r30,0
001b21 9508          ret
                 ; .FEND
                 
                 	.CSEG
                 
                 	.DSEG
                 _glcd_state:
0002ae           	.BYTE 0x1D
                 _rot:
0002cb           	.BYTE 0x1
                 _Reverse:
0002cc           	.BYTE 0x1
                 _Horizontal:
0002cd           	.BYTE 0x1
                 _FgColor:
0002ce           	.BYTE 0x2
                 _BkColor:
0002d0           	.BYTE 0x2
                 _FontFixed:
0002d2           	.BYTE 0x1
                 _NonTransparence:
0002d3           	.BYTE 0x1
                 _FontWidth:
0002d4           	.BYTE 0x1
                 _FontHeight:
0002d5           	.BYTE 0x1
                 _FontXScale:
0002d6           	.BYTE 0x1
                 _FontYScale:
0002d7           	.BYTE 0x1
                 _FontSpaceX:
0002d8           	.BYTE 0x1
                 _FontSpaceY:
0002d9           	.BYTE 0x1
                 _cursorX:
0002da           	.BYTE 0x2
                 _cursorY:
0002dc           	.BYTE 0x2
                 _peLETTER:
0002de           	.BYTE 0x1
                 _sh_year:
0002df           	.BYTE 0x2
                 __weekday:
0002e1           	.BYTE 0x1C
                 _strsec:
0002fd           	.BYTE 0xC
                 _str:
000309           	.BYTE 0x14
                 _i:
00031d           	.BYTE 0x1
                 _FontPointer:
00031e           	.BYTE 0x2
                 _fontSize:
000320           	.BYTE 0x2
                 _firstchar:
000322           	.BYTE 0x1
                 _lastchar:
000323           	.BYTE 0x1
                 _charwidth:
000324           	.BYTE 0x1
                 _prevLet:
000325           	.BYTE 0x1
                 _nextLet:
000326           	.BYTE 0x1
                 _st7920_graphics_on_G101:
000327           	.BYTE 0x1
                 _st7920_bits8_15_G101:
000328           	.BYTE 0x1
                 _xt_G101:
000329           	.BYTE 0x1
                 _yt_G101:
00032a           	.BYTE 0x1
                 __seed_G104:
00032b           	.BYTE 0x4
                 
                 	.CSEG
                 ;OPTIMIZER ADDED SUBROUTINE, CALLED 2 TIMES, CODE SIZE REDUCTION:2 WORDS
                 SUBOPT_0x0:
001b22 940e 0f55 	CALL _SetLetter
001b24 e0e0      	LDI  R30,LOW(0)
001b25 93ea      	ST   -Y,R30
001b26 e0a0      	LDI  R26,LOW(0)
001b27 940c 0f65 	JMP  _SetLine
                 
                 ;OPTIMIZER ADDED SUBROUTINE, CALLED 12 TIMES, CODE SIZE REDUCTION:19 WORDS
                 SUBOPT_0x1:
001b29 940e 0f8d 	CALL _PutChar
001b2b e0e0      	LDI  R30,LOW(0)
001b2c 93ea      	ST   -Y,R30
001b2d 9508      	RET
                 
                 ;OPTIMIZER ADDED SUBROUTINE, CALLED 6 TIMES, CODE SIZE REDUCTION:7 WORDS
                 SUBOPT_0x2:
001b2e 93ea      	ST   -Y,R30
001b2f e0a0      	LDI  R26,LOW(0)
001b30 940c 0f65 	JMP  _SetLine
                 
                 ;OPTIMIZER ADDED SUBROUTINE, CALLED 2 TIMES, CODE SIZE REDUCTION:3 WORDS
                 SUBOPT_0x3:
001b32 940e 0f99 	CALL _Puts
001b34 eda0      	LDI  R26,LOW(2000)
001b35 e0b7      	LDI  R27,HIGH(2000)
001b36 940e 1e6b 	CALL _delay_ms
001b38 940c 10a2 	JMP  _glcd_clear
                 
                 ;OPTIMIZER ADDED SUBROUTINE, CALLED 4 TIMES, CODE SIZE REDUCTION:24 WORDS
                 SUBOPT_0x4:
001b3a e0e1      	LDI  R30,LOW(1)
001b3b e0f0      	LDI  R31,HIGH(1)
001b3c 93e0 02ce 	STS  _FgColor,R30
001b3e 93f0 02cf 	STS  _FgColor+1,R31
001b40 e0e0      	LDI  R30,LOW(0)
001b41 93e0 02d0 	STS  _BkColor,R30
001b43 93e0 02d1 	STS  _BkColor+1,R30
001b45 9508      	RET
                 
                 ;OPTIMIZER ADDED SUBROUTINE, CALLED 3 TIMES, CODE SIZE REDUCTION:1 WORDS
                 SUBOPT_0x5:
001b46 93ea      	ST   -Y,R30
001b47 e0a0      	LDI  R26,LOW(0)
001b48 940c 1389 	JMP  _lcd_gotoxy
                 
                 ;OPTIMIZER ADDED SUBROUTINE, CALLED 3 TIMES, CODE SIZE REDUCTION:1 WORDS
                 SUBOPT_0x6:
                +
001b4a 93e0 02b2+STS _glcd_state + ( 4 ) , R30
001b4c 93f0 02b3+STS _glcd_state + ( 4 ) + 1 , R31
                 	__PUTW1MN _glcd_state,4
001b4e 9508      	RET
                 
                 ;OPTIMIZER ADDED SUBROUTINE, CALLED 6 TIMES, CODE SIZE REDUCTION:12 WORDS
                 SUBOPT_0x7:
001b4f 27ff      	CLR  R31
001b50 2766      	CLR  R22
001b51 2777      	CLR  R23
001b52 940e 211b 	CALL __PUTPARD1
001b54 9508      	RET
                 
                 ;OPTIMIZER ADDED SUBROUTINE, CALLED 2 TIMES, CODE SIZE REDUCTION:1 WORDS
                 SUBOPT_0x8:
001b55 e0e1      	LDI  R30,LOW(1)
001b56 93e0 02ae 	STS  _glcd_state,R30
001b58 e0e0      	LDI  R30,LOW(0)
                +
001b59 93e0 02af+STS _glcd_state + ( 1 ) , R30
                 	__PUTB1MN _glcd_state,1
001b5b 9508      	RET
                 
                 ;OPTIMIZER ADDED SUBROUTINE, CALLED 3 TIMES, CODE SIZE REDUCTION:1 WORDS
                 SUBOPT_0x9:
001b5c efed      	LDI  R30,LOW(_strsec)
001b5d e0f2      	LDI  R31,HIGH(_strsec)
001b5e 93fa      	ST   -Y,R31
001b5f 93ea      	ST   -Y,R30
001b60 9508      	RET
                 
                 ;OPTIMIZER ADDED SUBROUTINE, CALLED 3 TIMES, CODE SIZE REDUCTION:1 WORDS
                 SUBOPT_0xA:
001b61 efad      	LDI  R26,LOW(_strsec)
001b62 e0b2      	LDI  R27,HIGH(_strsec)
001b63 940c 1400 	JMP  _lcd_puts
                 
                 ;OPTIMIZER ADDED SUBROUTINE, CALLED 2 TIMES, CODE SIZE REDUCTION:25 WORDS
                 SUBOPT_0xB:
001b65 940e 2157 	CALL __SAVELOCR6
001b67 e010      	LDI  R17,0
001b68 e000      	LDI  R16,0
001b69 e030      	LDI  R19,0
                +
001b6a e040     +LDI R20 , LOW ( 0 )
001b6b e050     +LDI R21 , HIGH ( 0 )
                 	__GETWRN 20,21,0
001b6c e020      	LDI  R18,0
001b6d 89ea      	LDD  R30,Y+18
001b6e e0f0      	LDI  R31,0
001b6f 9637      	ADIW R30,7
001b70 01df      	MOVW R26,R30
001b71 91e0 0322 	LDS  R30,_firstchar
001b73 e0f0      	LDI  R31,0
001b74 940e 212b 	CALL __SWAPW12
001b76 1bea      	SUB  R30,R26
001b77 0bfb      	SBC  R31,R27
001b78 91a0 031e 	LDS  R26,_FontPointer
001b7a 91b0 031f 	LDS  R27,_FontPointer+1
001b7c 0fea      	ADD  R30,R26
001b7d 1ffb      	ADC  R31,R27
001b7e 9004      	LPM  R0,Z
001b7f 9200 0324 	STS  _charwidth,R0
001b81 89aa      	LDD  R26,Y+18
001b82 30aa      	CPI  R26,LOW(0xA)
001b83 9508      	RET
                 
                 ;OPTIMIZER ADDED SUBROUTINE, CALLED 3 TIMES, CODE SIZE REDUCTION:3 WORDS
                 SUBOPT_0xC:
001b84 e0e0      	LDI  R30,LOW(0)
001b85 93e0 02da 	STS  _cursorX,R30
001b87 93e0 02db 	STS  _cursorX+1,R30
001b89 9508      	RET
                 
                 ;OPTIMIZER ADDED SUBROUTINE, CALLED 2 TIMES, CODE SIZE REDUCTION:18 WORDS
                 SUBOPT_0xD:
001b8a 91a0 02d5 	LDS  R26,_FontHeight
001b8c 27bb      	CLR  R27
001b8d 91e0 02d9 	LDS  R30,_FontSpaceY
001b8f e0f0      	LDI  R31,0
001b90 0fae      	ADD  R26,R30
001b91 1fbf      	ADC  R27,R31
001b92 91e0 02d7 	LDS  R30,_FontYScale
001b94 e0f0      	LDI  R31,0
001b95 940e 2065 	CALL __MULW12U
001b97 91a0 02dc 	LDS  R26,_cursorY
001b99 91b0 02dd 	LDS  R27,_cursorY+1
001b9b 0fea      	ADD  R30,R26
001b9c 1ffb      	ADC  R31,R27
001b9d 93e0 02dc 	STS  _cursorY,R30
001b9f 93f0 02dd 	STS  _cursorY+1,R31
001ba1 9508      	RET
                 
                 ;OPTIMIZER ADDED SUBROUTINE, CALLED 6 TIMES, CODE SIZE REDUCTION:17 WORDS
                 SUBOPT_0xE:
001ba2 91a0 0324 	LDS  R26,_charwidth
001ba4 27bb      	CLR  R27
001ba5 91e0 02d6 	LDS  R30,_FontXScale
001ba7 e0f0      	LDI  R31,0
001ba8 9508      	RET
                 
                 ;OPTIMIZER ADDED SUBROUTINE, CALLED 3 TIMES, CODE SIZE REDUCTION:5 WORDS
                 SUBOPT_0xF:
001ba9 940e 2065 	CALL __MULW12U
001bab 91a0 02da 	LDS  R26,_cursorX
001bad 91b0 02db 	LDS  R27,_cursorX+1
001baf 9508      	RET
                 
                 ;OPTIMIZER ADDED SUBROUTINE, CALLED 4 TIMES, CODE SIZE REDUCTION:9 WORDS
                 SUBOPT_0x10:
001bb0 1bae      	SUB  R26,R30
001bb1 0bbf      	SBC  R27,R31
001bb2 93a0 02da 	STS  _cursorX,R26
001bb4 93b0 02db 	STS  _cursorX+1,R27
001bb6 9508      	RET
                 
                 ;OPTIMIZER ADDED SUBROUTINE, CALLED 5 TIMES, CODE SIZE REDUCTION:5 WORDS
                 SUBOPT_0x11:
001bb7 940e 212b 	CALL __SWAPW12
001bb9 1bea      	SUB  R30,R26
001bba 0bfb      	SBC  R31,R27
001bbb 9508      	RET
                 
                 ;OPTIMIZER ADDED SUBROUTINE, CALLED 5 TIMES, CODE SIZE REDUCTION:13 WORDS
                 SUBOPT_0x12:
001bbc 91a0 031e 	LDS  R26,_FontPointer
001bbe 91b0 031f 	LDS  R27,_FontPointer+1
001bc0 0fea      	ADD  R30,R26
001bc1 1ffb      	ADC  R31,R27
001bc2 9508      	RET
                 
                 ;OPTIMIZER ADDED SUBROUTINE, CALLED 2 TIMES, CODE SIZE REDUCTION:1 WORDS
                 SUBOPT_0x13:
001bc3 940e 208d 	CALL __MULW12
001bc5 91a0 02da 	LDS  R26,_cursorX
001bc7 91b0 02db 	LDS  R27,_cursorX+1
001bc9 9508      	RET
                 
                 ;OPTIMIZER ADDED SUBROUTINE, CALLED 2 TIMES, CODE SIZE REDUCTION:13 WORDS
                 SUBOPT_0x14:
001bca 91a0 02d5 	LDS  R26,_FontHeight
001bcc 27bb      	CLR  R27
001bcd 91e0 02d7 	LDS  R30,_FontYScale
001bcf e0f0      	LDI  R31,0
001bd0 940e 2065 	CALL __MULW12U
001bd2 91a0 02dc 	LDS  R26,_cursorY
001bd4 91b0 02dd 	LDS  R27,_cursorY+1
001bd6 0fea      	ADD  R30,R26
001bd7 1ffb      	ADC  R31,R27
001bd8 93e0 02dc 	STS  _cursorY,R30
001bda 93f0 02dd 	STS  _cursorY+1,R31
001bdc 9508      	RET
                 
                 ;OPTIMIZER ADDED SUBROUTINE, CALLED 2 TIMES, CODE SIZE REDUCTION:2 WORDS
                 SUBOPT_0x15:
001bdd 89aa      	LDD  R26,Y+18
001bde 27bb      	CLR  R27
001bdf 91e0 0322 	LDS  R30,_firstchar
001be1 e0f0      	LDI  R31,0
001be2 cfd4      	RJMP SUBOPT_0x11
                 
                 ;OPTIMIZER ADDED SUBROUTINE, CALLED 2 TIMES, CODE SIZE REDUCTION:3 WORDS
                 SUBOPT_0x16:
001be3 91e4      	LPM  R30,Z
001be4 e0f0      	LDI  R31,0
001be5 89a8      	LDD  R26,Y+16
001be6 89b9      	LDD  R27,Y+16+1
001be7 0fea      	ADD  R30,R26
001be8 1ffb      	ADC  R31,R27
001be9 8be8      	STD  Y+16,R30
001bea 8bf9      	STD  Y+16+1,R31
001beb 9508      	RET
                 
                 ;OPTIMIZER ADDED SUBROUTINE, CALLED 2 TIMES, CODE SIZE REDUCTION:12 WORDS
                 SUBOPT_0x17:
001bec 91e0 02d5 	LDS  R30,_FontHeight
001bee e0f0      	LDI  R31,0
001bef 89a8      	LDD  R26,Y+16
001bf0 89b9      	LDD  R27,Y+16+1
001bf1 940e 2065 	CALL __MULW12U
001bf3 8be8      	STD  Y+16,R30
001bf4 8bf9      	STD  Y+16+1,R31
001bf5 91a0 0323 	LDS  R26,_lastchar
001bf7 27bb      	CLR  R27
001bf8 91e0 0322 	LDS  R30,_firstchar
001bfa e0f0      	LDI  R31,0
001bfb cfbb      	RJMP SUBOPT_0x11
                 
                 ;OPTIMIZER ADDED SUBROUTINE, CALLED 2 TIMES, CODE SIZE REDUCTION:22 WORDS
                 SUBOPT_0x18:
001bfc 9637      	ADIW R30,7
001bfd 940e 2047 	CALL __LSLW3
001bff 89a8      	LDD  R26,Y+16
001c00 89b9      	LDD  R27,Y+16+1
001c01 0fea      	ADD  R30,R26
001c02 1ffb      	ADC  R31,R27
001c03 8be8      	STD  Y+16,R30
001c04 8bf9      	STD  Y+16+1,R31
001c05 940e 204e 	CALL __LSRW3
001c07 87ee      	STD  Y+14,R30
001c08 87ff      	STD  Y+14+1,R31
001c09 89e8      	LDD  R30,Y+16
001c0a 70e7      	ANDI R30,LOW(0x7)
001c0b 2f0e      	MOV  R16,R30
001c0c e0f0      	LDI  R31,0
001c0d e0a7      	LDI  R26,LOW(7)
001c0e e0b0      	LDI  R27,HIGH(7)
001c0f 940e 20d6 	CALL __MANDW12
001c11 2f3e      	MOV  R19,R30
001c12 e0e0      	LDI  R30,LOW(0)
001c13 87e9      	STD  Y+9,R30
001c14 9508      	RET
                 
                 ;OPTIMIZER ADDED SUBROUTINE, CALLED 2 TIMES, CODE SIZE REDUCTION:3 WORDS
                 SUBOPT_0x19:
001c15 01fa      	MOVW R30,R20
001c16 85ae      	LDD  R26,Y+14
001c17 85bf      	LDD  R27,Y+14+1
001c18 0fea      	ADD  R30,R26
001c19 1ffb      	ADC  R31,R27
001c1a 9631      	ADIW R30,1
001c1b cfa0      	RJMP SUBOPT_0x12
                 
                 ;OPTIMIZER ADDED SUBROUTINE, CALLED 2 TIMES, CODE SIZE REDUCTION:3 WORDS
                 SUBOPT_0x1A:
001c1c 9114      	LPM  R17,Z
001c1d 85a9      	LDD  R26,Y+9
001c1e 27bb      	CLR  R27
001c1f 91e0 02d6 	LDS  R30,_FontXScale
001c21 e0f0      	LDI  R31,0
001c22 cf86      	RJMP SUBOPT_0xF
                 
                 ;OPTIMIZER ADDED SUBROUTINE, CALLED 2 TIMES, CODE SIZE REDUCTION:2 WORDS
                 SUBOPT_0x1B:
001c23 0fea      	ADD  R30,R26
001c24 1ffb      	ADC  R31,R27
001c25 87ec      	STD  Y+12,R30
001c26 87fd      	STD  Y+12+1,R31
001c27 91e0 02cd 	LDS  R30,_Horizontal
001c29 30e0      	CPI  R30,0
001c2a 9508      	RET
                 
                 ;OPTIMIZER ADDED SUBROUTINE, CALLED 4 TIMES, CODE SIZE REDUCTION:12 WORDS
                 SUBOPT_0x1C:
001c2b 91a0 02d5 	LDS  R26,_FontHeight
001c2d 27bb      	CLR  R27
001c2e 85e8      	LDD  R30,Y+8
001c2f e0f0      	LDI  R31,0
001c30 1bae      	SUB  R26,R30
001c31 0bbf      	SBC  R27,R31
001c32 9508      	RET
                 
                 ;OPTIMIZER ADDED SUBROUTINE, CALLED 4 TIMES, CODE SIZE REDUCTION:24 WORDS
                 SUBOPT_0x1D:
001c33 e0f0      	LDI  R31,0
001c34 940e 2065 	CALL __MULW12U
001c36 91a0 02dc 	LDS  R26,_cursorY
001c38 91b0 02dd 	LDS  R27,_cursorY+1
001c3a 0fea      	ADD  R30,R26
001c3b 1ffb      	ADC  R31,R27
001c3c 87ea      	STD  Y+10,R30
001c3d 87fb      	STD  Y+10+1,R31
001c3e 9508      	RET
                 
                 ;OPTIMIZER ADDED SUBROUTINE, CALLED 2 TIMES, CODE SIZE REDUCTION:5 WORDS
                 SUBOPT_0x1E:
001c3f 2fe3      	MOV  R30,R19
001c40 e0a1      	LDI  R26,LOW(1)
001c41 e0b0      	LDI  R27,HIGH(1)
001c42 940e 203e 	CALL __LSLW12
001c44 2fa1      	MOV  R26,R17
001c45 e0b0      	LDI  R27,0
001c46 23ea      	AND  R30,R26
001c47 23fb      	AND  R31,R27
001c48 9730      	SBIW R30,0
001c49 9508      	RET
                 
                 ;OPTIMIZER ADDED SUBROUTINE, CALLED 4 TIMES, CODE SIZE REDUCTION:9 WORDS
                 SUBOPT_0x1F:
001c4a 81ee      	LDD  R30,Y+6
001c4b 85aa      	LDD  R26,Y+10
001c4c 0fea      	ADD  R30,R26
001c4d 93ea      	ST   -Y,R30
001c4e 85e8      	LDD  R30,Y+8
001c4f 85ad      	LDD  R26,Y+13
001c50 9508      	RET
                 
                 ;OPTIMIZER ADDED SUBROUTINE, CALLED 4 TIMES, CODE SIZE REDUCTION:9 WORDS
                 SUBOPT_0x20:
001c51 81ef      	LDD  R30,Y+7
001c52 85ac      	LDD  R26,Y+12
001c53 0fea      	ADD  R30,R26
001c54 93ea      	ST   -Y,R30
001c55 81ef      	LDD  R30,Y+7
001c56 85ab      	LDD  R26,Y+11
001c57 9508      	RET
                 
                 ;OPTIMIZER ADDED SUBROUTINE, CALLED 2 TIMES, CODE SIZE REDUCTION:7 WORDS
                 SUBOPT_0x21:
001c58 940e 2065 	CALL __MULW12U
001c5a 01df      	MOVW R26,R30
001c5b 91e0 02d8 	LDS  R30,_FontSpaceX
001c5d e0f0      	LDI  R31,0
001c5e 0fea      	ADD  R30,R26
001c5f 1ffb      	ADC  R31,R27
001c60 91a0 02da 	LDS  R26,_cursorX
001c62 91b0 02db 	LDS  R27,_cursorX+1
001c64 9508      	RET
                 
                 ;OPTIMIZER ADDED SUBROUTINE, CALLED 4 TIMES, CODE SIZE REDUCTION:3 WORDS
                 SUBOPT_0x22:
001c65 93e0 02da 	STS  _cursorX,R30
001c67 93f0 02db 	STS  _cursorX+1,R31
001c69 9508      	RET
                 
                 ;OPTIMIZER ADDED SUBROUTINE, CALLED 2 TIMES, CODE SIZE REDUCTION:1 WORDS
                 SUBOPT_0x23:
001c6a 940e 2065 	CALL __MULW12U
001c6c e7af      	LDI  R26,LOW(127)
001c6d e0b0      	LDI  R27,HIGH(127)
001c6e cf41      	RJMP SUBOPT_0x10
                 
                 ;OPTIMIZER ADDED SUBROUTINE, CALLED 2 TIMES, CODE SIZE REDUCTION:1 WORDS
                 SUBOPT_0x24:
001c6f e0e0      	LDI  R30,LOW(0)
001c70 83e8      	ST   Y,R30
001c71 83e9      	STD  Y+1,R30
001c72 83ea      	STD  Y+2,R30
001c73 9508      	RET
                 
                 ;OPTIMIZER ADDED SUBROUTINE, CALLED 4 TIMES, CODE SIZE REDUCTION:3 WORDS
                 SUBOPT_0x25:
001c74 adab      	LDD  R26,Y+59
001c75 adbc      	LDD  R27,Y+59+1
001c76 0fae      	ADD  R26,R30
001c77 1fbf      	ADC  R27,R31
001c78 9508      	RET
                 
                 ;OPTIMIZER ADDED SUBROUTINE, CALLED 3 TIMES, CODE SIZE REDUCTION:9 WORDS
                 SUBOPT_0x26:
001c79 81ee      	LDD  R30,Y+6
001c7a 81ff      	LDD  R31,Y+6+1
001c7b 9631      	ADIW R30,1
001c7c 83ee      	STD  Y+6,R30
001c7d 83ff      	STD  Y+6+1,R31
001c7e 9731      	SBIW R30,1
001c7f cff4      	RJMP SUBOPT_0x25
                 
                 ;OPTIMIZER ADDED SUBROUTINE, CALLED 3 TIMES, CODE SIZE REDUCTION:11 WORDS
                 SUBOPT_0x27:
001c80 e0f0      	LDI  R31,0
001c81 5ce1      	SUBI R30,LOW(193)
001c82 40f0      	SBCI R31,HIGH(193)
001c83 e0a6      	LDI  R26,LOW(6)
001c84 e0b0      	LDI  R27,HIGH(6)
001c85 940e 2065 	CALL __MULW12U
001c87 59e8      	SUBI R30,LOW(-_PEmap*2)
001c88 4efd      	SBCI R31,HIGH(-_PEmap*2)
001c89 9508      	RET
                 
                 ;OPTIMIZER ADDED SUBROUTINE, CALLED 5 TIMES, CODE SIZE REDUCTION:5 WORDS
                 SUBOPT_0x28:
001c8a 91e0 031e 	LDS  R30,_FontPointer
001c8c 91f0 031f 	LDS  R31,_FontPointer+1
001c8e 9508      	RET
                 
                 ;OPTIMIZER ADDED SUBROUTINE, CALLED 2 TIMES, CODE SIZE REDUCTION:6 WORDS
                 SUBOPT_0x29:
001c8f 91a0 02d4 	LDS  R26,_FontWidth
001c91 27bb      	CLR  R27
001c92 91e0 02d6 	LDS  R30,_FontXScale
001c94 e0f0      	LDI  R31,0
001c95 940e 2065 	CALL __MULW12U
001c97 01df      	MOVW R26,R30
001c98 81e8      	LD   R30,Y
001c99 e0f0      	LDI  R31,0
001c9a 9508      	RET
                 
                 ;OPTIMIZER ADDED SUBROUTINE, CALLED 2 TIMES, CODE SIZE REDUCTION:2 WORDS
                 SUBOPT_0x2A:
001c9b 93ba      	ST   -Y,R27
001c9c 93aa      	ST   -Y,R26
001c9d 940e 1e1f 	CALL _i2c_start
001c9f eda0      	LDI  R26,LOW(208)
001ca0 940c 1e53 	JMP  _i2c_write
                 
                 ;OPTIMIZER ADDED SUBROUTINE, CALLED 2 TIMES, CODE SIZE REDUCTION:7 WORDS
                 SUBOPT_0x2B:
001ca2 940e 1e53 	CALL _i2c_write
001ca4 940e 1e2e 	CALL _i2c_stop
001ca6 940e 1e1f 	CALL _i2c_start
001ca8 eda1      	LDI  R26,LOW(209)
001ca9 940e 1e53 	CALL _i2c_write
001cab e0a1      	LDI  R26,LOW(1)
001cac 940c 1e38 	JMP  _i2c_read
                 
                 ;OPTIMIZER ADDED SUBROUTINE, CALLED 2 TIMES, CODE SIZE REDUCTION:1 WORDS
                 SUBOPT_0x2C:
001cae 2fae      	MOV  R26,R30
001caf 940e 1a91 	CALL _bcd2bin
001cb1 81a8      	LD   R26,Y
001cb2 81b9      	LDD  R27,Y+1
001cb3 93ec      	ST   X,R30
001cb4 9508      	RET
                 
                 ;OPTIMIZER ADDED SUBROUTINE, CALLED 3 TIMES, CODE SIZE REDUCTION:5 WORDS
                 SUBOPT_0x2D:
001cb5 e0a1      	LDI  R26,LOW(1)
001cb6 940e 1e38 	CALL _i2c_read
001cb8 2fae      	MOV  R26,R30
001cb9 940c 1a91 	JMP  _bcd2bin
                 
                 ;OPTIMIZER ADDED SUBROUTINE, CALLED 2 TIMES, CODE SIZE REDUCTION:1 WORDS
                 SUBOPT_0x2E:
001cbb 81aa      	LDD  R26,Y+2
001cbc 81bb      	LDD  R27,Y+2+1
001cbd 93ec      	ST   X,R30
001cbe e0a0      	LDI  R26,LOW(0)
001cbf 940c 1e38 	JMP  _i2c_read
                 
                 ;OPTIMIZER ADDED SUBROUTINE, CALLED 3 TIMES, CODE SIZE REDUCTION:3 WORDS
                 SUBOPT_0x2F:
001cc1 940e 0fe8 	CALL _st7920_delay_G101
001cc3 9ad8      	SBI  0x1B,0
001cc4 940c 0fe8 	JMP  _st7920_delay_G101
                 
                 ;OPTIMIZER ADDED SUBROUTINE, CALLED 5 TIMES, CODE SIZE REDUCTION:13 WORDS
                 SUBOPT_0x30:
001cc6 91e0 0327 	LDS  R30,_st7920_graphics_on_G101
001cc8 62e0      	ORI  R30,0x20
001cc9 2fae      	MOV  R26,R30
001cca 940c 103f 	JMP  _st7920_wrcmd
                 
                 ;OPTIMIZER ADDED SUBROUTINE, CALLED 5 TIMES, CODE SIZE REDUCTION:13 WORDS
                 SUBOPT_0x31:
001ccc 91e0 0327 	LDS  R30,_st7920_graphics_on_G101
001cce 62e4      	ORI  R30,LOW(0x24)
001ccf 2fae      	MOV  R26,R30
001cd0 940c 103f 	JMP  _st7920_wrcmd
                 
                 ;OPTIMIZER ADDED SUBROUTINE, CALLED 4 TIMES, CODE SIZE REDUCTION:6 WORDS
                 SUBOPT_0x32:
001cd2 940e 113b 	CALL _st7920_rdbyte_G101
001cd4 2fae      	MOV  R26,R30
001cd5 940c 1b0f 	JMP  _glcd_revbits
                 
                 ;OPTIMIZER ADDED SUBROUTINE, CALLED 3 TIMES, CODE SIZE REDUCTION:1 WORDS
                 SUBOPT_0x33:
001cd7 0fea      	ADD  R30,R26
001cd8 1ffb      	ADC  R31,R27
001cd9 83ee      	STD  Y+6,R30
001cda 83ff      	STD  Y+6+1,R31
001cdb 9508      	RET
                 
                 ;OPTIMIZER ADDED SUBROUTINE, CALLED 2 TIMES, CODE SIZE REDUCTION:8 WORDS
                 SUBOPT_0x34:
001cdc 89e8      	LDD  R30,Y+16
001cdd 93ea      	ST   -Y,R30
001cde 81ef      	LDD  R30,Y+7
001cdf 85f8      	LDD  R31,Y+7+1
001ce0 9631      	ADIW R30,1
001ce1 83ef      	STD  Y+7,R30
001ce2 87f8      	STD  Y+7+1,R31
001ce3 9731      	SBIW R30,1
001ce4 93fa      	ST   -Y,R31
001ce5 93ea      	ST   -Y,R30
001ce6 e0a0      	LDI  R26,LOW(0)
001ce7 940c 1af0 	JMP  _glcd_writemem
                 
                 ;OPTIMIZER ADDED SUBROUTINE, CALLED 2 TIMES, CODE SIZE REDUCTION:3 WORDS
                 SUBOPT_0x35:
001ce9 89e8      	LDD  R30,Y+16
001cea 93ea      	ST   -Y,R30
001ceb 81af      	LDD  R26,Y+7
001cec 85b8      	LDD  R27,Y+7+1
001ced 2788      	CLR  R24
001cee 2799      	CLR  R25
001cef 940c 1ad1 	JMP  _glcd_readmem
                 
                 ;OPTIMIZER ADDED SUBROUTINE, CALLED 4 TIMES, CODE SIZE REDUCTION:3 WORDS
                 SUBOPT_0x36:
001cf1 89e8      	LDD  R30,Y+16
001cf2 93ea      	ST   -Y,R30
001cf3 81ef      	LDD  R30,Y+7
001cf4 85f8      	LDD  R31,Y+7+1
001cf5 9508      	RET
                 
                 ;OPTIMIZER ADDED SUBROUTINE, CALLED 2 TIMES, CODE SIZE REDUCTION:1 WORDS
                 SUBOPT_0x37:
001cf6 93ea      	ST   -Y,R30
001cf7 85ee      	LDD  R30,Y+14
001cf8 93ea      	ST   -Y,R30
001cf9 89a9      	LDD  R26,Y+17
001cfa 940c 1183 	JMP  _st7920_wrmasked_G101
                 
                 ;OPTIMIZER ADDED SUBROUTINE, CALLED 2 TIMES, CODE SIZE REDUCTION:2 WORDS
                 SUBOPT_0x38:
001cfc 81a9      	LDD  R26,Y+1
001cfd 81ba      	LDD  R27,Y+1+1
001cfe 91ed      	LD   R30,X+
001cff 83a9      	STD  Y+1,R26
001d00 83ba      	STD  Y+1+1,R27
001d01 2f1e      	MOV  R17,R30
001d02 30e0      	CPI  R30,0
001d03 9508      	RET
                 
                 ;OPTIMIZER ADDED SUBROUTINE, CALLED 2 TIMES, CODE SIZE REDUCTION:1 WORDS
                 SUBOPT_0x39:
001d04 93ba      	ST   -Y,R27
001d05 93aa      	ST   -Y,R26
001d06 81a8      	LD   R26,Y
001d07 81b9      	LDD  R27,Y+1
001d08 940e 2153 	CALL __CPW02
001d0a 9508      	RET
                 
                 ;OPTIMIZER ADDED SUBROUTINE, CALLED 2 TIMES, CODE SIZE REDUCTION:1 WORDS
                 SUBOPT_0x3A:
001d0b 940e 2157 	CALL __SAVELOCR6
                +
001d0d 91e0 02b2+LDS R30 , _glcd_state + ( 4 )
001d0f 91f0 02b3+LDS R31 , _glcd_state + ( 4 ) + 1
                 	__GETW1MN _glcd_state,4
001d11 9508      	RET
                 
                 ;OPTIMIZER ADDED SUBROUTINE, CALLED 3 TIMES, CODE SIZE REDUCTION:1 WORDS
                 SUBOPT_0x3B:
001d12 01f8      	MOVW R30,R16
                +
001d13 5f0f     +SUBI R16 , LOW ( - 1 )
001d14 4f1f     +SBCI R17 , HIGH ( - 1 )
                 	__ADDWRN 16,17,1
001d15 9004      	LPM  R0,Z
001d16 9508      	RET
                 
                 ;OPTIMIZER ADDED SUBROUTINE, CALLED 4 TIMES, CODE SIZE REDUCTION:9 WORDS
                 SUBOPT_0x3C:
                +
001d17 91e0 02b2+LDS R30 , _glcd_state + ( 4 )
001d19 91f0 02b3+LDS R31 , _glcd_state + ( 4 ) + 1
                 	__GETW1MN _glcd_state,4
001d1b 9631      	ADIW R30,1
001d1c 91e4      	LPM  R30,Z
001d1d 9508      	RET
                 
                 ;OPTIMIZER ADDED SUBROUTINE, CALLED 3 TIMES, CODE SIZE REDUCTION:1 WORDS
                 SUBOPT_0x3D:
001d1e 940e 141a 	CALL _glcd_clipy
                +
001d20 93e0 02b1+STS _glcd_state + ( 3 ) , R30
                 	__PUTB1MN _glcd_state,3
001d22 9508      	RET
                 
                 ;OPTIMIZER ADDED SUBROUTINE, CALLED 2 TIMES, CODE SIZE REDUCTION:1 WORDS
                 SUBOPT_0x3E:
                +
001d23 91e0 02b0+LDS R30 , _glcd_state + ( 2 )
                 	__GETB1MN _glcd_state,2
001d25 93ea      	ST   -Y,R30
                +
001d26 91e0 02b1+LDS R30 , _glcd_state + ( 3 )
                 	__GETB1MN _glcd_state,3
001d28 93ea      	ST   -Y,R30
001d29 9508      	RET
                 
                 ;OPTIMIZER ADDED SUBROUTINE, CALLED 3 TIMES, CODE SIZE REDUCTION:1 WORDS
                 SUBOPT_0x3F:
001d2a 940e 11cc 	CALL _glcd_block
                +
001d2c 91e0 02b0+LDS R30 , _glcd_state + ( 2 )
                 	__GETB1MN _glcd_state,2
001d2e 9508      	RET
                 
                 ;OPTIMIZER ADDED SUBROUTINE, CALLED 3 TIMES, CODE SIZE REDUCTION:9 WORDS
                 SUBOPT_0x40:
001d2f 93ea      	ST   -Y,R30
001d30 e0e0      	LDI  R30,LOW(0)
001d31 93ea      	ST   -Y,R30
001d32 e0e0      	LDI  R30,LOW(0)
001d33 e0f0      	LDI  R31,HIGH(0)
001d34 93fa      	ST   -Y,R31
001d35 93ea      	ST   -Y,R30
001d36 e0a9      	LDI  R26,LOW(9)
001d37 9508      	RET
                 
                 ;OPTIMIZER ADDED SUBROUTINE, CALLED 2 TIMES, CODE SIZE REDUCTION:3 WORDS
                 SUBOPT_0x41:
001d38 93ba      	ST   -Y,R27
001d39 93aa      	ST   -Y,R26
001d3a 931a      	ST   -Y,R17
001d3b 81ec      	LDD  R30,Y+4
001d3c 93ea      	ST   -Y,R30
001d3d 81ac      	LDD  R26,Y+4
001d3e 940c 15c2 	JMP  _glcd_moveto
                 
                 ;OPTIMIZER ADDED SUBROUTINE, CALLED 3 TIMES, CODE SIZE REDUCTION:1 WORDS
                 SUBOPT_0x42:
001d40 83ed      	STD  Y+5,R30
001d41 83fe      	STD  Y+5+1,R31
001d42 9508      	RET
                 
                 ;OPTIMIZER ADDED SUBROUTINE, CALLED 3 TIMES, CODE SIZE REDUCTION:1 WORDS
                 SUBOPT_0x43:
001d43 81ee      	LDD  R30,Y+6
001d44 81ff      	LDD  R31,Y+6+1
001d45 93fa      	ST   -Y,R31
001d46 93ea      	ST   -Y,R30
001d47 9508      	RET
                 
                 ;OPTIMIZER ADDED SUBROUTINE, CALLED 5 TIMES, CODE SIZE REDUCTION:5 WORDS
                 SUBOPT_0x44:
                +
001d48 87e9     +STD Y + 9 , R30
001d49 87fa     +STD Y + 9 + 1 , R31
001d4a 876b     +STD Y + 9 + 2 , R22
001d4b 877c     +STD Y + 9 + 3 , R23
                 	__PUTD1S 9
001d4c 9508      	RET
                 
                 ;OPTIMIZER ADDED SUBROUTINE, CALLED 5 TIMES, CODE SIZE REDUCTION:13 WORDS
                 SUBOPT_0x45:
001d4d 81ae      	LDD  R26,Y+6
001d4e 81bf      	LDD  R27,Y+6+1
001d4f 9611      	ADIW R26,1
001d50 83ae      	STD  Y+6,R26
001d51 83bf      	STD  Y+6+1,R27
001d52 9711      	SBIW R26,1
001d53 9508      	RET
                 
                 ;OPTIMIZER ADDED SUBROUTINE, CALLED 4 TIMES, CODE SIZE REDUCTION:3 WORDS
                 SUBOPT_0x46:
                +
001d54 81aa     +LDD R26 , Y + 2
001d55 81bb     +LDD R27 , Y + 2 + 1
001d56 818c     +LDD R24 , Y + 2 + 2
001d57 819d     +LDD R25 , Y + 2 + 3
                 	__GETD2S 2
001d58 9508      	RET
                 
                 ;OPTIMIZER ADDED SUBROUTINE, CALLED 5 TIMES, CODE SIZE REDUCTION:13 WORDS
                 SUBOPT_0x47:
                +
001d59 eced     +LDI R30 , LOW ( 0x3DCCCCCD )
001d5a ecfc     +LDI R31 , HIGH ( 0x3DCCCCCD )
001d5b ec6c     +LDI R22 , BYTE3 ( 0x3DCCCCCD )
001d5c e37d     +LDI R23 , BYTE4 ( 0x3DCCCCCD )
                 	__GETD1N 0x3DCCCCCD
001d5d 940e 1f6b 	CALL __MULF12
001d5f 9508      	RET
                 
                 ;OPTIMIZER ADDED SUBROUTINE, CALLED 4 TIMES, CODE SIZE REDUCTION:3 WORDS
                 SUBOPT_0x48:
                +
001d60 83ea     +STD Y + 2 , R30
001d61 83fb     +STD Y + 2 + 1 , R31
001d62 836c     +STD Y + 2 + 2 , R22
001d63 837d     +STD Y + 2 + 3 , R23
                 	__PUTD1S 2
001d64 9508      	RET
                 
                 ;OPTIMIZER ADDED SUBROUTINE, CALLED 3 TIMES, CODE SIZE REDUCTION:9 WORDS
                 SUBOPT_0x49:
                +
001d65 81ea     +LDD R30 , Y + 2
001d66 81fb     +LDD R31 , Y + 2 + 1
001d67 816c     +LDD R22 , Y + 2 + 2
001d68 817d     +LDD R23 , Y + 2 + 3
                 	__GETD1S 2
                +
001d69 85a9     +LDD R26 , Y + 9
001d6a 85ba     +LDD R27 , Y + 9 + 1
001d6b 858b     +LDD R24 , Y + 9 + 2
001d6c 859c     +LDD R25 , Y + 9 + 3
                 	__GETD2S 9
001d6d 9508      	RET
                 
                 ;OPTIMIZER ADDED SUBROUTINE, CALLED 7 TIMES, CODE SIZE REDUCTION:21 WORDS
                 SUBOPT_0x4A:
                +
001d6e e0e0     +LDI R30 , LOW ( 0x41200000 )
001d6f e0f0     +LDI R31 , HIGH ( 0x41200000 )
001d70 e260     +LDI R22 , BYTE3 ( 0x41200000 )
001d71 e471     +LDI R23 , BYTE4 ( 0x41200000 )
                 	__GETD1N 0x41200000
001d72 940e 1f6b 	CALL __MULF12
001d74 9508      	RET
                 
                 ;OPTIMIZER ADDED SUBROUTINE, CALLED 3 TIMES, CODE SIZE REDUCTION:5 WORDS
                 SUBOPT_0x4B:
                +
001d75 e0a0     +LDI R26 , LOW ( 0x3F000000 )
001d76 e0b0     +LDI R27 , HIGH ( 0x3F000000 )
001d77 e080     +LDI R24 , BYTE3 ( 0x3F000000 )
001d78 e39f     +LDI R25 , BYTE4 ( 0x3F000000 )
                 	__GETD2N 0x3F000000
001d79 940e 1f1b 	CALL __ADDF12
001d7b 9508      	RET
                 
                 ;OPTIMIZER ADDED SUBROUTINE, CALLED 3 TIMES, CODE SIZE REDUCTION:1 WORDS
                 SUBOPT_0x4C:
                +
001d7c 85a9     +LDD R26 , Y + 9
001d7d 85ba     +LDD R27 , Y + 9 + 1
001d7e 858b     +LDD R24 , Y + 9 + 2
001d7f 859c     +LDD R25 , Y + 9 + 3
                 	__GETD2S 9
001d80 9508      	RET
                 
                 ;OPTIMIZER ADDED SUBROUTINE, CALLED 2 TIMES, CODE SIZE REDUCTION:1 WORDS
                 SUBOPT_0x4D:
001d81 940e 2125 	CALL __SWAPD12
001d83 940e 1f14 	CALL __SUBF12
001d85 cfc2      	RJMP SUBOPT_0x44
                 
                 ;OPTIMIZER ADDED SUBROUTINE, CALLED 3 TIMES, CODE SIZE REDUCTION:3 WORDS
                 SUBOPT_0x4E:
001d86 91ed      	LD   R30,X+
001d87 91fd      	LD   R31,X+
001d88 9631      	ADIW R30,1
001d89 93fe      	ST   -X,R31
001d8a 93ee      	ST   -X,R30
001d8b 9508      	RET
                 
                 ;OPTIMIZER ADDED SUBROUTINE, CALLED 4 TIMES, CODE SIZE REDUCTION:9 WORDS
                 SUBOPT_0x4F:
                +
001d8c 81ac     +LDD R26 , Y + 4
001d8d 81bd     +LDD R27 , Y + 4 + 1
001d8e 818e     +LDD R24 , Y + 4 + 2
001d8f 819f     +LDD R25 , Y + 4 + 3
                 	__GETD2S 4
001d90 cfdd      	RJMP SUBOPT_0x4A
                 
                 ;OPTIMIZER ADDED SUBROUTINE, CALLED 5 TIMES, CODE SIZE REDUCTION:5 WORDS
                 SUBOPT_0x50:
                +
001d91 83ec     +STD Y + 4 , R30
001d92 83fd     +STD Y + 4 + 1 , R31
001d93 836e     +STD Y + 4 + 2 , R22
001d94 837f     +STD Y + 4 + 3 , R23
                 	__PUTD1S 4
001d95 9508      	RET
                 
                 ;OPTIMIZER ADDED SUBROUTINE, CALLED 4 TIMES, CODE SIZE REDUCTION:21 WORDS
                 SUBOPT_0x51:
                +
001d96 81ec     +LDD R30 , Y + 4
001d97 81fd     +LDD R31 , Y + 4 + 1
001d98 816e     +LDD R22 , Y + 4 + 2
001d99 817f     +LDD R23 , Y + 4 + 3
                 	__GETD1S 4
                +
001d9a 85ac     +LDD R26 , Y + 12
001d9b 85bd     +LDD R27 , Y + 12 + 1
001d9c 858e     +LDD R24 , Y + 12 + 2
001d9d 859f     +LDD R25 , Y + 12 + 3
                 	__GETD2S 12
001d9e 940e 1ffe 	CALL __CMPF12
001da0 9508      	RET
                 
                 ;OPTIMIZER ADDED SUBROUTINE, CALLED 5 TIMES, CODE SIZE REDUCTION:5 WORDS
                 SUBOPT_0x52:
                +
001da1 85ac     +LDD R26 , Y + 12
001da2 85bd     +LDD R27 , Y + 12 + 1
001da3 858e     +LDD R24 , Y + 12 + 2
001da4 859f     +LDD R25 , Y + 12 + 3
                 	__GETD2S 12
001da5 9508      	RET
                 
                 ;OPTIMIZER ADDED SUBROUTINE, CALLED 5 TIMES, CODE SIZE REDUCTION:5 WORDS
                 SUBOPT_0x53:
                +
001da6 87ec     +STD Y + 12 , R30
001da7 87fd     +STD Y + 12 + 1 , R31
001da8 876e     +STD Y + 12 + 2 , R22
001da9 877f     +STD Y + 12 + 3 , R23
                 	__PUTD1S 12
001daa 9508      	RET
                 
                 ;OPTIMIZER ADDED SUBROUTINE, CALLED 2 TIMES, CODE SIZE REDUCTION:1 WORDS
                 SUBOPT_0x54:
001dab 85a8      	LDD  R26,Y+8
001dac 85b9      	LDD  R27,Y+8+1
001dad 9611      	ADIW R26,1
001dae 87a8      	STD  Y+8,R26
001daf 87b9      	STD  Y+8+1,R27
001db0 9711      	SBIW R26,1
001db1 9508      	RET
                 
                 ;OPTIMIZER ADDED SUBROUTINE, CALLED 4 TIMES, CODE SIZE REDUCTION:6 WORDS
                 SUBOPT_0x55:
001db2 85e8      	LDD  R30,Y+8
001db3 85f9      	LDD  R31,Y+8+1
001db4 9631      	ADIW R30,1
001db5 87e8      	STD  Y+8,R30
001db6 87f9      	STD  Y+8+1,R31
001db7 9508      	RET
                 
                 ;OPTIMIZER ADDED SUBROUTINE, CALLED 5 TIMES, CODE SIZE REDUCTION:13 WORDS
                 SUBOPT_0x56:
001db8 932a      	ST   -Y,R18
001db9 81af      	LDD  R26,Y+7
001dba 85b8      	LDD  R27,Y+7+1
001dbb 85e9      	LDD  R30,Y+9
001dbc 85fa      	LDD  R31,Y+9+1
001dbd 9509      	ICALL
001dbe 9508      	RET
                 
                 ;OPTIMIZER ADDED SUBROUTINE, CALLED 8 TIMES, CODE SIZE REDUCTION:25 WORDS
                 SUBOPT_0x57:
                +
001dbf 01fe     +MOVW R30 , R28
001dc0 5ae6     +SUBI R30 , LOW ( - 90 )
001dc1 4fff     +SBCI R31 , HIGH ( - 90 )
001dc2 9001     +LD R0 , Z +
001dc3 81f0     +LD R31 , Z
001dc4 2de0     +MOV R30 , R0
                 	__GETW1SX 90
001dc5 9508      	RET
                 
                 ;OPTIMIZER ADDED SUBROUTINE, CALLED 7 TIMES, CODE SIZE REDUCTION:21 WORDS
                 SUBOPT_0x58:
001dc6 9734      	SBIW R30,4
                +
001dc7 01de     +MOVW R26 , R28
001dc8 5aa6     +SUBI R26 , LOW ( - 90 )
001dc9 4fbf     +SBCI R27 , HIGH ( - 90 )
001dca 93ed     +ST X + , R30
001dcb 93fc     +ST X , R31
                 	__PUTW1SX 90
001dcc 9508      	RET
                 
                 ;OPTIMIZER ADDED SUBROUTINE, CALLED 4 TIMES, CODE SIZE REDUCTION:6 WORDS
                 SUBOPT_0x59:
001dcd 81af      	LDD  R26,Y+7
001dce 85b8      	LDD  R27,Y+7+1
001dcf 85e9      	LDD  R30,Y+9
001dd0 85fa      	LDD  R31,Y+9+1
001dd1 9509      	ICALL
001dd2 9508      	RET
                 
                 ;OPTIMIZER ADDED SUBROUTINE, CALLED 6 TIMES, CODE SIZE REDUCTION:17 WORDS
                 SUBOPT_0x5A:
                +
001dd3 01de     +MOVW R26 , R28
001dd4 5aa6     +SUBI R26 , LOW ( - 90 )
001dd5 4fbf     +SBCI R27 , HIGH ( - 90 )
001dd6 900d     +LD R0 , X +
001dd7 91bc     +LD R27 , X
001dd8 2da0     +MOV R26 , R0
                 	__GETW2SX 90
001dd9 9508      	RET
                 
                 ;OPTIMIZER ADDED SUBROUTINE, CALLED 4 TIMES, CODE SIZE REDUCTION:3 WORDS
                 SUBOPT_0x5B:
                +
001dda 87ea     +STD Y + 10 , R30
001ddb 87fb     +STD Y + 10 + 1 , R31
001ddc 876c     +STD Y + 10 + 2 , R22
001ddd 877d     +STD Y + 10 + 3 , R23
                 	__PUTD1S 10
001dde 9508      	RET
                 
                 ;OPTIMIZER ADDED SUBROUTINE, CALLED 6 TIMES, CODE SIZE REDUCTION:7 WORDS
                 SUBOPT_0x5C:
001ddf dfdf      	RCALL SUBOPT_0x57
001de0 cfe5      	RJMP SUBOPT_0x58
                 
                 ;OPTIMIZER ADDED SUBROUTINE, CALLED 4 TIMES, CODE SIZE REDUCTION:3 WORDS
                 SUBOPT_0x5D:
                +
001de1 85ea     +LDD R30 , Y + 10
001de2 85fb     +LDD R31 , Y + 10 + 1
001de3 856c     +LDD R22 , Y + 10 + 2
001de4 857d     +LDD R23 , Y + 10 + 3
                 	__GETD1S 10
001de5 9508      	RET
                 
                 ;OPTIMIZER ADDED SUBROUTINE, CALLED 2 TIMES, CODE SIZE REDUCTION:2 WORDS
                 SUBOPT_0x5E:
001de6 87ee      	STD  Y+14,R30
001de7 87ff      	STD  Y+14+1,R31
001de8 85ae      	LDD  R26,Y+14
001de9 85bf      	LDD  R27,Y+14+1
001dea 940e 1a31 	CALL _strlen
001dec 2f1e      	MOV  R17,R30
001ded 9508      	RET
                 
                 ;OPTIMIZER ADDED SUBROUTINE, CALLED 4 TIMES, CODE SIZE REDUCTION:6 WORDS
                 SUBOPT_0x5F:
001dee dfe4      	RCALL SUBOPT_0x5A
001def 9614      	ADIW R26,4
001df0 940e 20fe 	CALL __GETW1P
001df2 9508      	RET
                 
                 ;OPTIMIZER ADDED SUBROUTINE, CALLED 5 TIMES, CODE SIZE REDUCTION:5 WORDS
                 SUBOPT_0x60:
                +
001df3 8be8     +STD Y + 16 , R30
001df4 8bf9     +STD Y + 16 + 1 , R31
001df5 8b6a     +STD Y + 16 + 2 , R22
001df6 8b7b     +STD Y + 16 + 3 , R23
                 	__PUTD1S 16
001df7 9508      	RET
                 
                 ;OPTIMIZER ADDED SUBROUTINE, CALLED 2 TIMES, CODE SIZE REDUCTION:12 WORDS
                 SUBOPT_0x61:
001df8 7f0b      	ANDI R16,LOW(251)
001df9 89ed      	LDD  R30,Y+21
001dfa 93ea      	ST   -Y,R30
                +
001dfb 01de     +MOVW R26 , R28
001dfc 5aa9     +SUBI R26 , LOW ( - 87 )
001dfd 4fbf     +SBCI R27 , HIGH ( - 87 )
001dfe 900d     +LD R0 , X +
001dff 91bc     +LD R27 , X
001e00 2da0     +MOV R26 , R0
                 	__GETW2SX 87
                +
001e01 01fe     +MOVW R30 , R28
001e02 5ae7     +SUBI R30 , LOW ( - 89 )
001e03 4fff     +SBCI R31 , HIGH ( - 89 )
001e04 9001     +LD R0 , Z +
001e05 81f0     +LD R31 , Z
001e06 2de0     +MOV R30 , R0
                 	__GETW1SX 89
001e07 9509      	ICALL
001e08 3050      	CPI  R21,0
001e09 9508      	RET
                 
                 ;OPTIMIZER ADDED SUBROUTINE, CALLED 2 TIMES, CODE SIZE REDUCTION:3 WORDS
                 SUBOPT_0x62:
                +
001e0a 89e8     +LDD R30 , Y + 16
001e0b 89f9     +LDD R31 , Y + 16 + 1
001e0c 896a     +LDD R22 , Y + 16 + 2
001e0d 897b     +LDD R23 , Y + 16 + 3
                 	__GETD1S 16
                +
001e0e 85aa     +LDD R26 , Y + 10
001e0f 85bb     +LDD R27 , Y + 10 + 1
001e10 858c     +LDD R24 , Y + 10 + 2
001e11 859d     +LDD R25 , Y + 10 + 3
                 	__GETD2S 10
001e12 9508      	RET
                 
                 ;OPTIMIZER ADDED SUBROUTINE, CALLED 2 TIMES, CODE SIZE REDUCTION:1 WORDS
                 SUBOPT_0x63:
001e13 01de      	MOVW R26,R28
001e14 961c      	ADIW R26,12
001e15 940e 201e 	CALL __ADDW2R15
001e17 940e 20fe 	CALL __GETW1P
001e19 9508      	RET
                 
                 
                 	.CSEG
                 	.equ __sda_bit=1
                 	.equ __scl_bit=0
                 	.equ __i2c_port=0x15 ;PORTC
                 	.equ __i2c_dir=__i2c_port-1
                 	.equ __i2c_pin=__i2c_port-2
                 
                 _i2c_init:
001e1a 98a8      	cbi  __i2c_port,__scl_bit
001e1b 98a9      	cbi  __i2c_port,__sda_bit
001e1c 9aa0      	sbi  __i2c_dir,__scl_bit
001e1d 98a1      	cbi  __i2c_dir,__sda_bit
001e1e c015      	rjmp __i2c_delay2
                 _i2c_start:
001e1f 98a1      	cbi  __i2c_dir,__sda_bit
001e20 98a0      	cbi  __i2c_dir,__scl_bit
001e21 27ee      	clr  r30
001e22 0000      	nop
001e23 9b99      	sbis __i2c_pin,__sda_bit
001e24 9508      	ret
001e25 9b98      	sbis __i2c_pin,__scl_bit
001e26 9508      	ret
001e27 d004      	rcall __i2c_delay1
001e28 9aa1      	sbi  __i2c_dir,__sda_bit
001e29 d002      	rcall __i2c_delay1
001e2a 9aa0      	sbi  __i2c_dir,__scl_bit
001e2b e0e1      	ldi  r30,1
                 __i2c_delay1:
001e2c e162      	ldi  r22,18
001e2d c007      	rjmp __i2c_delay2l
                 _i2c_stop:
001e2e 9aa1      	sbi  __i2c_dir,__sda_bit
001e2f 9aa0      	sbi  __i2c_dir,__scl_bit
001e30 d003      	rcall __i2c_delay2
001e31 98a0      	cbi  __i2c_dir,__scl_bit
001e32 dff9      	rcall __i2c_delay1
001e33 98a1      	cbi  __i2c_dir,__sda_bit
                 __i2c_delay2:
001e34 e265      	ldi  r22,37
                 __i2c_delay2l:
001e35 956a      	dec  r22
001e36 f7f1      	brne __i2c_delay2l
001e37 9508      	ret
                 _i2c_read:
001e38 e078      	ldi  r23,8
                 __i2c_read0:
001e39 98a0      	cbi  __i2c_dir,__scl_bit
001e3a dff1      	rcall __i2c_delay1
                 __i2c_read3:
001e3b 9b98      	sbis __i2c_pin,__scl_bit
001e3c cffe      	rjmp __i2c_read3
001e3d dfee      	rcall __i2c_delay1
001e3e 9488      	clc
001e3f 9999      	sbic __i2c_pin,__sda_bit
001e40 9408      	sec
001e41 9aa0      	sbi  __i2c_dir,__scl_bit
001e42 dff1      	rcall __i2c_delay2
001e43 1fee      	rol  r30
001e44 957a      	dec  r23
001e45 f799      	brne __i2c_read0
001e46 2f7a      	mov  r23,r26
001e47 2377      	tst  r23
001e48 f411      	brne __i2c_read1
001e49 98a1      	cbi  __i2c_dir,__sda_bit
001e4a c001      	rjmp __i2c_read2
                 __i2c_read1:
001e4b 9aa1      	sbi  __i2c_dir,__sda_bit
                 __i2c_read2:
001e4c dfdf      	rcall __i2c_delay1
001e4d 98a0      	cbi  __i2c_dir,__scl_bit
001e4e dfe5      	rcall __i2c_delay2
001e4f 9aa0      	sbi  __i2c_dir,__scl_bit
001e50 dfdb      	rcall __i2c_delay1
001e51 98a1      	cbi  __i2c_dir,__sda_bit
001e52 cfd9      	rjmp __i2c_delay1
                 
                 _i2c_write:
001e53 e078      	ldi  r23,8
                 __i2c_write0:
001e54 0faa      	lsl  r26
001e55 f410      	brcc __i2c_write1
001e56 98a1      	cbi  __i2c_dir,__sda_bit
001e57 c001      	rjmp __i2c_write2
                 __i2c_write1:
001e58 9aa1      	sbi  __i2c_dir,__sda_bit
                 __i2c_write2:
001e59 dfda      	rcall __i2c_delay2
001e5a 98a0      	cbi  __i2c_dir,__scl_bit
001e5b dfd0      	rcall __i2c_delay1
                 __i2c_write3:
001e5c 9b98      	sbis __i2c_pin,__scl_bit
001e5d cffe      	rjmp __i2c_write3
001e5e dfcd      	rcall __i2c_delay1
001e5f 9aa0      	sbi  __i2c_dir,__scl_bit
001e60 957a      	dec  r23
001e61 f791      	brne __i2c_write0
001e62 98a1      	cbi  __i2c_dir,__sda_bit
001e63 dfc8      	rcall __i2c_delay1
001e64 98a0      	cbi  __i2c_dir,__scl_bit
001e65 dfce      	rcall __i2c_delay2
001e66 e0e1      	ldi  r30,1
001e67 9999      	sbic __i2c_pin,__sda_bit
001e68 27ee      	clr  r30
001e69 9aa0      	sbi  __i2c_dir,__scl_bit
001e6a cfc1      	rjmp __i2c_delay1
                 
                 _delay_ms:
001e6b 9610      	adiw r26,0
001e6c f039      	breq __delay_ms1
                 __delay_ms0:
                +
001e6d ec8d     +LDI R24 , LOW ( 0xACD )
001e6e e09a     +LDI R25 , HIGH ( 0xACD )
                +__DELAY_USW_LOOP :
001e6f 9701     +SBIW R24 , 1
001e70 f7f1     +BRNE __DELAY_USW_LOOP
                 	__DELAY_USW 0xACD
001e71 95a8      	wdr
001e72 9711      	sbiw r26,1
001e73 f7c9      	brne __delay_ms0
                 __delay_ms1:
001e74 9508      	ret
                 
                 	.equ __w1_port=0x18
                 	.equ __w1_bit=0x00
                 
                 __ANEGF1:
001e75 9730      	SBIW R30,0
001e76 4060      	SBCI R22,0
001e77 4070      	SBCI R23,0
001e78 f009      	BREQ __ANEGF10
001e79 5870      	SUBI R23,0x80
                 __ANEGF10:
001e7a 9508      	RET
                 
                 __ROUND_REPACK:
001e7b 2355      	TST  R21
001e7c f442      	BRPL __REPACK
001e7d 3850      	CPI  R21,0x80
001e7e f411      	BRNE __ROUND_REPACK0
001e7f ffe0      	SBRS R30,0
001e80 c004      	RJMP __REPACK
                 __ROUND_REPACK0:
001e81 9631      	ADIW R30,1
001e82 1f69      	ADC  R22,R25
001e83 1f79      	ADC  R23,R25
001e84 f06b      	BRVS __REPACK1
                 
                 __REPACK:
001e85 e850      	LDI  R21,0x80
001e86 2757      	EOR  R21,R23
001e87 f411      	BRNE __REPACK0
001e88 935f      	PUSH R21
001e89 c0cf      	RJMP __ZERORES
                 __REPACK0:
001e8a 3f5f      	CPI  R21,0xFF
001e8b f031      	BREQ __REPACK1
001e8c 0f66      	LSL  R22
001e8d 0c00      	LSL  R0
001e8e 9557      	ROR  R21
001e8f 9567      	ROR  R22
001e90 2f75      	MOV  R23,R21
001e91 9508      	RET
                 __REPACK1:
001e92 935f      	PUSH R21
001e93 2000      	TST  R0
001e94 f00a      	BRMI __REPACK2
001e95 c0cf      	RJMP __MAXRES
                 __REPACK2:
001e96 c0c8      	RJMP __MINRES
                 
                 __UNPACK:
001e97 e850      	LDI  R21,0x80
001e98 2e19      	MOV  R1,R25
001e99 2215      	AND  R1,R21
001e9a 0f88      	LSL  R24
001e9b 1f99      	ROL  R25
001e9c 2795      	EOR  R25,R21
001e9d 0f55      	LSL  R21
001e9e 9587      	ROR  R24
                 
                 __UNPACK1:
001e9f e850      	LDI  R21,0x80
001ea0 2e07      	MOV  R0,R23
001ea1 2205      	AND  R0,R21
001ea2 0f66      	LSL  R22
001ea3 1f77      	ROL  R23
001ea4 2775      	EOR  R23,R21
001ea5 0f55      	LSL  R21
001ea6 9567      	ROR  R22
001ea7 9508      	RET
                 
                 __CFD1U:
001ea8 9468      	SET
001ea9 c001      	RJMP __CFD1U0
                 __CFD1:
001eaa 94e8      	CLT
                 __CFD1U0:
001eab 935f      	PUSH R21
001eac dff2      	RCALL __UNPACK1
001ead 3870      	CPI  R23,0x80
001eae f018      	BRLO __CFD10
001eaf 3f7f      	CPI  R23,0xFF
001eb0 f408      	BRCC __CFD10
001eb1 c0a7      	RJMP __ZERORES
                 __CFD10:
001eb2 e156      	LDI  R21,22
001eb3 1b57      	SUB  R21,R23
001eb4 f4aa      	BRPL __CFD11
001eb5 9551      	NEG  R21
001eb6 3058      	CPI  R21,8
001eb7 f40e      	BRTC __CFD19
001eb8 3059      	CPI  R21,9
                 __CFD19:
001eb9 f030      	BRLO __CFD17
001eba efef      	SER  R30
001ebb efff      	SER  R31
001ebc ef6f      	SER  R22
001ebd e77f      	LDI  R23,0x7F
001ebe f977      	BLD  R23,7
001ebf c01a      	RJMP __CFD15
                 __CFD17:
001ec0 2777      	CLR  R23
001ec1 2355      	TST  R21
001ec2 f0b9      	BREQ __CFD15
                 __CFD18:
001ec3 0fee      	LSL  R30
001ec4 1fff      	ROL  R31
001ec5 1f66      	ROL  R22
001ec6 1f77      	ROL  R23
001ec7 955a      	DEC  R21
001ec8 f7d1      	BRNE __CFD18
001ec9 c010      	RJMP __CFD15
                 __CFD11:
001eca 2777      	CLR  R23
                 __CFD12:
001ecb 3058      	CPI  R21,8
001ecc f028      	BRLO __CFD13
001ecd 2fef      	MOV  R30,R31
001ece 2ff6      	MOV  R31,R22
001ecf 2f67      	MOV  R22,R23
001ed0 5058      	SUBI R21,8
001ed1 cff9      	RJMP __CFD12
                 __CFD13:
001ed2 2355      	TST  R21
001ed3 f031      	BREQ __CFD15
                 __CFD14:
001ed4 9576      	LSR  R23
001ed5 9567      	ROR  R22
001ed6 95f7      	ROR  R31
001ed7 95e7      	ROR  R30
001ed8 955a      	DEC  R21
001ed9 f7d1      	BRNE __CFD14
                 __CFD15:
001eda 2000      	TST  R0
001edb f40a      	BRPL __CFD16
001edc d149      	RCALL __ANEGD1
                 __CFD16:
001edd 915f      	POP  R21
001ede 9508      	RET
                 
                 __CDF1U:
001edf 9468      	SET
001ee0 c001      	RJMP __CDF1U0
                 __CDF1:
001ee1 94e8      	CLT
                 __CDF1U0:
001ee2 9730      	SBIW R30,0
001ee3 4060      	SBCI R22,0
001ee4 4070      	SBCI R23,0
001ee5 f0b1      	BREQ __CDF10
001ee6 2400      	CLR  R0
001ee7 f026      	BRTS __CDF11
001ee8 2377      	TST  R23
001ee9 f412      	BRPL __CDF11
001eea 9400      	COM  R0
001eeb d13a      	RCALL __ANEGD1
                 __CDF11:
001eec 2e17      	MOV  R1,R23
001eed e17e      	LDI  R23,30
001eee 2011      	TST  R1
                 __CDF12:
001eef f032      	BRMI __CDF13
001ef0 957a      	DEC  R23
001ef1 0fee      	LSL  R30
001ef2 1fff      	ROL  R31
001ef3 1f66      	ROL  R22
001ef4 1c11      	ROL  R1
001ef5 cff9      	RJMP __CDF12
                 __CDF13:
001ef6 2fef      	MOV  R30,R31
001ef7 2ff6      	MOV  R31,R22
001ef8 2d61      	MOV  R22,R1
001ef9 935f      	PUSH R21
001efa df8a      	RCALL __REPACK
001efb 915f      	POP  R21
                 __CDF10:
001efc 9508      	RET
                 
                 __SWAPACC:
001efd 934f      	PUSH R20
001efe 01af      	MOVW R20,R30
001eff 01fd      	MOVW R30,R26
001f00 01da      	MOVW R26,R20
001f01 01ab      	MOVW R20,R22
001f02 01bc      	MOVW R22,R24
001f03 01ca      	MOVW R24,R20
001f04 2d40      	MOV  R20,R0
001f05 2c01      	MOV  R0,R1
001f06 2e14      	MOV  R1,R20
001f07 914f      	POP  R20
001f08 9508      	RET
                 
                 __UADD12:
001f09 0fea      	ADD  R30,R26
001f0a 1ffb      	ADC  R31,R27
001f0b 1f68      	ADC  R22,R24
001f0c 9508      	RET
                 
                 __NEGMAN1:
001f0d 95e0      	COM  R30
001f0e 95f0      	COM  R31
001f0f 9560      	COM  R22
001f10 5fef      	SUBI R30,-1
001f11 4fff      	SBCI R31,-1
001f12 4f6f      	SBCI R22,-1
001f13 9508      	RET
                 
                 __SUBF12:
001f14 935f      	PUSH R21
001f15 df81      	RCALL __UNPACK
001f16 3890      	CPI  R25,0x80
001f17 f171      	BREQ __ADDF129
001f18 e850      	LDI  R21,0x80
001f19 2615      	EOR  R1,R21
                 
001f1a c004      	RJMP __ADDF120
                 
                 __ADDF12:
001f1b 935f      	PUSH R21
001f1c df7a      	RCALL __UNPACK
001f1d 3890      	CPI  R25,0x80
001f1e f139      	BREQ __ADDF129
                 
                 __ADDF120:
001f1f 3870      	CPI  R23,0x80
001f20 f121      	BREQ __ADDF128
                 __ADDF121:
001f21 2f57      	MOV  R21,R23
001f22 1b59      	SUB  R21,R25
001f23 f12b      	BRVS __ADDF1211
001f24 f412      	BRPL __ADDF122
001f25 dfd7      	RCALL __SWAPACC
001f26 cffa      	RJMP __ADDF121
                 __ADDF122:
001f27 3158      	CPI  R21,24
001f28 f018      	BRLO __ADDF123
001f29 27aa      	CLR  R26
001f2a 27bb      	CLR  R27
001f2b 2788      	CLR  R24
                 __ADDF123:
001f2c 3058      	CPI  R21,8
001f2d f028      	BRLO __ADDF124
001f2e 2fab      	MOV  R26,R27
001f2f 2fb8      	MOV  R27,R24
001f30 2788      	CLR  R24
001f31 5058      	SUBI R21,8
001f32 cff9      	RJMP __ADDF123
                 __ADDF124:
001f33 2355      	TST  R21
001f34 f029      	BREQ __ADDF126
                 __ADDF125:
001f35 9586      	LSR  R24
001f36 95b7      	ROR  R27
001f37 95a7      	ROR  R26
001f38 955a      	DEC  R21
001f39 f7d9      	BRNE __ADDF125
                 __ADDF126:
001f3a 2d50      	MOV  R21,R0
001f3b 2551      	EOR  R21,R1
001f3c f072      	BRMI __ADDF127
001f3d dfcb      	RCALL __UADD12
001f3e f438      	BRCC __ADDF129
001f3f 9567      	ROR  R22
001f40 95f7      	ROR  R31
001f41 95e7      	ROR  R30
001f42 9573      	INC  R23
001f43 f413      	BRVC __ADDF129
001f44 c020      	RJMP __MAXRES
                 __ADDF128:
001f45 dfb7      	RCALL __SWAPACC
                 __ADDF129:
001f46 df3e      	RCALL __REPACK
001f47 915f      	POP  R21
001f48 9508      	RET
                 __ADDF1211:
001f49 f7d8      	BRCC __ADDF128
001f4a cffb      	RJMP __ADDF129
                 __ADDF127:
001f4b 1bea      	SUB  R30,R26
001f4c 0bfb      	SBC  R31,R27
001f4d 0b68      	SBC  R22,R24
001f4e f051      	BREQ __ZERORES
001f4f f410      	BRCC __ADDF1210
001f50 9400      	COM  R0
001f51 dfbb      	RCALL __NEGMAN1
                 __ADDF1210:
001f52 2366      	TST  R22
001f53 f392      	BRMI __ADDF129
001f54 0fee      	LSL  R30
001f55 1fff      	ROL  R31
001f56 1f66      	ROL  R22
001f57 957a      	DEC  R23
001f58 f7cb      	BRVC __ADDF1210
                 
                 __ZERORES:
001f59 27ee      	CLR  R30
001f5a 27ff      	CLR  R31
001f5b 2766      	CLR  R22
001f5c 2777      	CLR  R23
001f5d 915f      	POP  R21
001f5e 9508      	RET
                 
                 __MINRES:
001f5f efef      	SER  R30
001f60 efff      	SER  R31
001f61 e76f      	LDI  R22,0x7F
001f62 ef7f      	SER  R23
001f63 915f      	POP  R21
001f64 9508      	RET
                 
                 __MAXRES:
001f65 efef      	SER  R30
001f66 efff      	SER  R31
001f67 e76f      	LDI  R22,0x7F
001f68 e77f      	LDI  R23,0x7F
001f69 915f      	POP  R21
001f6a 9508      	RET
                 
                 __MULF12:
001f6b 935f      	PUSH R21
001f6c df2a      	RCALL __UNPACK
001f6d 3870      	CPI  R23,0x80
001f6e f351      	BREQ __ZERORES
001f6f 3890      	CPI  R25,0x80
001f70 f341      	BREQ __ZERORES
001f71 2401      	EOR  R0,R1
001f72 9408      	SEC
001f73 1f79      	ADC  R23,R25
001f74 f423      	BRVC __MULF124
001f75 f31c      	BRLT __ZERORES
                 __MULF125:
001f76 2000      	TST  R0
001f77 f33a      	BRMI __MINRES
001f78 cfec      	RJMP __MAXRES
                 __MULF124:
001f79 920f      	PUSH R0
001f7a 931f      	PUSH R17
001f7b 932f      	PUSH R18
001f7c 933f      	PUSH R19
001f7d 934f      	PUSH R20
001f7e 2711      	CLR  R17
001f7f 2722      	CLR  R18
001f80 2799      	CLR  R25
001f81 9f68      	MUL  R22,R24
001f82 01a0      	MOVW R20,R0
001f83 9f8f      	MUL  R24,R31
001f84 2d30      	MOV  R19,R0
001f85 0d41      	ADD  R20,R1
001f86 1f59      	ADC  R21,R25
001f87 9f6b      	MUL  R22,R27
001f88 0d30      	ADD  R19,R0
001f89 1d41      	ADC  R20,R1
001f8a 1f59      	ADC  R21,R25
001f8b 9f8e      	MUL  R24,R30
001f8c d027      	RCALL __MULF126
001f8d 9fbf      	MUL  R27,R31
001f8e d025      	RCALL __MULF126
001f8f 9f6a      	MUL  R22,R26
001f90 d023      	RCALL __MULF126
001f91 9fbe      	MUL  R27,R30
001f92 d01d      	RCALL __MULF127
001f93 9faf      	MUL  R26,R31
001f94 d01b      	RCALL __MULF127
001f95 9fae      	MUL  R26,R30
001f96 0d11      	ADD  R17,R1
001f97 1f29      	ADC  R18,R25
001f98 1f39      	ADC  R19,R25
001f99 1f49      	ADC  R20,R25
001f9a 1f59      	ADC  R21,R25
001f9b 2fe3      	MOV  R30,R19
001f9c 2ff4      	MOV  R31,R20
001f9d 2f65      	MOV  R22,R21
001f9e 2f52      	MOV  R21,R18
001f9f 914f      	POP  R20
001fa0 913f      	POP  R19
001fa1 912f      	POP  R18
001fa2 911f      	POP  R17
001fa3 900f      	POP  R0
001fa4 2366      	TST  R22
001fa5 f02a      	BRMI __MULF122
001fa6 0f55      	LSL  R21
001fa7 1fee      	ROL  R30
001fa8 1fff      	ROL  R31
001fa9 1f66      	ROL  R22
001faa c002      	RJMP __MULF123
                 __MULF122:
001fab 9573      	INC  R23
001fac f24b      	BRVS __MULF125
                 __MULF123:
001fad decd      	RCALL __ROUND_REPACK
001fae 915f      	POP  R21
001faf 9508      	RET
                 
                 __MULF127:
001fb0 0d10      	ADD  R17,R0
001fb1 1d21      	ADC  R18,R1
001fb2 1f39      	ADC  R19,R25
001fb3 c002      	RJMP __MULF128
                 __MULF126:
001fb4 0d20      	ADD  R18,R0
001fb5 1d31      	ADC  R19,R1
                 __MULF128:
001fb6 1f49      	ADC  R20,R25
001fb7 1f59      	ADC  R21,R25
001fb8 9508      	RET
                 
                 __DIVF21:
001fb9 935f      	PUSH R21
001fba dedc      	RCALL __UNPACK
001fbb 3870      	CPI  R23,0x80
001fbc f421      	BRNE __DIVF210
001fbd 2011      	TST  R1
                 __DIVF211:
001fbe f40a      	BRPL __DIVF219
001fbf cf9f      	RJMP __MINRES
                 __DIVF219:
001fc0 cfa4      	RJMP __MAXRES
                 __DIVF210:
001fc1 3890      	CPI  R25,0x80
001fc2 f409      	BRNE __DIVF218
                 __DIVF217:
001fc3 cf95      	RJMP __ZERORES
                 __DIVF218:
001fc4 2401      	EOR  R0,R1
001fc5 9408      	SEC
001fc6 0b97      	SBC  R25,R23
001fc7 f41b      	BRVC __DIVF216
001fc8 f3d4      	BRLT __DIVF217
001fc9 2000      	TST  R0
001fca cff3      	RJMP __DIVF211
                 __DIVF216:
001fcb 2f79      	MOV  R23,R25
001fcc 931f      	PUSH R17
001fcd 932f      	PUSH R18
001fce 933f      	PUSH R19
001fcf 934f      	PUSH R20
001fd0 2411      	CLR  R1
001fd1 2711      	CLR  R17
001fd2 2722      	CLR  R18
001fd3 2733      	CLR  R19
001fd4 2744      	CLR  R20
001fd5 2755      	CLR  R21
001fd6 e290      	LDI  R25,32
                 __DIVF212:
001fd7 17ae      	CP   R26,R30
001fd8 07bf      	CPC  R27,R31
001fd9 0786      	CPC  R24,R22
001fda 0741      	CPC  R20,R17
001fdb f030      	BRLO __DIVF213
001fdc 1bae      	SUB  R26,R30
001fdd 0bbf      	SBC  R27,R31
001fde 0b86      	SBC  R24,R22
001fdf 0b41      	SBC  R20,R17
001fe0 9408      	SEC
001fe1 c001      	RJMP __DIVF214
                 __DIVF213:
001fe2 9488      	CLC
                 __DIVF214:
001fe3 1f55      	ROL  R21
001fe4 1f22      	ROL  R18
001fe5 1f33      	ROL  R19
001fe6 1c11      	ROL  R1
001fe7 1faa      	ROL  R26
001fe8 1fbb      	ROL  R27
001fe9 1f88      	ROL  R24
001fea 1f44      	ROL  R20
001feb 959a      	DEC  R25
001fec f751      	BRNE __DIVF212
001fed 01f9      	MOVW R30,R18
001fee 2d61      	MOV  R22,R1
001fef 914f      	POP  R20
001ff0 913f      	POP  R19
001ff1 912f      	POP  R18
001ff2 911f      	POP  R17
001ff3 2366      	TST  R22
001ff4 f032      	BRMI __DIVF215
001ff5 0f55      	LSL  R21
001ff6 1fee      	ROL  R30
001ff7 1fff      	ROL  R31
001ff8 1f66      	ROL  R22
001ff9 957a      	DEC  R23
001ffa f243      	BRVS __DIVF217
                 __DIVF215:
001ffb de7f      	RCALL __ROUND_REPACK
001ffc 915f      	POP  R21
001ffd 9508      	RET
                 
                 __CMPF12:
001ffe 2399      	TST  R25
001fff f09a      	BRMI __CMPF120
002000 2377      	TST  R23
002001 f042      	BRMI __CMPF121
002002 1797      	CP   R25,R23
002003 f048      	BRLO __CMPF122
002004 f429      	BRNE __CMPF121
002005 17ae      	CP   R26,R30
002006 07bf      	CPC  R27,R31
002007 0786      	CPC  R24,R22
002008 f020      	BRLO __CMPF122
002009 f031      	BREQ __CMPF123
                 __CMPF121:
00200a 9498      	CLZ
00200b 9488      	CLC
00200c 9508      	RET
                 __CMPF122:
00200d 9498      	CLZ
00200e 9408      	SEC
00200f 9508      	RET
                 __CMPF123:
002010 9418      	SEZ
002011 9488      	CLC
002012 9508      	RET
                 __CMPF120:
002013 2377      	TST  R23
002014 f7c2      	BRPL __CMPF122
002015 1797      	CP   R25,R23
002016 f398      	BRLO __CMPF121
002017 f7a9      	BRNE __CMPF122
002018 17ea      	CP   R30,R26
002019 07fb      	CPC  R31,R27
00201a 0768      	CPC  R22,R24
00201b f388      	BRLO __CMPF122
00201c f399      	BREQ __CMPF123
00201d cfec      	RJMP __CMPF121
                 
                 __ADDW2R15:
00201e 2400      	CLR  R0
00201f 0daf      	ADD  R26,R15
002020 1db0      	ADC  R27,R0
002021 9508      	RET
                 
                 __ANEGW1:
002022 95f1      	NEG  R31
002023 95e1      	NEG  R30
002024 40f0      	SBCI R31,0
002025 9508      	RET
                 
                 __ANEGD1:
002026 95f0      	COM  R31
002027 9560      	COM  R22
002028 9570      	COM  R23
002029 95e1      	NEG  R30
00202a 4fff      	SBCI R31,-1
00202b 4f6f      	SBCI R22,-1
00202c 4f7f      	SBCI R23,-1
00202d 9508      	RET
                 
                 __LSLB12:
00202e 23ee      	TST  R30
00202f 2e0e      	MOV  R0,R30
002030 2fea      	MOV  R30,R26
002031 f019      	BREQ __LSLB12R
                 __LSLB12L:
002032 0fee      	LSL  R30
002033 940a      	DEC  R0
002034 f7e9      	BRNE __LSLB12L
                 __LSLB12R:
002035 9508      	RET
                 
                 __LSRB12:
002036 23ee      	TST  R30
002037 2e0e      	MOV  R0,R30
002038 2fea      	MOV  R30,R26
002039 f019      	BREQ __LSRB12R
                 __LSRB12L:
00203a 95e6      	LSR  R30
00203b 940a      	DEC  R0
00203c f7e9      	BRNE __LSRB12L
                 __LSRB12R:
00203d 9508      	RET
                 
                 __LSLW12:
00203e 23ee      	TST  R30
00203f 2e0e      	MOV  R0,R30
002040 01fd      	MOVW R30,R26
002041 f021      	BREQ __LSLW12R
                 __LSLW12L:
002042 0fee      	LSL  R30
002043 1fff      	ROL  R31
002044 940a      	DEC  R0
002045 f7e1      	BRNE __LSLW12L
                 __LSLW12R:
002046 9508      	RET
                 
                 __LSLW3:
002047 0fee      	LSL  R30
002048 1fff      	ROL  R31
                 __LSLW2:
002049 0fee      	LSL  R30
00204a 1fff      	ROL  R31
00204b 0fee      	LSL  R30
00204c 1fff      	ROL  R31
00204d 9508      	RET
                 
                 __LSRW3:
00204e 95f6      	LSR  R31
00204f 95e7      	ROR  R30
                 __LSRW2:
002050 95f6      	LSR  R31
002051 95e7      	ROR  R30
002052 95f6      	LSR  R31
002053 95e7      	ROR  R30
002054 9508      	RET
                 
                 __CBD1:
002055 2ffe      	MOV  R31,R30
002056 0fff      	ADD  R31,R31
002057 0bff      	SBC  R31,R31
002058 2f6f      	MOV  R22,R31
002059 2f7f      	MOV  R23,R31
00205a 9508      	RET
                 
                 __CWD1:
00205b 2f6f      	MOV  R22,R31
00205c 0f66      	ADD  R22,R22
00205d 0b66      	SBC  R22,R22
00205e 2f76      	MOV  R23,R22
00205f 9508      	RET
                 
                 __NEB12:
002060 17ea      	CP   R30,R26
002061 e0e1      	LDI  R30,1
002062 f409      	BRNE __NEB12T
002063 27ee      	CLR  R30
                 __NEB12T:
002064 9508      	RET
                 
                 __MULW12U:
002065 9ffa      	MUL  R31,R26
002066 2df0      	MOV  R31,R0
002067 9feb      	MUL  R30,R27
002068 0df0      	ADD  R31,R0
002069 9fea      	MUL  R30,R26
00206a 2de0      	MOV  R30,R0
00206b 0df1      	ADD  R31,R1
00206c 9508      	RET
                 
                 __MULD12U:
00206d 9f7a      	MUL  R23,R26
00206e 2d70      	MOV  R23,R0
00206f 9f6b      	MUL  R22,R27
002070 0d70      	ADD  R23,R0
002071 9ff8      	MUL  R31,R24
002072 0d70      	ADD  R23,R0
002073 9fe9      	MUL  R30,R25
002074 0d70      	ADD  R23,R0
002075 9f6a      	MUL  R22,R26
002076 2d60      	MOV  R22,R0
002077 0d71      	ADD  R23,R1
002078 9ffb      	MUL  R31,R27
002079 0d60      	ADD  R22,R0
00207a 1d71      	ADC  R23,R1
00207b 9fe8      	MUL  R30,R24
00207c 0d60      	ADD  R22,R0
00207d 1d71      	ADC  R23,R1
00207e 2788      	CLR  R24
00207f 9ffa      	MUL  R31,R26
002080 2df0      	MOV  R31,R0
002081 0d61      	ADD  R22,R1
002082 1f78      	ADC  R23,R24
002083 9feb      	MUL  R30,R27
002084 0df0      	ADD  R31,R0
002085 1d61      	ADC  R22,R1
002086 1f78      	ADC  R23,R24
002087 9fea      	MUL  R30,R26
002088 2de0      	MOV  R30,R0
002089 0df1      	ADD  R31,R1
00208a 1f68      	ADC  R22,R24
00208b 1f78      	ADC  R23,R24
00208c 9508      	RET
                 
                 __MULW12:
00208d d062      	RCALL __CHKSIGNW
00208e dfd6      	RCALL __MULW12U
00208f f40e      	BRTC __MULW121
002090 df91      	RCALL __ANEGW1
                 __MULW121:
002091 9508      	RET
                 
                 __DIVB21U:
002092 2400      	CLR  R0
002093 e098      	LDI  R25,8
                 __DIVB21U1:
002094 0faa      	LSL  R26
002095 1c00      	ROL  R0
002096 1a0e      	SUB  R0,R30
002097 f410      	BRCC __DIVB21U2
002098 0e0e      	ADD  R0,R30
002099 c001      	RJMP __DIVB21U3
                 __DIVB21U2:
00209a 60a1      	SBR  R26,1
                 __DIVB21U3:
00209b 959a      	DEC  R25
00209c f7b9      	BRNE __DIVB21U1
00209d 2fea      	MOV  R30,R26
00209e 2da0      	MOV  R26,R0
00209f 9508      	RET
                 
                 __DIVB21:
0020a0 d043      	RCALL __CHKSIGNB
0020a1 dff0      	RCALL __DIVB21U
0020a2 f40e      	BRTC __DIVB211
0020a3 95e1      	NEG  R30
                 __DIVB211:
0020a4 9508      	RET
                 
                 __DIVD21U:
0020a5 933f      	PUSH R19
0020a6 934f      	PUSH R20
0020a7 935f      	PUSH R21
0020a8 2400      	CLR  R0
0020a9 2411      	CLR  R1
0020aa 2744      	CLR  R20
0020ab 2755      	CLR  R21
0020ac e230      	LDI  R19,32
                 __DIVD21U1:
0020ad 0faa      	LSL  R26
0020ae 1fbb      	ROL  R27
0020af 1f88      	ROL  R24
0020b0 1f99      	ROL  R25
0020b1 1c00      	ROL  R0
0020b2 1c11      	ROL  R1
0020b3 1f44      	ROL  R20
0020b4 1f55      	ROL  R21
0020b5 1a0e      	SUB  R0,R30
0020b6 0a1f      	SBC  R1,R31
0020b7 0b46      	SBC  R20,R22
0020b8 0b57      	SBC  R21,R23
0020b9 f428      	BRCC __DIVD21U2
0020ba 0e0e      	ADD  R0,R30
0020bb 1e1f      	ADC  R1,R31
0020bc 1f46      	ADC  R20,R22
0020bd 1f57      	ADC  R21,R23
0020be c001      	RJMP __DIVD21U3
                 __DIVD21U2:
0020bf 60a1      	SBR  R26,1
                 __DIVD21U3:
0020c0 953a      	DEC  R19
0020c1 f759      	BRNE __DIVD21U1
0020c2 01fd      	MOVW R30,R26
0020c3 01bc      	MOVW R22,R24
0020c4 01d0      	MOVW R26,R0
0020c5 01ca      	MOVW R24,R20
0020c6 915f      	POP  R21
0020c7 914f      	POP  R20
0020c8 913f      	POP  R19
0020c9 9508      	RET
                 
                 __MODB21:
0020ca 94e8      	CLT
0020cb ffa7      	SBRS R26,7
0020cc c002      	RJMP __MODB211
0020cd 95a1      	NEG  R26
0020ce 9468      	SET
                 __MODB211:
0020cf fde7      	SBRC R30,7
0020d0 95e1      	NEG  R30
0020d1 dfc0      	RCALL __DIVB21U
0020d2 2fea      	MOV  R30,R26
0020d3 f40e      	BRTC __MODB212
0020d4 95e1      	NEG  R30
                 __MODB212:
0020d5 9508      	RET
                 
                 __MANDW12:
0020d6 94e8      	CLT
0020d7 fff7      	SBRS R31,7
0020d8 c002      	RJMP __MANDW121
0020d9 df48      	RCALL __ANEGW1
0020da 9468      	SET
                 __MANDW121:
0020db 23ea      	AND  R30,R26
0020dc 23fb      	AND  R31,R27
0020dd f40e      	BRTC __MANDW122
0020de df43      	RCALL __ANEGW1
                 __MANDW122:
0020df 9508      	RET
                 
                 __MODD21U:
0020e0 dfc4      	RCALL __DIVD21U
0020e1 01fd      	MOVW R30,R26
0020e2 01bc      	MOVW R22,R24
0020e3 9508      	RET
                 
                 __CHKSIGNB:
0020e4 94e8      	CLT
0020e5 ffe7      	SBRS R30,7
0020e6 c002      	RJMP __CHKSB1
0020e7 95e1      	NEG  R30
0020e8 9468      	SET
                 __CHKSB1:
0020e9 ffa7      	SBRS R26,7
0020ea c004      	RJMP __CHKSB2
0020eb 95a1      	NEG  R26
0020ec f800      	BLD  R0,0
0020ed 9403      	INC  R0
0020ee fa00      	BST  R0,0
                 __CHKSB2:
0020ef 9508      	RET
                 
                 __CHKSIGNW:
0020f0 94e8      	CLT
0020f1 fff7      	SBRS R31,7
0020f2 c002      	RJMP __CHKSW1
0020f3 df2e      	RCALL __ANEGW1
0020f4 9468      	SET
                 __CHKSW1:
0020f5 ffb7      	SBRS R27,7
0020f6 c006      	RJMP __CHKSW2
0020f7 95a0      	COM  R26
0020f8 95b0      	COM  R27
0020f9 9611      	ADIW R26,1
0020fa f800      	BLD  R0,0
0020fb 9403      	INC  R0
0020fc fa00      	BST  R0,0
                 __CHKSW2:
0020fd 9508      	RET
                 
                 __GETW1P:
0020fe 91ed      	LD   R30,X+
0020ff 91fc      	LD   R31,X
002100 9711      	SBIW R26,1
002101 9508      	RET
                 
                 __GETD1P:
002102 91ed      	LD   R30,X+
002103 91fd      	LD   R31,X+
002104 916d      	LD   R22,X+
002105 917c      	LD   R23,X
002106 9713      	SBIW R26,3
002107 9508      	RET
                 
                 __GETW1PF:
002108 9005      	LPM  R0,Z+
002109 91f4      	LPM  R31,Z
00210a 2de0      	MOV  R30,R0
00210b 9508      	RET
                 
                 __GETD1S0:
00210c 81e8      	LD   R30,Y
00210d 81f9      	LDD  R31,Y+1
00210e 816a      	LDD  R22,Y+2
00210f 817b      	LDD  R23,Y+3
002110 9508      	RET
                 
                 __GETD2S0:
002111 81a8      	LD   R26,Y
002112 81b9      	LDD  R27,Y+1
002113 818a      	LDD  R24,Y+2
002114 819b      	LDD  R25,Y+3
002115 9508      	RET
                 
                 __PUTD1S0:
002116 83e8      	ST   Y,R30
002117 83f9      	STD  Y+1,R31
002118 836a      	STD  Y+2,R22
002119 837b      	STD  Y+3,R23
00211a 9508      	RET
                 
                 __PUTPARD1:
00211b 937a      	ST   -Y,R23
00211c 936a      	ST   -Y,R22
00211d 93fa      	ST   -Y,R31
00211e 93ea      	ST   -Y,R30
00211f 9508      	RET
                 
                 __PUTPARD2:
002120 939a      	ST   -Y,R25
002121 938a      	ST   -Y,R24
002122 93ba      	ST   -Y,R27
002123 93aa      	ST   -Y,R26
002124 9508      	RET
                 
                 __SWAPD12:
002125 2e18      	MOV  R1,R24
002126 2f86      	MOV  R24,R22
002127 2d61      	MOV  R22,R1
002128 2e19      	MOV  R1,R25
002129 2f97      	MOV  R25,R23
00212a 2d71      	MOV  R23,R1
                 
                 __SWAPW12:
00212b 2e1b      	MOV  R1,R27
00212c 2fbf      	MOV  R27,R31
00212d 2df1      	MOV  R31,R1
                 
                 __SWAPB12:
00212e 2e1a      	MOV  R1,R26
00212f 2fae      	MOV  R26,R30
002130 2de1      	MOV  R30,R1
002131 9508      	RET
                 
                 __EEPROMRDB:
002132 99e1      	SBIC EECR,EEWE
002133 cffe      	RJMP __EEPROMRDB
002134 93ff      	PUSH R31
002135 b7ff      	IN   R31,SREG
002136 94f8      	CLI
002137 bbae      	OUT  EEARL,R26
002138 bbbf      	OUT  EEARH,R27
002139 9ae0      	SBI  EECR,EERE
00213a b3ed      	IN   R30,EEDR
00213b bfff      	OUT  SREG,R31
00213c 91ff      	POP  R31
00213d 9508      	RET
                 
                 __EEPROMWRB:
00213e 9be1      	SBIS EECR,EEWE
00213f c002      	RJMP __EEPROMWRB1
002140 95a8      	WDR
002141 cffc      	RJMP __EEPROMWRB
                 __EEPROMWRB1:
002142 b79f      	IN   R25,SREG
002143 94f8      	CLI
002144 bbae      	OUT  EEARL,R26
002145 bbbf      	OUT  EEARH,R27
002146 9ae0      	SBI  EECR,EERE
002147 b38d      	IN   R24,EEDR
002148 17e8      	CP   R30,R24
002149 f019      	BREQ __EEPROMWRB0
00214a bbed      	OUT  EEDR,R30
00214b 9ae2      	SBI  EECR,EEMWE
00214c 9ae1      	SBI  EECR,EEWE
                 __EEPROMWRB0:
00214d bf9f      	OUT  SREG,R25
00214e 9508      	RET
                 
                 __CPD10:
00214f 9730      	SBIW R30,0
002150 4060      	SBCI R22,0
002151 4070      	SBCI R23,0
002152 9508      	RET
                 
                 __CPW02:
002153 2400      	CLR  R0
002154 160a      	CP   R0,R26
002155 060b      	CPC  R0,R27
002156 9508      	RET
                 
                 __SAVELOCR6:
002157 935a      	ST   -Y,R21
                 __SAVELOCR5:
002158 934a      	ST   -Y,R20
                 __SAVELOCR4:
002159 933a      	ST   -Y,R19
                 __SAVELOCR3:
00215a 932a      	ST   -Y,R18
                 __SAVELOCR2:
00215b 931a      	ST   -Y,R17
00215c 930a      	ST   -Y,R16
00215d 9508      	RET
                 
                 __LOADLOCR6:
00215e 815d      	LDD  R21,Y+5
                 __LOADLOCR5:
00215f 814c      	LDD  R20,Y+4
                 __LOADLOCR4:
002160 813b      	LDD  R19,Y+3
                 __LOADLOCR3:
002161 812a      	LDD  R18,Y+2
                 __LOADLOCR2:
002162 8119      	LDD  R17,Y+1
002163 8108      	LD   R16,Y
002164 9508      	RET
                 
                 __INITLOCB:
                 __INITLOCW:
002165 0fac      	ADD  R26,R28
002166 1fbd      	ADC  R27,R29
                 __INITLOC0:
002167 9005      	LPM  R0,Z+
002168 920d      	ST   X+,R0
002169 958a      	DEC  R24
00216a f7e1      	BRNE __INITLOC0
00216b 9508      	RET
                 
                 ;END OF CODE MARKER
                 __END_OF_CODE:


RESOURCE USE INFORMATION
------------------------

Notice:
The register and instruction counts are symbol table hit counts,
and hence implicitly used resources are not counted, eg, the
'lpm' instruction without operands implicitly uses r0 and z,
none of which are counted.

x,y,z are separate entities in the symbol table and are
counted separately from r26..r31 here.

.dseg memory usage only counts static data declared with .byte

ATmega32A register use summary:
r0 : 112 r1 :  43 r2 :   0 r3 :   0 r4 :   0 r5 :   0 r6 :   1 r7 :   1 
r8 :   2 r9 :   1 r10:   1 r11:   1 r12:   0 r13:   1 r14:   0 r15:   4 
r16: 113 r17: 165 r18:  92 r19:  74 r20:  72 r21: 108 r22: 127 r23: 113 
r24:  89 r25:  66 r26: 762 r27: 255 r28:  56 r29:   2 r30:1402 r31: 393 
x  :  60 y  : 963 z  :  58 
Registers used: 29 out of 35 (82.9%)

ATmega32A instruction use summary:
.lds  :   0 .lds.l:   0 .sts  :   0 .sts.l:   0 adc   :  61 add   :  68 
adiw  :  72 and   :  20 andi  :  31 asr   :   0 bclr  :   0 bld   :  12 
brbc  :   0 brbs  :   0 brcc  :   9 brcs  :   1 break :   0 breq  :  99 
brge  :   3 brhc  :   0 brhs  :   0 brid  :   0 brie  :   0 brlo  :  71 
brlt  :   7 brmi  :  11 brne  : 138 brpl  :  10 brsh  :  32 brtc  :   6 
brts  :   1 brvc  :   4 brvs  :   4 bset  :   0 bst   :  12 call  : 511 
cbi   :  28 cbr   :   1 clc   :   4 clh   :   0 cli   :   3 cln   :   0 
clr   :  89 cls   :   0 clt   :   7 clv   :   0 clz   :   2 com   :  18 
cp    :  46 cpc   :  49 cpi   : 226 cpse  :   0 dec   :  22 des   :   0 
eor   :   8 fmul  :   0 fmuls :   0 fmulsu:   0 icall :   5 ijmp  :   0 
in    :  14 inc   :   4 jmp   :  49 ld    :  90 ldd   : 497 ldi   : 547 
lds   : 134 lpm   :  70 lsl   :  27 lsr   :  30 mov   : 194 movw  :  80 
mul   :  25 muls  :   0 mulsu :   0 neg   :  11 nop   :   4 or    :  14 
ori   :  15 out   :  53 pop   :  26 push  :  26 rcall : 115 ret   : 167 
reti  :   0 rjmp  : 306 rol   :  37 ror   :  18 sbc   :  16 sbci  :  38 
sbi   :  30 sbic  :   3 sbis  :   5 sbiw  :  52 sbr   :   4 sbrc  :   4 
sbrs  :  23 sec   :   6 seh   :   0 sei   :   0 sen   :   0 ser   :   8 
ses   :   0 set   :   6 sev   :   0 sez   :   1 sleep :   0 spm   :   0 
st    : 277 std   : 174 sts   :  77 sub   :  21 subi  : 105 swap  :   5 
tst   :  30 wdr   :   2 
Instructions used: 82 out of 116 (70.7%)

ATmega32A memory use summary [bytes]:
Segment   Begin    End      Code   Data   Used    Size   Use%
---------------------------------------------------------------
[.cseg] 0x000000 0x0042d8  11750   5362  17112   32768  52.2%
[.dseg] 0x000060 0x00032f      0    207    207    2048  10.1%
[.eseg] 0x000000 0x000000      0      0      0    1024   0.0%

Assembly complete, 0 errors, 23 warnings
